	.file	"bmptk.cpp"
	.section	.text$__tcf_0,"x"
	.def	___tcf_0;	.scl	3;	.type	32;	.endef
___tcf_0:
LFB1786:
	.cfi_startproc
	pushl	%ebp
	.cfi_def_cfa_offset 8
	.cfi_offset 5, -8
	movl	%esp, %ebp
	.cfi_def_cfa_register 5
	movl	$__ZStL8__ioinit, %ecx
	popl	%ebp
	.cfi_restore 5
	.cfi_def_cfa 4, 4
	jmp	__ZNSt8ios_base4InitD1Ev
	.cfi_endproc
LFE1786:
	.section	.text$_ZN5bmptk15wait_busy_untilENS_4timeE,"x"
	.globl	__ZN5bmptk15wait_busy_untilENS_4timeE
	.def	__ZN5bmptk15wait_busy_untilENS_4timeE;	.scl	2;	.type	32;	.endef
__ZN5bmptk15wait_busy_untilENS_4timeE:
LFB1735:
	.cfi_startproc
	pushl	%ebp
	.cfi_def_cfa_offset 8
	.cfi_offset 5, -8
	movl	%esp, %ebp
	.cfi_def_cfa_register 5
	pushl	%esi
	pushl	%ebx
	.cfi_offset 6, -12
	.cfi_offset 3, -16
	movl	8(%ebp), %ebx
	movl	12(%ebp), %esi
L8:
	call	__ZN5bmptk12current_timeEv
	cmpl	%esi, %edx
	jl	L8
	jg	L3
	cmpl	%ebx, %eax
	jb	L8
L3:
	popl	%ebx
	.cfi_restore 3
	popl	%esi
	.cfi_restore 6
	popl	%ebp
	.cfi_restore 5
	.cfi_def_cfa 4, 4
	ret
	.cfi_endproc
LFE1735:
	.section	.text$_ZN5bmptk18wait_until_defaultENS_4timeE,"x"
	.globl	__ZN5bmptk18wait_until_defaultENS_4timeE
	.def	__ZN5bmptk18wait_until_defaultENS_4timeE;	.scl	2;	.type	32;	.endef
__ZN5bmptk18wait_until_defaultENS_4timeE:
LFB1737:
	.cfi_startproc
	pushl	%ebp
	.cfi_def_cfa_offset 8
	.cfi_offset 5, -8
	movl	%esp, %ebp
	.cfi_def_cfa_register 5
	popl	%ebp
	.cfi_restore 5
	.cfi_def_cfa 4, 4
	jmp	__ZN5bmptk15wait_busy_untilENS_4timeE
	.cfi_endproc
LFE1737:
	.section	.text$_ZN5bmptk9wait_busyENS_4timeE,"x"
	.globl	__ZN5bmptk9wait_busyENS_4timeE
	.def	__ZN5bmptk9wait_busyENS_4timeE;	.scl	2;	.type	32;	.endef
__ZN5bmptk9wait_busyENS_4timeE:
LFB1736:
	.cfi_startproc
	pushl	%ebp
	.cfi_def_cfa_offset 8
	.cfi_offset 5, -8
	movl	%esp, %ebp
	.cfi_def_cfa_register 5
	pushl	%edi
	pushl	%esi
	subl	$16, %esp
	.cfi_offset 7, -12
	.cfi_offset 6, -16
	movl	8(%ebp), %esi
	movl	12(%ebp), %edi
	call	__ZN5bmptk12current_timeEv
	addl	%esi, %eax
	adcl	%edi, %edx
	movl	%eax, (%esp)
	movl	%edx, 4(%esp)
	call	__ZN5bmptk15wait_busy_untilENS_4timeE
	addl	$16, %esp
	popl	%esi
	.cfi_restore 6
	popl	%edi
	.cfi_restore 7
	popl	%ebp
	.cfi_restore 5
	.cfi_def_cfa 4, 4
	ret
	.cfi_endproc
LFE1736:
	.section	.text$_ZN5bmptk10wait_untilENS_4timeE,"x"
	.globl	__ZN5bmptk10wait_untilENS_4timeE
	.def	__ZN5bmptk10wait_untilENS_4timeE;	.scl	2;	.type	32;	.endef
__ZN5bmptk10wait_untilENS_4timeE:
LFB1738:
	.cfi_startproc
	pushl	%ebp
	.cfi_def_cfa_offset 8
	.cfi_offset 5, -8
	movl	%esp, %ebp
	.cfi_def_cfa_register 5
	movl	__ZN5bmptk18wait_until_handlerE, %eax
	popl	%ebp
	.cfi_restore 5
	.cfi_def_cfa 4, 4
	jmp	*%eax
	.cfi_endproc
LFE1738:
	.section	.text$_ZN5bmptk4waitENS_4timeE,"x"
	.globl	__ZN5bmptk4waitENS_4timeE
	.def	__ZN5bmptk4waitENS_4timeE;	.scl	2;	.type	32;	.endef
__ZN5bmptk4waitENS_4timeE:
LFB1739:
	.cfi_startproc
	pushl	%ebp
	.cfi_def_cfa_offset 8
	.cfi_offset 5, -8
	movl	%esp, %ebp
	.cfi_def_cfa_register 5
	pushl	%edi
	pushl	%esi
	subl	$16, %esp
	.cfi_offset 7, -12
	.cfi_offset 6, -16
	movl	8(%ebp), %esi
	movl	12(%ebp), %edi
	call	__ZN5bmptk12current_timeEv
	addl	%esi, %eax
	adcl	%edi, %edx
	movl	%eax, (%esp)
	movl	%edx, 4(%esp)
	call	__ZN5bmptk10wait_untilENS_4timeE
	addl	$16, %esp
	popl	%esi
	.cfi_restore 6
	popl	%edi
	.cfi_restore 7
	popl	%ebp
	.cfi_restore 5
	.cfi_def_cfa 4, 4
	ret
	.cfi_endproc
LFE1739:
	.section	.text$fatal_error_detected,"x"
	.globl	_fatal_error_detected
	.def	_fatal_error_detected;	.scl	2;	.type	32;	.endef
_fatal_error_detected:
LFB1740:
	.cfi_startproc
	pushl	%ebp
	.cfi_def_cfa_offset 8
	.cfi_offset 5, -8
	movl	%esp, %ebp
	.cfi_def_cfa_register 5
	subl	$24, %esp
	movl	__ZN5bmptk18user_error_handlerE, %eax
	testl	%eax, %eax
	je	L19
	movl	8(%ebp), %edx
	movl	%edx, (%esp)
	call	*%eax
L19:
L22:
	jmp	L22
	.cfi_endproc
LFE1740:
	.section	.text$_ZN5bmptk19fatal_error_handlerEPFvPKcE,"x"
	.globl	__ZN5bmptk19fatal_error_handlerEPFvPKcE
	.def	__ZN5bmptk19fatal_error_handlerEPFvPKcE;	.scl	2;	.type	32;	.endef
__ZN5bmptk19fatal_error_handlerEPFvPKcE:
LFB1741:
	.cfi_startproc
	pushl	%ebp
	.cfi_def_cfa_offset 8
	.cfi_offset 5, -8
	movl	%esp, %ebp
	.cfi_def_cfa_register 5
	movl	8(%ebp), %eax
	movl	%eax, __ZN5bmptk18user_error_handlerE
	popl	%ebp
	.cfi_restore 5
	.cfi_def_cfa 4, 4
	ret
	.cfi_endproc
LFE1741:
	.section	.text.startup._GLOBAL__sub_I__ZN5bmptk15wait_busy_untilENS_4timeE,"x"
	.def	__GLOBAL__sub_I__ZN5bmptk15wait_busy_untilENS_4timeE;	.scl	3;	.type	32;	.endef
__GLOBAL__sub_I__ZN5bmptk15wait_busy_untilENS_4timeE:
LFB1791:
	.cfi_startproc
	pushl	%ebp
	.cfi_def_cfa_offset 8
	.cfi_offset 5, -8
	movl	%esp, %ebp
	.cfi_def_cfa_register 5
	subl	$24, %esp
	movl	$__ZStL8__ioinit, %ecx
	call	__ZNSt8ios_base4InitC1Ev
	movl	$___tcf_0, (%esp)
	call	_atexit
	leave
	.cfi_restore 5
	.cfi_def_cfa 4, 4
	ret
	.cfi_endproc
LFE1791:
	.section	.ctors,"w"
	.align 4
	.long	__GLOBAL__sub_I__ZN5bmptk15wait_busy_untilENS_4timeE
	.globl	__ZN5bmptk18user_error_handlerE
	.section	.data$_ZN5bmptk18user_error_handlerE,"w"
	.align 4
__ZN5bmptk18user_error_handlerE:
	.space 4
	.globl	__ZN5bmptk18wait_until_handlerE
	.section	.data$_ZN5bmptk18wait_until_handlerE,"w"
	.align 4
__ZN5bmptk18wait_until_handlerE:
	.long	__ZN5bmptk18wait_until_defaultENS_4timeE
	.section	.data$_ZStL8__ioinit,"w"
__ZStL8__ioinit:
	.space 1
	.def	__ZNSt8ios_base4InitD1Ev;	.scl	2;	.type	32;	.endef
	.def	__ZN5bmptk12current_timeEv;	.scl	2;	.type	32;	.endef
	.def	__ZNSt8ios_base4InitC1Ev;	.scl	2;	.type	32;	.endef
	.def	_atexit;	.scl	2;	.type	32;	.endef
