
main.elf:     file format elf32-littlearm


Disassembly of section .text:

00000000 <__text_start>:
   0:	10000428 	.word	0x10000428
   4:	00000571 	.word	0x00000571
	...

00000020 <_ZN5hwcpp12lpc1114_baseILi4096ELi32768ELi48000000EE4uartILj38400EE3putEc>:
  20:	4b02      	ldr	r3, [pc, #8]	; (2c <_ZN5hwcpp12lpc1114_baseILi4096ELi32768ELi48000000EE4uartILj38400EE3putEc+0xc>)
  22:	695a      	ldr	r2, [r3, #20]
  24:	0651      	lsls	r1, r2, #25
  26:	d5fb      	bpl.n	20 <_ZN5hwcpp12lpc1114_baseILi4096ELi32768ELi48000000EE4uartILj38400EE3putEc>
  28:	6018      	str	r0, [r3, #0]
  2a:	4770      	bx	lr
  2c:	40008000 	.word	0x40008000

00000030 <_ZN5hwcpp12lpc1114_baseILi4096ELi32768ELi48000000EE16initialize_clockEv.part.8>:
  30:	4b0e      	ldr	r3, [pc, #56]	; (6c <_ZN5hwcpp12lpc1114_baseILi4096ELi32768ELi48000000EE16initialize_clockEv.part.8+0x3c>)
  32:	2201      	movs	r2, #1
  34:	701a      	strb	r2, [r3, #0]
  36:	4b0e      	ldr	r3, [pc, #56]	; (70 <_ZN5hwcpp12lpc1114_baseILi4096ELi32768ELi48000000EE16initialize_clockEv.part.8+0x40>)
  38:	228e      	movs	r2, #142	; 0x8e
  3a:	0092      	lsls	r2, r2, #2
  3c:	5898      	ldr	r0, [r3, r2]
  3e:	2180      	movs	r1, #128	; 0x80
  40:	4308      	orrs	r0, r1
  42:	5098      	str	r0, [r3, r2]
  44:	2023      	movs	r0, #35	; 0x23
  46:	6098      	str	r0, [r3, #8]
  48:	5898      	ldr	r0, [r3, r2]
  4a:	4388      	bics	r0, r1
  4c:	5098      	str	r0, [r3, r2]
  4e:	68d8      	ldr	r0, [r3, #12]
  50:	2101      	movs	r1, #1
  52:	4a07      	ldr	r2, [pc, #28]	; (70 <_ZN5hwcpp12lpc1114_baseILi4096ELi32768ELi48000000EE16initialize_clockEv.part.8+0x40>)
  54:	4208      	tst	r0, r1
  56:	d0fa      	beq.n	4e <_ZN5hwcpp12lpc1114_baseILi4096ELi32768ELi48000000EE16initialize_clockEv.part.8+0x1e>
  58:	2303      	movs	r3, #3
  5a:	6713      	str	r3, [r2, #112]	; 0x70
  5c:	6f53      	ldr	r3, [r2, #116]	; 0x74
  5e:	438b      	bics	r3, r1
  60:	6753      	str	r3, [r2, #116]	; 0x74
  62:	6f53      	ldr	r3, [r2, #116]	; 0x74
  64:	4319      	orrs	r1, r3
  66:	6751      	str	r1, [r2, #116]	; 0x74
  68:	4770      	bx	lr
  6a:	46c0      	nop			; (mov r8, r8)
  6c:	10000024 	.word	0x10000024
  70:	40048000 	.word	0x40048000

00000074 <_ZNSt7ostream6fillerEi>:
  74:	b538      	push	{r3, r4, r5, lr}
  76:	1c05      	adds	r5, r0, #0
  78:	1c0c      	adds	r4, r1, #0
  7a:	2c00      	cmp	r4, #0
  7c:	dd06      	ble.n	8c <_ZNSt7ostream6fillerEi+0x18>
  7e:	692b      	ldr	r3, [r5, #16]
  80:	7a28      	ldrb	r0, [r5, #8]
  82:	2b00      	cmp	r3, #0
  84:	d000      	beq.n	88 <_ZNSt7ostream6fillerEi+0x14>
  86:	4798      	blx	r3
  88:	3c01      	subs	r4, #1
  8a:	e7f6      	b.n	7a <_ZNSt7ostream6fillerEi+0x6>
  8c:	bd38      	pop	{r3, r4, r5, pc}

0000008e <_ZStlsRSt7ostreamPKc>:
  8e:	b570      	push	{r4, r5, r6, lr}
  90:	7a83      	ldrb	r3, [r0, #10]
  92:	1c04      	adds	r4, r0, #0
  94:	1c0d      	adds	r5, r1, #0
  96:	2b00      	cmp	r3, #0
  98:	d00b      	beq.n	b2 <_ZStlsRSt7ostreamPKc+0x24>
  9a:	6801      	ldr	r1, [r0, #0]
  9c:	1c2b      	adds	r3, r5, #0
  9e:	7818      	ldrb	r0, [r3, #0]
  a0:	1b5a      	subs	r2, r3, r5
  a2:	2800      	cmp	r0, #0
  a4:	d001      	beq.n	aa <_ZStlsRSt7ostreamPKc+0x1c>
  a6:	3301      	adds	r3, #1
  a8:	e7f9      	b.n	9e <_ZStlsRSt7ostreamPKc+0x10>
  aa:	1a89      	subs	r1, r1, r2
  ac:	1c20      	adds	r0, r4, #0
  ae:	f7ff ffe1 	bl	74 <_ZNSt7ostream6fillerEi>
  b2:	1c2e      	adds	r6, r5, #0
  b4:	7830      	ldrb	r0, [r6, #0]
  b6:	2800      	cmp	r0, #0
  b8:	d005      	beq.n	c6 <_ZStlsRSt7ostreamPKc+0x38>
  ba:	6923      	ldr	r3, [r4, #16]
  bc:	2b00      	cmp	r3, #0
  be:	d000      	beq.n	c2 <_ZStlsRSt7ostreamPKc+0x34>
  c0:	4798      	blx	r3
  c2:	3601      	adds	r6, #1
  c4:	e7f6      	b.n	b4 <_ZStlsRSt7ostreamPKc+0x26>
  c6:	7aa3      	ldrb	r3, [r4, #10]
  c8:	2b00      	cmp	r3, #0
  ca:	d10b      	bne.n	e4 <_ZStlsRSt7ostreamPKc+0x56>
  cc:	6821      	ldr	r1, [r4, #0]
  ce:	1c2b      	adds	r3, r5, #0
  d0:	7818      	ldrb	r0, [r3, #0]
  d2:	1b5a      	subs	r2, r3, r5
  d4:	2800      	cmp	r0, #0
  d6:	d001      	beq.n	dc <_ZStlsRSt7ostreamPKc+0x4e>
  d8:	3301      	adds	r3, #1
  da:	e7f9      	b.n	d0 <_ZStlsRSt7ostreamPKc+0x42>
  dc:	1a89      	subs	r1, r1, r2
  de:	1c20      	adds	r0, r4, #0
  e0:	f7ff ffc8 	bl	74 <_ZNSt7ostream6fillerEi>
  e4:	2300      	movs	r3, #0
  e6:	1c20      	adds	r0, r4, #0
  e8:	6023      	str	r3, [r4, #0]
  ea:	bd70      	pop	{r4, r5, r6, pc}

000000ec <_ZStlsRSt7ostreami>:
  ec:	b570      	push	{r4, r5, r6, lr}
  ee:	b094      	sub	sp, #80	; 0x50
  f0:	466b      	mov	r3, sp
  f2:	3349      	adds	r3, #73	; 0x49
  f4:	2200      	movs	r2, #0
  f6:	1c04      	adds	r4, r0, #0
  f8:	1c0d      	adds	r5, r1, #0
  fa:	701a      	strb	r2, [r3, #0]
  fc:	9313      	str	r3, [sp, #76]	; 0x4c
  fe:	424e      	negs	r6, r1
 100:	4291      	cmp	r1, r2
 102:	db1e      	blt.n	142 <_ZStlsRSt7ostreami+0x56>
 104:	1e0e      	subs	r6, r1, #0
 106:	d11c      	bne.n	142 <_ZStlsRSt7ostreami+0x56>
 108:	ab12      	add	r3, sp, #72	; 0x48
 10a:	2230      	movs	r2, #48	; 0x30
 10c:	9313      	str	r3, [sp, #76]	; 0x4c
 10e:	701a      	strb	r2, [r3, #0]
 110:	e017      	b.n	142 <_ZStlsRSt7ostreami+0x56>
 112:	1c30      	adds	r0, r6, #0
 114:	6861      	ldr	r1, [r4, #4]
 116:	f000 faf9 	bl	70c <__aeabi_idivmod>
 11a:	b2c9      	uxtb	r1, r1
 11c:	1c0a      	adds	r2, r1, #0
 11e:	3230      	adds	r2, #48	; 0x30
 120:	7a63      	ldrb	r3, [r4, #9]
 122:	b2d2      	uxtb	r2, r2
 124:	2909      	cmp	r1, #9
 126:	d903      	bls.n	130 <_ZStlsRSt7ostreami+0x44>
 128:	1c1a      	adds	r2, r3, #0
 12a:	3a0a      	subs	r2, #10
 12c:	1889      	adds	r1, r1, r2
 12e:	b2ca      	uxtb	r2, r1
 130:	9b13      	ldr	r3, [sp, #76]	; 0x4c
 132:	1c30      	adds	r0, r6, #0
 134:	3b01      	subs	r3, #1
 136:	9313      	str	r3, [sp, #76]	; 0x4c
 138:	701a      	strb	r2, [r3, #0]
 13a:	6861      	ldr	r1, [r4, #4]
 13c:	f000 fa90 	bl	660 <__aeabi_idiv>
 140:	1c06      	adds	r6, r0, #0
 142:	2e00      	cmp	r6, #0
 144:	dce5      	bgt.n	112 <_ZStlsRSt7ostreami+0x26>
 146:	7b63      	ldrb	r3, [r4, #13]
 148:	2b00      	cmp	r3, #0
 14a:	d022      	beq.n	192 <_ZStlsRSt7ostreami+0xa6>
 14c:	6863      	ldr	r3, [r4, #4]
 14e:	2b08      	cmp	r3, #8
 150:	d010      	beq.n	174 <_ZStlsRSt7ostreami+0x88>
 152:	dc06      	bgt.n	162 <_ZStlsRSt7ostreami+0x76>
 154:	2b02      	cmp	r3, #2
 156:	d112      	bne.n	17e <_ZStlsRSt7ostreami+0x92>
 158:	9b13      	ldr	r3, [sp, #76]	; 0x4c
 15a:	2262      	movs	r2, #98	; 0x62
 15c:	3b01      	subs	r3, #1
 15e:	9313      	str	r3, [sp, #76]	; 0x4c
 160:	e011      	b.n	186 <_ZStlsRSt7ostreami+0x9a>
 162:	2b0a      	cmp	r3, #10
 164:	d015      	beq.n	192 <_ZStlsRSt7ostreami+0xa6>
 166:	2b10      	cmp	r3, #16
 168:	d109      	bne.n	17e <_ZStlsRSt7ostreami+0x92>
 16a:	9b13      	ldr	r3, [sp, #76]	; 0x4c
 16c:	2278      	movs	r2, #120	; 0x78
 16e:	3b01      	subs	r3, #1
 170:	9313      	str	r3, [sp, #76]	; 0x4c
 172:	e008      	b.n	186 <_ZStlsRSt7ostreami+0x9a>
 174:	9b13      	ldr	r3, [sp, #76]	; 0x4c
 176:	226f      	movs	r2, #111	; 0x6f
 178:	3b01      	subs	r3, #1
 17a:	9313      	str	r3, [sp, #76]	; 0x4c
 17c:	e003      	b.n	186 <_ZStlsRSt7ostreami+0x9a>
 17e:	9b13      	ldr	r3, [sp, #76]	; 0x4c
 180:	223f      	movs	r2, #63	; 0x3f
 182:	3b01      	subs	r3, #1
 184:	9313      	str	r3, [sp, #76]	; 0x4c
 186:	701a      	strb	r2, [r3, #0]
 188:	9b13      	ldr	r3, [sp, #76]	; 0x4c
 18a:	2230      	movs	r2, #48	; 0x30
 18c:	3b01      	subs	r3, #1
 18e:	9313      	str	r3, [sp, #76]	; 0x4c
 190:	701a      	strb	r2, [r3, #0]
 192:	2d00      	cmp	r5, #0
 194:	da04      	bge.n	1a0 <_ZStlsRSt7ostreami+0xb4>
 196:	9b13      	ldr	r3, [sp, #76]	; 0x4c
 198:	222d      	movs	r2, #45	; 0x2d
 19a:	3b01      	subs	r3, #1
 19c:	9313      	str	r3, [sp, #76]	; 0x4c
 19e:	e006      	b.n	1ae <_ZStlsRSt7ostreami+0xc2>
 1a0:	7ae3      	ldrb	r3, [r4, #11]
 1a2:	2b00      	cmp	r3, #0
 1a4:	d004      	beq.n	1b0 <_ZStlsRSt7ostreami+0xc4>
 1a6:	9b13      	ldr	r3, [sp, #76]	; 0x4c
 1a8:	222b      	movs	r2, #43	; 0x2b
 1aa:	3b01      	subs	r3, #1
 1ac:	9313      	str	r3, [sp, #76]	; 0x4c
 1ae:	701a      	strb	r2, [r3, #0]
 1b0:	9913      	ldr	r1, [sp, #76]	; 0x4c
 1b2:	1c20      	adds	r0, r4, #0
 1b4:	f7ff ff6b 	bl	8e <_ZStlsRSt7ostreamPKc>
 1b8:	1c20      	adds	r0, r4, #0
 1ba:	b014      	add	sp, #80	; 0x50
 1bc:	bd70      	pop	{r4, r5, r6, pc}
	...

000001c0 <_ZN5hwcpp12lpc1114_baseILi4096ELi32768ELi48000000EE4uartILj38400EE4initEv>:
 1c0:	b538      	push	{r3, r4, r5, lr}
 1c2:	4b24      	ldr	r3, [pc, #144]	; (254 <_ZN5hwcpp12lpc1114_baseILi4096ELi32768ELi48000000EE4uartILj38400EE4initEv+0x94>)
 1c4:	781b      	ldrb	r3, [r3, #0]
 1c6:	2b00      	cmp	r3, #0
 1c8:	d101      	bne.n	1ce <_ZN5hwcpp12lpc1114_baseILi4096ELi32768ELi48000000EE4uartILj38400EE4initEv+0xe>
 1ca:	f7ff ff31 	bl	30 <_ZN5hwcpp12lpc1114_baseILi4096ELi32768ELi48000000EE16initialize_clockEv.part.8>
 1ce:	4b22      	ldr	r3, [pc, #136]	; (258 <_ZN5hwcpp12lpc1114_baseILi4096ELi32768ELi48000000EE4uartILj38400EE4initEv+0x98>)
 1d0:	2280      	movs	r2, #128	; 0x80
 1d2:	0392      	lsls	r2, r2, #14
 1d4:	67da      	str	r2, [r3, #124]	; 0x7c
 1d6:	4b21      	ldr	r3, [pc, #132]	; (25c <_ZN5hwcpp12lpc1114_baseILi4096ELi32768ELi48000000EE4uartILj38400EE4initEv+0x9c>)
 1d8:	2280      	movs	r2, #128	; 0x80
 1da:	6fd9      	ldr	r1, [r3, #124]	; 0x7c
 1dc:	0252      	lsls	r2, r2, #9
 1de:	430a      	orrs	r2, r1
 1e0:	67da      	str	r2, [r3, #124]	; 0x7c
 1e2:	6fda      	ldr	r2, [r3, #124]	; 0x7c
 1e4:	2080      	movs	r0, #128	; 0x80
 1e6:	0140      	lsls	r0, r0, #5
 1e8:	4302      	orrs	r2, r0
 1ea:	67da      	str	r2, [r3, #124]	; 0x7c
 1ec:	4a1c      	ldr	r2, [pc, #112]	; (260 <_ZN5hwcpp12lpc1114_baseILi4096ELi32768ELi48000000EE4uartILj38400EE4initEv+0xa0>)
 1ee:	2507      	movs	r5, #7
 1f0:	6811      	ldr	r1, [r2, #0]
 1f2:	43a9      	bics	r1, r5
 1f4:	6011      	str	r1, [r2, #0]
 1f6:	6814      	ldr	r4, [r2, #0]
 1f8:	2101      	movs	r1, #1
 1fa:	430c      	orrs	r4, r1
 1fc:	6014      	str	r4, [r2, #0]
 1fe:	4a19      	ldr	r2, [pc, #100]	; (264 <_ZN5hwcpp12lpc1114_baseILi4096ELi32768ELi48000000EE4uartILj38400EE4initEv+0xa4>)
 200:	6814      	ldr	r4, [r2, #0]
 202:	43ac      	bics	r4, r5
 204:	6014      	str	r4, [r2, #0]
 206:	6814      	ldr	r4, [r2, #0]
 208:	430c      	orrs	r4, r1
 20a:	6014      	str	r4, [r2, #0]
 20c:	6fda      	ldr	r2, [r3, #124]	; 0x7c
 20e:	4c16      	ldr	r4, [pc, #88]	; (268 <_ZN5hwcpp12lpc1114_baseILi4096ELi32768ELi48000000EE4uartILj38400EE4initEv+0xa8>)
 210:	4310      	orrs	r0, r2
 212:	67d8      	str	r0, [r3, #124]	; 0x7c
 214:	2383      	movs	r3, #131	; 0x83
 216:	60e3      	str	r3, [r4, #12]
 218:	4b14      	ldr	r3, [pc, #80]	; (26c <_ZN5hwcpp12lpc1114_baseILi4096ELi32768ELi48000000EE4uartILj38400EE4initEv+0xac>)
 21a:	4815      	ldr	r0, [pc, #84]	; (270 <_ZN5hwcpp12lpc1114_baseILi4096ELi32768ELi48000000EE4uartILj38400EE4initEv+0xb0>)
 21c:	6019      	str	r1, [r3, #0]
 21e:	4b15      	ldr	r3, [pc, #84]	; (274 <_ZN5hwcpp12lpc1114_baseILi4096ELi32768ELi48000000EE4uartILj38400EE4initEv+0xb4>)
 220:	2196      	movs	r1, #150	; 0x96
 222:	6f9b      	ldr	r3, [r3, #120]	; 0x78
 224:	0309      	lsls	r1, r1, #12
 226:	4359      	muls	r1, r3
 228:	f000 f9cc 	bl	5c4 <__aeabi_uidiv>
 22c:	0a03      	lsrs	r3, r0, #8
 22e:	6063      	str	r3, [r4, #4]
 230:	b2c0      	uxtb	r0, r0
 232:	2303      	movs	r3, #3
 234:	6020      	str	r0, [r4, #0]
 236:	60e3      	str	r3, [r4, #12]
 238:	60a5      	str	r5, [r4, #8]
 23a:	6963      	ldr	r3, [r4, #20]
 23c:	6962      	ldr	r2, [r4, #20]
 23e:	2360      	movs	r3, #96	; 0x60
 240:	4013      	ands	r3, r2
 242:	2b60      	cmp	r3, #96	; 0x60
 244:	d1fa      	bne.n	23c <_ZN5hwcpp12lpc1114_baseILi4096ELi32768ELi48000000EE4uartILj38400EE4initEv+0x7c>
 246:	6963      	ldr	r3, [r4, #20]
 248:	07da      	lsls	r2, r3, #31
 24a:	d502      	bpl.n	252 <_ZN5hwcpp12lpc1114_baseILi4096ELi32768ELi48000000EE4uartILj38400EE4initEv+0x92>
 24c:	4b06      	ldr	r3, [pc, #24]	; (268 <_ZN5hwcpp12lpc1114_baseILi4096ELi32768ELi48000000EE4uartILj38400EE4initEv+0xa8>)
 24e:	681b      	ldr	r3, [r3, #0]
 250:	e7f9      	b.n	246 <_ZN5hwcpp12lpc1114_baseILi4096ELi32768ELi48000000EE4uartILj38400EE4initEv+0x86>
 252:	bd38      	pop	{r3, r4, r5, pc}
 254:	10000024 	.word	0x10000024
 258:	e000e104 	.word	0xe000e104
 25c:	40048004 	.word	0x40048004
 260:	400440a4 	.word	0x400440a4
 264:	400440a8 	.word	0x400440a8
 268:	40008000 	.word	0x40008000
 26c:	40048098 	.word	0x40048098
 270:	02dc6c00 	.word	0x02dc6c00
 274:	40048000 	.word	0x40048000

00000278 <_ZN5hwcpp13timing_waiterINS_12lpc1114_baseILi4096ELi32768ELi48000000EE8timer_64EE3nowEv>:
 278:	4b0f      	ldr	r3, [pc, #60]	; (2b8 <_ZN5hwcpp13timing_waiterINS_12lpc1114_baseILi4096ELi32768ELi48000000EE8timer_64EE3nowEv+0x40>)
 27a:	b5f0      	push	{r4, r5, r6, r7, lr}
 27c:	689c      	ldr	r4, [r3, #8]
 27e:	4b0f      	ldr	r3, [pc, #60]	; (2bc <_ZN5hwcpp13timing_waiterINS_12lpc1114_baseILi4096ELi32768ELi48000000EE8timer_64EE3nowEv+0x44>)
 280:	43e4      	mvns	r4, r4
 282:	681a      	ldr	r2, [r3, #0]
 284:	0224      	lsls	r4, r4, #8
 286:	0a24      	lsrs	r4, r4, #8
 288:	1c1d      	adds	r5, r3, #0
 28a:	490d      	ldr	r1, [pc, #52]	; (2c0 <_ZN5hwcpp13timing_waiterINS_12lpc1114_baseILi4096ELi32768ELi48000000EE8timer_64EE3nowEv+0x48>)
 28c:	4294      	cmp	r4, r2
 28e:	d207      	bcs.n	2a0 <_ZN5hwcpp13timing_waiterINS_12lpc1114_baseILi4096ELi32768ELi48000000EE8timer_64EE3nowEv+0x28>
 290:	680e      	ldr	r6, [r1, #0]
 292:	684f      	ldr	r7, [r1, #4]
 294:	4b07      	ldr	r3, [pc, #28]	; (2b4 <_ZN5hwcpp13timing_waiterINS_12lpc1114_baseILi4096ELi32768ELi48000000EE8timer_64EE3nowEv+0x3c>)
 296:	4a06      	ldr	r2, [pc, #24]	; (2b0 <_ZN5hwcpp13timing_waiterINS_12lpc1114_baseILi4096ELi32768ELi48000000EE8timer_64EE3nowEv+0x38>)
 298:	1992      	adds	r2, r2, r6
 29a:	417b      	adcs	r3, r7
 29c:	600a      	str	r2, [r1, #0]
 29e:	604b      	str	r3, [r1, #4]
 2a0:	680f      	ldr	r7, [r1, #0]
 2a2:	6849      	ldr	r1, [r1, #4]
 2a4:	602c      	str	r4, [r5, #0]
 2a6:	433c      	orrs	r4, r7
 2a8:	6004      	str	r4, [r0, #0]
 2aa:	6041      	str	r1, [r0, #4]
 2ac:	bdf0      	pop	{r4, r5, r6, r7, pc}
 2ae:	46c0      	nop			; (mov r8, r8)
 2b0:	01000000 	.word	0x01000000
 2b4:	00000000 	.word	0x00000000
 2b8:	e000e010 	.word	0xe000e010
 2bc:	10000020 	.word	0x10000020
 2c0:	10000018 	.word	0x10000018
 2c4:	46c0      	nop			; (mov r8, r8)
 2c6:	46c0      	nop			; (mov r8, r8)

000002c8 <_ZN5hwcpp20add_timing_templatesINS_13timing_waiterINS_12lpc1114_baseILi4096ELi32768ELi48000000EE8timer_64EEEE2nsILy1000ELy18446744073709550616EE4waitEv>:
 2c8:	b537      	push	{r0, r1, r2, r4, r5, lr}
 2ca:	2430      	movs	r4, #48	; 0x30
 2cc:	2500      	movs	r5, #0
 2ce:	4668      	mov	r0, sp
 2d0:	f7ff ffd2 	bl	278 <_ZN5hwcpp13timing_waiterINS_12lpc1114_baseILi4096ELi32768ELi48000000EE8timer_64EE3nowEv>
 2d4:	9a00      	ldr	r2, [sp, #0]
 2d6:	9b01      	ldr	r3, [sp, #4]
 2d8:	18a4      	adds	r4, r4, r2
 2da:	415d      	adcs	r5, r3
 2dc:	4668      	mov	r0, sp
 2de:	f7ff ffcb 	bl	278 <_ZN5hwcpp13timing_waiterINS_12lpc1114_baseILi4096ELi32768ELi48000000EE8timer_64EE3nowEv>
 2e2:	9b01      	ldr	r3, [sp, #4]
 2e4:	9a00      	ldr	r2, [sp, #0]
 2e6:	429d      	cmp	r5, r3
 2e8:	dcf8      	bgt.n	2dc <_ZN5hwcpp20add_timing_templatesINS_13timing_waiterINS_12lpc1114_baseILi4096ELi32768ELi48000000EE8timer_64EEEE2nsILy1000ELy18446744073709550616EE4waitEv+0x14>
 2ea:	d101      	bne.n	2f0 <_ZN5hwcpp20add_timing_templatesINS_13timing_waiterINS_12lpc1114_baseILi4096ELi32768ELi48000000EE8timer_64EEEE2nsILy1000ELy18446744073709550616EE4waitEv+0x28>
 2ec:	4294      	cmp	r4, r2
 2ee:	d8f5      	bhi.n	2dc <_ZN5hwcpp20add_timing_templatesINS_13timing_waiterINS_12lpc1114_baseILi4096ELi32768ELi48000000EE8timer_64EEEE2nsILy1000ELy18446744073709550616EE4waitEv+0x14>
 2f0:	bd37      	pop	{r0, r1, r2, r4, r5, pc}
	...

000002f4 <_ZN5hwcpp12lpc1114_baseILi4096ELi32768ELi48000000EE6pin_ocILi0ELi4EE3setEb>:
 2f4:	4b06      	ldr	r3, [pc, #24]	; (310 <_ZN5hwcpp12lpc1114_baseILi4096ELi32768ELi48000000EE6pin_ocILi0ELi4EE3setEb+0x1c>)
 2f6:	2210      	movs	r2, #16
 2f8:	6819      	ldr	r1, [r3, #0]
 2fa:	2800      	cmp	r0, #0
 2fc:	d002      	beq.n	304 <_ZN5hwcpp12lpc1114_baseILi4096ELi32768ELi48000000EE6pin_ocILi0ELi4EE3setEb+0x10>
 2fe:	4391      	bics	r1, r2
 300:	6019      	str	r1, [r3, #0]
 302:	e003      	b.n	30c <_ZN5hwcpp12lpc1114_baseILi4096ELi32768ELi48000000EE6pin_ocILi0ELi4EE3setEb+0x18>
 304:	430a      	orrs	r2, r1
 306:	601a      	str	r2, [r3, #0]
 308:	4b02      	ldr	r3, [pc, #8]	; (314 <_ZN5hwcpp12lpc1114_baseILi4096ELi32768ELi48000000EE6pin_ocILi0ELi4EE3setEb+0x20>)
 30a:	6018      	str	r0, [r3, #0]
 30c:	4770      	bx	lr
 30e:	46c0      	nop			; (mov r8, r8)
 310:	50008000 	.word	0x50008000
 314:	50000040 	.word	0x50000040

00000318 <_ZN5hwcpp12lpc1114_baseILi4096ELi32768ELi48000000EE6pin_ocILi0ELi5EE3setEb>:
 318:	4b06      	ldr	r3, [pc, #24]	; (334 <_ZN5hwcpp12lpc1114_baseILi4096ELi32768ELi48000000EE6pin_ocILi0ELi5EE3setEb+0x1c>)
 31a:	2220      	movs	r2, #32
 31c:	6819      	ldr	r1, [r3, #0]
 31e:	2800      	cmp	r0, #0
 320:	d002      	beq.n	328 <_ZN5hwcpp12lpc1114_baseILi4096ELi32768ELi48000000EE6pin_ocILi0ELi5EE3setEb+0x10>
 322:	4391      	bics	r1, r2
 324:	6019      	str	r1, [r3, #0]
 326:	e003      	b.n	330 <_ZN5hwcpp12lpc1114_baseILi4096ELi32768ELi48000000EE6pin_ocILi0ELi5EE3setEb+0x18>
 328:	430a      	orrs	r2, r1
 32a:	601a      	str	r2, [r3, #0]
 32c:	4b02      	ldr	r3, [pc, #8]	; (338 <_ZN5hwcpp12lpc1114_baseILi4096ELi32768ELi48000000EE6pin_ocILi0ELi5EE3setEb+0x20>)
 32e:	6018      	str	r0, [r3, #0]
 330:	4770      	bx	lr
 332:	46c0      	nop			; (mov r8, r8)
 334:	50008000 	.word	0x50008000
 338:	50000080 	.word	0x50000080

0000033c <_ZN5hwcpp25i2c_bus_master_bb_scl_sdaINS_12lpc1114_baseILi4096ELi32768ELi48000000EE6pin_ocILi0ELi4EEENS3_ILi0ELi5EEEXadL_ZNS_20add_timing_templatesINS_13timing_waiterINS2_8timer_64EEEE2nsILy1000ELy18446744073709550616EE4waitEvEEE11write_startEv>:
 33c:	b508      	push	{r3, lr}
 33e:	2000      	movs	r0, #0
 340:	f7ff ffea 	bl	318 <_ZN5hwcpp12lpc1114_baseILi4096ELi32768ELi48000000EE6pin_ocILi0ELi5EE3setEb>
 344:	f7ff ffc0 	bl	2c8 <_ZN5hwcpp20add_timing_templatesINS_13timing_waiterINS_12lpc1114_baseILi4096ELi32768ELi48000000EE8timer_64EEEE2nsILy1000ELy18446744073709550616EE4waitEv>
 348:	2000      	movs	r0, #0
 34a:	f7ff ffd3 	bl	2f4 <_ZN5hwcpp12lpc1114_baseILi4096ELi32768ELi48000000EE6pin_ocILi0ELi4EE3setEb>
 34e:	f7ff ffbb 	bl	2c8 <_ZN5hwcpp20add_timing_templatesINS_13timing_waiterINS_12lpc1114_baseILi4096ELi32768ELi48000000EE8timer_64EEEE2nsILy1000ELy18446744073709550616EE4waitEv>
 352:	bd08      	pop	{r3, pc}

00000354 <_ZN5hwcpp25i2c_bus_master_bb_scl_sdaINS_12lpc1114_baseILi4096ELi32768ELi48000000EE6pin_ocILi0ELi4EEENS3_ILi0ELi5EEEXadL_ZNS_20add_timing_templatesINS_13timing_waiterINS2_8timer_64EEEE2nsILy1000ELy18446744073709550616EE4waitEvEEE10write_stopEv>:
 354:	b508      	push	{r3, lr}
 356:	2000      	movs	r0, #0
 358:	f7ff ffcc 	bl	2f4 <_ZN5hwcpp12lpc1114_baseILi4096ELi32768ELi48000000EE6pin_ocILi0ELi4EE3setEb>
 35c:	f7ff ffb4 	bl	2c8 <_ZN5hwcpp20add_timing_templatesINS_13timing_waiterINS_12lpc1114_baseILi4096ELi32768ELi48000000EE8timer_64EEEE2nsILy1000ELy18446744073709550616EE4waitEv>
 360:	2000      	movs	r0, #0
 362:	f7ff ffd9 	bl	318 <_ZN5hwcpp12lpc1114_baseILi4096ELi32768ELi48000000EE6pin_ocILi0ELi5EE3setEb>
 366:	f7ff ffaf 	bl	2c8 <_ZN5hwcpp20add_timing_templatesINS_13timing_waiterINS_12lpc1114_baseILi4096ELi32768ELi48000000EE8timer_64EEEE2nsILy1000ELy18446744073709550616EE4waitEv>
 36a:	2001      	movs	r0, #1
 36c:	f7ff ffc2 	bl	2f4 <_ZN5hwcpp12lpc1114_baseILi4096ELi32768ELi48000000EE6pin_ocILi0ELi4EE3setEb>
 370:	f7ff ffaa 	bl	2c8 <_ZN5hwcpp20add_timing_templatesINS_13timing_waiterINS_12lpc1114_baseILi4096ELi32768ELi48000000EE8timer_64EEEE2nsILy1000ELy18446744073709550616EE4waitEv>
 374:	2001      	movs	r0, #1
 376:	f7ff ffcf 	bl	318 <_ZN5hwcpp12lpc1114_baseILi4096ELi32768ELi48000000EE6pin_ocILi0ELi5EE3setEb>
 37a:	f7ff ffa5 	bl	2c8 <_ZN5hwcpp20add_timing_templatesINS_13timing_waiterINS_12lpc1114_baseILi4096ELi32768ELi48000000EE8timer_64EEEE2nsILy1000ELy18446744073709550616EE4waitEv>
 37e:	bd08      	pop	{r3, pc}

00000380 <_ZN5hwcpp25i2c_bus_master_bb_scl_sdaINS_12lpc1114_baseILi4096ELi32768ELi48000000EE6pin_ocILi0ELi4EEENS3_ILi0ELi5EEEXadL_ZNS_20add_timing_templatesINS_13timing_waiterINS2_8timer_64EEEE2nsILy1000ELy18446744073709550616EE4waitEvEEE4initEv>:
 380:	b5f8      	push	{r3, r4, r5, r6, r7, lr}
 382:	4d11      	ldr	r5, [pc, #68]	; (3c8 <_ZN5hwcpp25i2c_bus_master_bb_scl_sdaINS_12lpc1114_baseILi4096ELi32768ELi48000000EE6pin_ocILi0ELi4EEENS3_ILi0ELi5EEEXadL_ZNS_20add_timing_templatesINS_13timing_waiterINS2_8timer_64EEEE2nsILy1000ELy18446744073709550616EE4waitEvEEE4initEv+0x48>)
 384:	2780      	movs	r7, #128	; 0x80
 386:	6feb      	ldr	r3, [r5, #124]	; 0x7c
 388:	027f      	lsls	r7, r7, #9
 38a:	433b      	orrs	r3, r7
 38c:	67eb      	str	r3, [r5, #124]	; 0x7c
 38e:	4b0f      	ldr	r3, [pc, #60]	; (3cc <_ZN5hwcpp25i2c_bus_master_bb_scl_sdaINS_12lpc1114_baseILi4096ELi32768ELi48000000EE6pin_ocILi0ELi4EEENS3_ILi0ELi5EEEXadL_ZNS_20add_timing_templatesINS_13timing_waiterINS2_8timer_64EEEE2nsILy1000ELy18446744073709550616EE4waitEvEEE4initEv+0x4c>)
 390:	2607      	movs	r6, #7
 392:	681a      	ldr	r2, [r3, #0]
 394:	4c0e      	ldr	r4, [pc, #56]	; (3d0 <_ZN5hwcpp25i2c_bus_master_bb_scl_sdaINS_12lpc1114_baseILi4096ELi32768ELi48000000EE6pin_ocILi0ELi4EEENS3_ILi0ELi5EEEXadL_ZNS_20add_timing_templatesINS_13timing_waiterINS2_8timer_64EEEE2nsILy1000ELy18446744073709550616EE4waitEvEEE4initEv+0x50>)
 396:	43b2      	bics	r2, r6
 398:	601a      	str	r2, [r3, #0]
 39a:	6823      	ldr	r3, [r4, #0]
 39c:	2210      	movs	r2, #16
 39e:	4313      	orrs	r3, r2
 3a0:	6023      	str	r3, [r4, #0]
 3a2:	2001      	movs	r0, #1
 3a4:	f7ff ffa6 	bl	2f4 <_ZN5hwcpp12lpc1114_baseILi4096ELi32768ELi48000000EE6pin_ocILi0ELi4EE3setEb>
 3a8:	6feb      	ldr	r3, [r5, #124]	; 0x7c
 3aa:	2001      	movs	r0, #1
 3ac:	431f      	orrs	r7, r3
 3ae:	4b09      	ldr	r3, [pc, #36]	; (3d4 <_ZN5hwcpp25i2c_bus_master_bb_scl_sdaINS_12lpc1114_baseILi4096ELi32768ELi48000000EE6pin_ocILi0ELi4EEENS3_ILi0ELi5EEEXadL_ZNS_20add_timing_templatesINS_13timing_waiterINS2_8timer_64EEEE2nsILy1000ELy18446744073709550616EE4waitEvEEE4initEv+0x54>)
 3b0:	67ef      	str	r7, [r5, #124]	; 0x7c
 3b2:	681a      	ldr	r2, [r3, #0]
 3b4:	43b2      	bics	r2, r6
 3b6:	601a      	str	r2, [r3, #0]
 3b8:	6823      	ldr	r3, [r4, #0]
 3ba:	2220      	movs	r2, #32
 3bc:	4313      	orrs	r3, r2
 3be:	6023      	str	r3, [r4, #0]
 3c0:	f7ff ffaa 	bl	318 <_ZN5hwcpp12lpc1114_baseILi4096ELi32768ELi48000000EE6pin_ocILi0ELi5EE3setEb>
 3c4:	bdf8      	pop	{r3, r4, r5, r6, r7, pc}
 3c6:	46c0      	nop			; (mov r8, r8)
 3c8:	40048004 	.word	0x40048004
 3cc:	40044030 	.word	0x40044030
 3d0:	50008000 	.word	0x50008000
 3d4:	40044034 	.word	0x40044034

000003d8 <_ZN5hwcpp25i2c_bus_master_bb_scl_sdaINS_12lpc1114_baseILi4096ELi32768ELi48000000EE6pin_ocILi0ELi4EEENS3_ILi0ELi5EEEXadL_ZNS_20add_timing_templatesINS_13timing_waiterINS2_8timer_64EEEE2nsILy1000ELy18446744073709550616EE4waitEvEEE9write_bitEb>:
 3d8:	b510      	push	{r4, lr}
 3da:	1c04      	adds	r4, r0, #0
 3dc:	2000      	movs	r0, #0
 3de:	f7ff ff89 	bl	2f4 <_ZN5hwcpp12lpc1114_baseILi4096ELi32768ELi48000000EE6pin_ocILi0ELi4EE3setEb>
 3e2:	f7ff ff71 	bl	2c8 <_ZN5hwcpp20add_timing_templatesINS_13timing_waiterINS_12lpc1114_baseILi4096ELi32768ELi48000000EE8timer_64EEEE2nsILy1000ELy18446744073709550616EE4waitEv>
 3e6:	1c20      	adds	r0, r4, #0
 3e8:	f7ff ff96 	bl	318 <_ZN5hwcpp12lpc1114_baseILi4096ELi32768ELi48000000EE6pin_ocILi0ELi5EE3setEb>
 3ec:	2001      	movs	r0, #1
 3ee:	f7ff ff81 	bl	2f4 <_ZN5hwcpp12lpc1114_baseILi4096ELi32768ELi48000000EE6pin_ocILi0ELi4EE3setEb>
 3f2:	f7ff ff69 	bl	2c8 <_ZN5hwcpp20add_timing_templatesINS_13timing_waiterINS_12lpc1114_baseILi4096ELi32768ELi48000000EE8timer_64EEEE2nsILy1000ELy18446744073709550616EE4waitEv>
 3f6:	bd10      	pop	{r4, pc}

000003f8 <_ZN5hwcpp25i2c_bus_master_bb_scl_sdaINS_12lpc1114_baseILi4096ELi32768ELi48000000EE6pin_ocILi0ELi4EEENS3_ILi0ELi5EEEXadL_ZNS_20add_timing_templatesINS_13timing_waiterINS2_8timer_64EEEE2nsILy1000ELy18446744073709550616EE4waitEvEEE10write_byteEh>:
 3f8:	b538      	push	{r3, r4, r5, lr}
 3fa:	1c05      	adds	r5, r0, #0
 3fc:	2408      	movs	r4, #8
 3fe:	09e8      	lsrs	r0, r5, #7
 400:	3c01      	subs	r4, #1
 402:	006d      	lsls	r5, r5, #1
 404:	f7ff ffe8 	bl	3d8 <_ZN5hwcpp25i2c_bus_master_bb_scl_sdaINS_12lpc1114_baseILi4096ELi32768ELi48000000EE6pin_ocILi0ELi4EEENS3_ILi0ELi5EEEXadL_ZNS_20add_timing_templatesINS_13timing_waiterINS2_8timer_64EEEE2nsILy1000ELy18446744073709550616EE4waitEvEEE9write_bitEb>
 408:	b2ed      	uxtb	r5, r5
 40a:	2c00      	cmp	r4, #0
 40c:	d1f7      	bne.n	3fe <_ZN5hwcpp25i2c_bus_master_bb_scl_sdaINS_12lpc1114_baseILi4096ELi32768ELi48000000EE6pin_ocILi0ELi4EEENS3_ILi0ELi5EEEXadL_ZNS_20add_timing_templatesINS_13timing_waiterINS2_8timer_64EEEE2nsILy1000ELy18446744073709550616EE4waitEvEEE10write_byteEh+0x6>
 40e:	bd38      	pop	{r3, r4, r5, pc}

00000410 <_ZN5hwcpp25i2c_bus_master_bb_scl_sdaINS_12lpc1114_baseILi4096ELi32768ELi48000000EE6pin_ocILi0ELi4EEENS3_ILi0ELi5EEEXadL_ZNS_20add_timing_templatesINS_13timing_waiterINS2_8timer_64EEEE2nsILy1000ELy18446744073709550616EE4waitEvEEE8read_bitEv>:
 410:	b510      	push	{r4, lr}
 412:	2000      	movs	r0, #0
 414:	f7ff ff6e 	bl	2f4 <_ZN5hwcpp12lpc1114_baseILi4096ELi32768ELi48000000EE6pin_ocILi0ELi4EE3setEb>
 418:	f7ff ff56 	bl	2c8 <_ZN5hwcpp20add_timing_templatesINS_13timing_waiterINS_12lpc1114_baseILi4096ELi32768ELi48000000EE8timer_64EEEE2nsILy1000ELy18446744073709550616EE4waitEv>
 41c:	2001      	movs	r0, #1
 41e:	f7ff ff7b 	bl	318 <_ZN5hwcpp12lpc1114_baseILi4096ELi32768ELi48000000EE6pin_ocILi0ELi5EE3setEb>
 422:	2001      	movs	r0, #1
 424:	f7ff ff66 	bl	2f4 <_ZN5hwcpp12lpc1114_baseILi4096ELi32768ELi48000000EE6pin_ocILi0ELi4EE3setEb>
 428:	f7ff ff4e 	bl	2c8 <_ZN5hwcpp20add_timing_templatesINS_13timing_waiterINS_12lpc1114_baseILi4096ELi32768ELi48000000EE8timer_64EEEE2nsILy1000ELy18446744073709550616EE4waitEv>
 42c:	4b03      	ldr	r3, [pc, #12]	; (43c <_ZN5hwcpp25i2c_bus_master_bb_scl_sdaINS_12lpc1114_baseILi4096ELi32768ELi48000000EE6pin_ocILi0ELi4EEENS3_ILi0ELi5EEEXadL_ZNS_20add_timing_templatesINS_13timing_waiterINS2_8timer_64EEEE2nsILy1000ELy18446744073709550616EE4waitEvEEE8read_bitEv+0x2c>)
 42e:	681c      	ldr	r4, [r3, #0]
 430:	f7ff ff4a 	bl	2c8 <_ZN5hwcpp20add_timing_templatesINS_13timing_waiterINS_12lpc1114_baseILi4096ELi32768ELi48000000EE8timer_64EEEE2nsILy1000ELy18446744073709550616EE4waitEv>
 434:	06a4      	lsls	r4, r4, #26
 436:	0fe0      	lsrs	r0, r4, #31
 438:	bd10      	pop	{r4, pc}
 43a:	46c0      	nop			; (mov r8, r8)
 43c:	50003ffc 	.word	0x50003ffc

00000440 <_ZN5hwcpp25i2c_bus_master_bb_scl_sdaINS_12lpc1114_baseILi4096ELi32768ELi48000000EE6pin_ocILi0ELi4EEENS3_ILi0ELi5EEEXadL_ZNS_20add_timing_templatesINS_13timing_waiterINS2_8timer_64EEEE2nsILy1000ELy18446744073709550616EE4waitEvEEE8read_ackEv>:
 440:	b508      	push	{r3, lr}
 442:	f7ff ffe5 	bl	410 <_ZN5hwcpp25i2c_bus_master_bb_scl_sdaINS_12lpc1114_baseILi4096ELi32768ELi48000000EE6pin_ocILi0ELi4EEENS3_ILi0ELi5EEEXadL_ZNS_20add_timing_templatesINS_13timing_waiterINS2_8timer_64EEEE2nsILy1000ELy18446744073709550616EE4waitEvEEE8read_bitEv>
 446:	2301      	movs	r3, #1
 448:	4058      	eors	r0, r3
 44a:	b2c0      	uxtb	r0, r0
 44c:	bd08      	pop	{r3, pc}

0000044e <_ZN5hwcpp25i2c_bus_master_bb_scl_sdaINS_12lpc1114_baseILi4096ELi32768ELi48000000EE6pin_ocILi0ELi4EEENS3_ILi0ELi5EEEXadL_ZNS_20add_timing_templatesINS_13timing_waiterINS2_8timer_64EEEE2nsILy1000ELy18446744073709550616EE4waitEvEEE5writeEhPKhi>:
 44e:	b570      	push	{r4, r5, r6, lr}
 450:	1c04      	adds	r4, r0, #0
 452:	0064      	lsls	r4, r4, #1
 454:	1c0d      	adds	r5, r1, #0
 456:	1c16      	adds	r6, r2, #0
 458:	f7ff ff70 	bl	33c <_ZN5hwcpp25i2c_bus_master_bb_scl_sdaINS_12lpc1114_baseILi4096ELi32768ELi48000000EE6pin_ocILi0ELi4EEENS3_ILi0ELi5EEEXadL_ZNS_20add_timing_templatesINS_13timing_waiterINS2_8timer_64EEEE2nsILy1000ELy18446744073709550616EE4waitEvEEE11write_startEv>
 45c:	b2e0      	uxtb	r0, r4
 45e:	f7ff ffcb 	bl	3f8 <_ZN5hwcpp25i2c_bus_master_bb_scl_sdaINS_12lpc1114_baseILi4096ELi32768ELi48000000EE6pin_ocILi0ELi4EEENS3_ILi0ELi5EEEXadL_ZNS_20add_timing_templatesINS_13timing_waiterINS2_8timer_64EEEE2nsILy1000ELy18446744073709550616EE4waitEvEEE10write_byteEh>
 462:	1c2c      	adds	r4, r5, #0
 464:	1b63      	subs	r3, r4, r5
 466:	42b3      	cmp	r3, r6
 468:	da06      	bge.n	478 <_ZN5hwcpp25i2c_bus_master_bb_scl_sdaINS_12lpc1114_baseILi4096ELi32768ELi48000000EE6pin_ocILi0ELi4EEENS3_ILi0ELi5EEEXadL_ZNS_20add_timing_templatesINS_13timing_waiterINS2_8timer_64EEEE2nsILy1000ELy18446744073709550616EE4waitEvEEE5writeEhPKhi+0x2a>
 46a:	f7ff ffe9 	bl	440 <_ZN5hwcpp25i2c_bus_master_bb_scl_sdaINS_12lpc1114_baseILi4096ELi32768ELi48000000EE6pin_ocILi0ELi4EEENS3_ILi0ELi5EEEXadL_ZNS_20add_timing_templatesINS_13timing_waiterINS2_8timer_64EEEE2nsILy1000ELy18446744073709550616EE4waitEvEEE8read_ackEv>
 46e:	7820      	ldrb	r0, [r4, #0]
 470:	f7ff ffc2 	bl	3f8 <_ZN5hwcpp25i2c_bus_master_bb_scl_sdaINS_12lpc1114_baseILi4096ELi32768ELi48000000EE6pin_ocILi0ELi4EEENS3_ILi0ELi5EEEXadL_ZNS_20add_timing_templatesINS_13timing_waiterINS2_8timer_64EEEE2nsILy1000ELy18446744073709550616EE4waitEvEEE10write_byteEh>
 474:	3401      	adds	r4, #1
 476:	e7f5      	b.n	464 <_ZN5hwcpp25i2c_bus_master_bb_scl_sdaINS_12lpc1114_baseILi4096ELi32768ELi48000000EE6pin_ocILi0ELi4EEENS3_ILi0ELi5EEEXadL_ZNS_20add_timing_templatesINS_13timing_waiterINS2_8timer_64EEEE2nsILy1000ELy18446744073709550616EE4waitEvEEE5writeEhPKhi+0x16>
 478:	f7ff ffe2 	bl	440 <_ZN5hwcpp25i2c_bus_master_bb_scl_sdaINS_12lpc1114_baseILi4096ELi32768ELi48000000EE6pin_ocILi0ELi4EEENS3_ILi0ELi5EEEXadL_ZNS_20add_timing_templatesINS_13timing_waiterINS2_8timer_64EEEE2nsILy1000ELy18446744073709550616EE4waitEvEEE8read_ackEv>
 47c:	f7ff ff6a 	bl	354 <_ZN5hwcpp25i2c_bus_master_bb_scl_sdaINS_12lpc1114_baseILi4096ELi32768ELi48000000EE6pin_ocILi0ELi4EEENS3_ILi0ELi5EEEXadL_ZNS_20add_timing_templatesINS_13timing_waiterINS2_8timer_64EEEE2nsILy1000ELy18446744073709550616EE4waitEvEEE10write_stopEv>
 480:	bd70      	pop	{r4, r5, r6, pc}
	...

00000484 <main>:
 484:	b5f0      	push	{r4, r5, r6, r7, lr}
 486:	b085      	sub	sp, #20
 488:	f7ff fe9a 	bl	1c0 <_ZN5hwcpp12lpc1114_baseILi4096ELi32768ELi48000000EE4uartILj38400EE4initEv>
 48c:	4d2f      	ldr	r5, [pc, #188]	; (54c <main+0xc8>)
 48e:	4b30      	ldr	r3, [pc, #192]	; (550 <main+0xcc>)
 490:	1c28      	adds	r0, r5, #0
 492:	612b      	str	r3, [r5, #16]
 494:	492f      	ldr	r1, [pc, #188]	; (554 <main+0xd0>)
 496:	f7ff fdfa 	bl	8e <_ZStlsRSt7ostreamPKc>
 49a:	4b2f      	ldr	r3, [pc, #188]	; (558 <main+0xd4>)
 49c:	781b      	ldrb	r3, [r3, #0]
 49e:	2b00      	cmp	r3, #0
 4a0:	d101      	bne.n	4a6 <main+0x22>
 4a2:	f7ff fdc5 	bl	30 <_ZN5hwcpp12lpc1114_baseILi4096ELi32768ELi48000000EE16initialize_clockEv.part.8>
 4a6:	4b2d      	ldr	r3, [pc, #180]	; (55c <main+0xd8>)
 4a8:	4a2d      	ldr	r2, [pc, #180]	; (560 <main+0xdc>)
 4aa:	2700      	movs	r7, #0
 4ac:	601f      	str	r7, [r3, #0]
 4ae:	605a      	str	r2, [r3, #4]
 4b0:	2201      	movs	r2, #1
 4b2:	609f      	str	r7, [r3, #8]
 4b4:	601a      	str	r2, [r3, #0]
 4b6:	f7ff ff63 	bl	380 <_ZN5hwcpp25i2c_bus_master_bb_scl_sdaINS_12lpc1114_baseILi4096ELi32768ELi48000000EE6pin_ocILi0ELi4EEENS3_ILi0ELi5EEEXadL_ZNS_20add_timing_templatesINS_13timing_waiterINS2_8timer_64EEEE2nsILy1000ELy18446744073709550616EE4waitEvEEE4initEv>
 4ba:	ac03      	add	r4, sp, #12
 4bc:	4b29      	ldr	r3, [pc, #164]	; (564 <main+0xe0>)
 4be:	26ff      	movs	r6, #255	; 0xff
 4c0:	2027      	movs	r0, #39	; 0x27
 4c2:	1c21      	adds	r1, r4, #0
 4c4:	2202      	movs	r2, #2
 4c6:	701e      	strb	r6, [r3, #0]
 4c8:	7027      	strb	r7, [r4, #0]
 4ca:	7066      	strb	r6, [r4, #1]
 4cc:	f7ff ffbf 	bl	44e <_ZN5hwcpp25i2c_bus_master_bb_scl_sdaINS_12lpc1114_baseILi4096ELi32768ELi48000000EE6pin_ocILi0ELi4EEENS3_ILi0ELi5EEEXadL_ZNS_20add_timing_templatesINS_13timing_waiterINS2_8timer_64EEEE2nsILy1000ELy18446744073709550616EE4waitEvEEE5writeEhPKhi>
 4d0:	4b25      	ldr	r3, [pc, #148]	; (568 <main+0xe4>)
 4d2:	2027      	movs	r0, #39	; 0x27
 4d4:	701e      	strb	r6, [r3, #0]
 4d6:	1c21      	adds	r1, r4, #0
 4d8:	2306      	movs	r3, #6
 4da:	2202      	movs	r2, #2
 4dc:	7023      	strb	r3, [r4, #0]
 4de:	7066      	strb	r6, [r4, #1]
 4e0:	f7ff ffb5 	bl	44e <_ZN5hwcpp25i2c_bus_master_bb_scl_sdaINS_12lpc1114_baseILi4096ELi32768ELi48000000EE6pin_ocILi0ELi4EEENS3_ILi0ELi5EEEXadL_ZNS_20add_timing_templatesINS_13timing_waiterINS2_8timer_64EEEE2nsILy1000ELy18446744073709550616EE4waitEvEEE5writeEhPKhi>
 4e4:	2301      	movs	r3, #1
 4e6:	9301      	str	r3, [sp, #4]
 4e8:	2309      	movs	r3, #9
 4ea:	1c21      	adds	r1, r4, #0
 4ec:	2201      	movs	r2, #1
 4ee:	2027      	movs	r0, #39	; 0x27
 4f0:	7023      	strb	r3, [r4, #0]
 4f2:	f7ff ffac 	bl	44e <_ZN5hwcpp25i2c_bus_master_bb_scl_sdaINS_12lpc1114_baseILi4096ELi32768ELi48000000EE6pin_ocILi0ELi4EEENS3_ILi0ELi5EEEXadL_ZNS_20add_timing_templatesINS_13timing_waiterINS2_8timer_64EEEE2nsILy1000ELy18446744073709550616EE4waitEvEEE5writeEhPKhi>
 4f6:	f7ff ff21 	bl	33c <_ZN5hwcpp25i2c_bus_master_bb_scl_sdaINS_12lpc1114_baseILi4096ELi32768ELi48000000EE6pin_ocILi0ELi4EEENS3_ILi0ELi5EEEXadL_ZNS_20add_timing_templatesINS_13timing_waiterINS2_8timer_64EEEE2nsILy1000ELy18446744073709550616EE4waitEvEEE11write_startEv>
 4fa:	204f      	movs	r0, #79	; 0x4f
 4fc:	f7ff ff7c 	bl	3f8 <_ZN5hwcpp25i2c_bus_master_bb_scl_sdaINS_12lpc1114_baseILi4096ELi32768ELi48000000EE6pin_ocILi0ELi4EEENS3_ILi0ELi5EEEXadL_ZNS_20add_timing_templatesINS_13timing_waiterINS2_8timer_64EEEE2nsILy1000ELy18446744073709550616EE4waitEvEEE10write_byteEh>
 500:	f7ff ff9e 	bl	440 <_ZN5hwcpp25i2c_bus_master_bb_scl_sdaINS_12lpc1114_baseILi4096ELi32768ELi48000000EE6pin_ocILi0ELi4EEENS3_ILi0ELi5EEEXadL_ZNS_20add_timing_templatesINS_13timing_waiterINS2_8timer_64EEEE2nsILy1000ELy18446744073709550616EE4waitEvEEE8read_ackEv>
 504:	2708      	movs	r7, #8
 506:	2600      	movs	r6, #0
 508:	0076      	lsls	r6, r6, #1
 50a:	b2f6      	uxtb	r6, r6
 50c:	f7ff ff80 	bl	410 <_ZN5hwcpp25i2c_bus_master_bb_scl_sdaINS_12lpc1114_baseILi4096ELi32768ELi48000000EE6pin_ocILi0ELi4EEENS3_ILi0ELi5EEEXadL_ZNS_20add_timing_templatesINS_13timing_waiterINS2_8timer_64EEEE2nsILy1000ELy18446744073709550616EE4waitEvEEE8read_bitEv>
 510:	2800      	cmp	r0, #0
 512:	d103      	bne.n	51c <main+0x98>
 514:	3f01      	subs	r7, #1
 516:	2f00      	cmp	r7, #0
 518:	d1f6      	bne.n	508 <main+0x84>
 51a:	e002      	b.n	522 <main+0x9e>
 51c:	2301      	movs	r3, #1
 51e:	431e      	orrs	r6, r3
 520:	e7f8      	b.n	514 <main+0x90>
 522:	f7ff ff17 	bl	354 <_ZN5hwcpp25i2c_bus_master_bb_scl_sdaINS_12lpc1114_baseILi4096ELi32768ELi48000000EE6pin_ocILi0ELi4EEENS3_ILi0ELi5EEEXadL_ZNS_20add_timing_templatesINS_13timing_waiterINS2_8timer_64EEEE2nsILy1000ELy18446744073709550616EE4waitEvEEE10write_stopEv>
 526:	9a01      	ldr	r2, [sp, #4]
 528:	4296      	cmp	r6, r2
 52a:	d0dd      	beq.n	4e8 <main+0x64>
 52c:	2330      	movs	r3, #48	; 0x30
 52e:	722b      	strb	r3, [r5, #8]
 530:	2308      	movs	r3, #8
 532:	602b      	str	r3, [r5, #0]
 534:	1c31      	adds	r1, r6, #0
 536:	2302      	movs	r3, #2
 538:	1c28      	adds	r0, r5, #0
 53a:	606b      	str	r3, [r5, #4]
 53c:	f7ff fdd6 	bl	ec <_ZStlsRSt7ostreami>
 540:	490a      	ldr	r1, [pc, #40]	; (56c <main+0xe8>)
 542:	f7ff fda4 	bl	8e <_ZStlsRSt7ostreamPKc>
 546:	9601      	str	r6, [sp, #4]
 548:	e7ce      	b.n	4e8 <main+0x64>
 54a:	46c0      	nop			; (mov r8, r8)
 54c:	10000000 	.word	0x10000000
 550:	00000021 	.word	0x00000021
 554:	00000724 	.word	0x00000724
 558:	10000024 	.word	0x10000024
 55c:	e000e010 	.word	0xe000e010
 560:	00ffffff 	.word	0x00ffffff
 564:	10000026 	.word	0x10000026
 568:	10000025 	.word	0x10000025
 56c:	00000740 	.word	0x00000740

00000570 <__startup>:
 570:	b510      	push	{r4, lr}
 572:	4b0f      	ldr	r3, [pc, #60]	; (5b0 <__startup+0x40>)
 574:	4a0f      	ldr	r2, [pc, #60]	; (5b4 <__startup+0x44>)
 576:	1d19      	adds	r1, r3, #4
 578:	3b04      	subs	r3, #4
 57a:	4293      	cmp	r3, r2
 57c:	d003      	beq.n	586 <__startup+0x16>
 57e:	2200      	movs	r2, #0
 580:	601a      	str	r2, [r3, #0]
 582:	1c0b      	adds	r3, r1, #0
 584:	e7f6      	b.n	574 <__startup+0x4>
 586:	4a0c      	ldr	r2, [pc, #48]	; (5b8 <__startup+0x48>)
 588:	490c      	ldr	r1, [pc, #48]	; (5bc <__startup+0x4c>)
 58a:	2300      	movs	r3, #0
 58c:	1a89      	subs	r1, r1, r2
 58e:	0889      	lsrs	r1, r1, #2
 590:	3101      	adds	r1, #1
 592:	0089      	lsls	r1, r1, #2
 594:	3304      	adds	r3, #4
 596:	428b      	cmp	r3, r1
 598:	d007      	beq.n	5aa <__startup+0x3a>
 59a:	4c09      	ldr	r4, [pc, #36]	; (5c0 <__startup+0x50>)
 59c:	18d0      	adds	r0, r2, r3
 59e:	191c      	adds	r4, r3, r4
 5a0:	3c04      	subs	r4, #4
 5a2:	6824      	ldr	r4, [r4, #0]
 5a4:	3804      	subs	r0, #4
 5a6:	6004      	str	r4, [r0, #0]
 5a8:	e7f4      	b.n	594 <__startup+0x24>
 5aa:	f7ff ff6b 	bl	484 <main>
 5ae:	e7fe      	b.n	5ae <__startup+0x3e>
 5b0:	1000001c 	.word	0x1000001c
 5b4:	10000028 	.word	0x10000028
 5b8:	10000000 	.word	0x10000000
 5bc:	10000014 	.word	0x10000014
 5c0:	00000744 	.word	0x00000744

000005c4 <__aeabi_uidiv>:
 5c4:	2900      	cmp	r1, #0
 5c6:	d034      	beq.n	632 <.udivsi3_skip_div0_test+0x6a>

000005c8 <.udivsi3_skip_div0_test>:
 5c8:	2301      	movs	r3, #1
 5ca:	2200      	movs	r2, #0
 5cc:	b410      	push	{r4}
 5ce:	4288      	cmp	r0, r1
 5d0:	d32c      	bcc.n	62c <.udivsi3_skip_div0_test+0x64>
 5d2:	2401      	movs	r4, #1
 5d4:	0724      	lsls	r4, r4, #28
 5d6:	42a1      	cmp	r1, r4
 5d8:	d204      	bcs.n	5e4 <.udivsi3_skip_div0_test+0x1c>
 5da:	4281      	cmp	r1, r0
 5dc:	d202      	bcs.n	5e4 <.udivsi3_skip_div0_test+0x1c>
 5de:	0109      	lsls	r1, r1, #4
 5e0:	011b      	lsls	r3, r3, #4
 5e2:	e7f8      	b.n	5d6 <.udivsi3_skip_div0_test+0xe>
 5e4:	00e4      	lsls	r4, r4, #3
 5e6:	42a1      	cmp	r1, r4
 5e8:	d204      	bcs.n	5f4 <.udivsi3_skip_div0_test+0x2c>
 5ea:	4281      	cmp	r1, r0
 5ec:	d202      	bcs.n	5f4 <.udivsi3_skip_div0_test+0x2c>
 5ee:	0049      	lsls	r1, r1, #1
 5f0:	005b      	lsls	r3, r3, #1
 5f2:	e7f8      	b.n	5e6 <.udivsi3_skip_div0_test+0x1e>
 5f4:	4288      	cmp	r0, r1
 5f6:	d301      	bcc.n	5fc <.udivsi3_skip_div0_test+0x34>
 5f8:	1a40      	subs	r0, r0, r1
 5fa:	431a      	orrs	r2, r3
 5fc:	084c      	lsrs	r4, r1, #1
 5fe:	42a0      	cmp	r0, r4
 600:	d302      	bcc.n	608 <.udivsi3_skip_div0_test+0x40>
 602:	1b00      	subs	r0, r0, r4
 604:	085c      	lsrs	r4, r3, #1
 606:	4322      	orrs	r2, r4
 608:	088c      	lsrs	r4, r1, #2
 60a:	42a0      	cmp	r0, r4
 60c:	d302      	bcc.n	614 <.udivsi3_skip_div0_test+0x4c>
 60e:	1b00      	subs	r0, r0, r4
 610:	089c      	lsrs	r4, r3, #2
 612:	4322      	orrs	r2, r4
 614:	08cc      	lsrs	r4, r1, #3
 616:	42a0      	cmp	r0, r4
 618:	d302      	bcc.n	620 <.udivsi3_skip_div0_test+0x58>
 61a:	1b00      	subs	r0, r0, r4
 61c:	08dc      	lsrs	r4, r3, #3
 61e:	4322      	orrs	r2, r4
 620:	2800      	cmp	r0, #0
 622:	d003      	beq.n	62c <.udivsi3_skip_div0_test+0x64>
 624:	091b      	lsrs	r3, r3, #4
 626:	d001      	beq.n	62c <.udivsi3_skip_div0_test+0x64>
 628:	0909      	lsrs	r1, r1, #4
 62a:	e7e3      	b.n	5f4 <.udivsi3_skip_div0_test+0x2c>
 62c:	1c10      	adds	r0, r2, #0
 62e:	bc10      	pop	{r4}
 630:	4770      	bx	lr
 632:	2800      	cmp	r0, #0
 634:	d001      	beq.n	63a <.udivsi3_skip_div0_test+0x72>
 636:	2000      	movs	r0, #0
 638:	43c0      	mvns	r0, r0
 63a:	b407      	push	{r0, r1, r2}
 63c:	4802      	ldr	r0, [pc, #8]	; (648 <.udivsi3_skip_div0_test+0x80>)
 63e:	a102      	add	r1, pc, #8	; (adr r1, 648 <.udivsi3_skip_div0_test+0x80>)
 640:	1840      	adds	r0, r0, r1
 642:	9002      	str	r0, [sp, #8]
 644:	bd03      	pop	{r0, r1, pc}
 646:	46c0      	nop			; (mov r8, r8)
 648:	000000d9 	.word	0x000000d9

0000064c <__aeabi_uidivmod>:
 64c:	2900      	cmp	r1, #0
 64e:	d0f0      	beq.n	632 <.udivsi3_skip_div0_test+0x6a>
 650:	b503      	push	{r0, r1, lr}
 652:	f7ff ffb9 	bl	5c8 <.udivsi3_skip_div0_test>
 656:	bc0e      	pop	{r1, r2, r3}
 658:	4342      	muls	r2, r0
 65a:	1a89      	subs	r1, r1, r2
 65c:	4718      	bx	r3
 65e:	46c0      	nop			; (mov r8, r8)

00000660 <__aeabi_idiv>:
 660:	2900      	cmp	r1, #0
 662:	d041      	beq.n	6e8 <.divsi3_skip_div0_test+0x84>

00000664 <.divsi3_skip_div0_test>:
 664:	b410      	push	{r4}
 666:	1c04      	adds	r4, r0, #0
 668:	404c      	eors	r4, r1
 66a:	46a4      	mov	ip, r4
 66c:	2301      	movs	r3, #1
 66e:	2200      	movs	r2, #0
 670:	2900      	cmp	r1, #0
 672:	d500      	bpl.n	676 <.divsi3_skip_div0_test+0x12>
 674:	4249      	negs	r1, r1
 676:	2800      	cmp	r0, #0
 678:	d500      	bpl.n	67c <.divsi3_skip_div0_test+0x18>
 67a:	4240      	negs	r0, r0
 67c:	4288      	cmp	r0, r1
 67e:	d32c      	bcc.n	6da <.divsi3_skip_div0_test+0x76>
 680:	2401      	movs	r4, #1
 682:	0724      	lsls	r4, r4, #28
 684:	42a1      	cmp	r1, r4
 686:	d204      	bcs.n	692 <.divsi3_skip_div0_test+0x2e>
 688:	4281      	cmp	r1, r0
 68a:	d202      	bcs.n	692 <.divsi3_skip_div0_test+0x2e>
 68c:	0109      	lsls	r1, r1, #4
 68e:	011b      	lsls	r3, r3, #4
 690:	e7f8      	b.n	684 <.divsi3_skip_div0_test+0x20>
 692:	00e4      	lsls	r4, r4, #3
 694:	42a1      	cmp	r1, r4
 696:	d204      	bcs.n	6a2 <.divsi3_skip_div0_test+0x3e>
 698:	4281      	cmp	r1, r0
 69a:	d202      	bcs.n	6a2 <.divsi3_skip_div0_test+0x3e>
 69c:	0049      	lsls	r1, r1, #1
 69e:	005b      	lsls	r3, r3, #1
 6a0:	e7f8      	b.n	694 <.divsi3_skip_div0_test+0x30>
 6a2:	4288      	cmp	r0, r1
 6a4:	d301      	bcc.n	6aa <.divsi3_skip_div0_test+0x46>
 6a6:	1a40      	subs	r0, r0, r1
 6a8:	431a      	orrs	r2, r3
 6aa:	084c      	lsrs	r4, r1, #1
 6ac:	42a0      	cmp	r0, r4
 6ae:	d302      	bcc.n	6b6 <.divsi3_skip_div0_test+0x52>
 6b0:	1b00      	subs	r0, r0, r4
 6b2:	085c      	lsrs	r4, r3, #1
 6b4:	4322      	orrs	r2, r4
 6b6:	088c      	lsrs	r4, r1, #2
 6b8:	42a0      	cmp	r0, r4
 6ba:	d302      	bcc.n	6c2 <.divsi3_skip_div0_test+0x5e>
 6bc:	1b00      	subs	r0, r0, r4
 6be:	089c      	lsrs	r4, r3, #2
 6c0:	4322      	orrs	r2, r4
 6c2:	08cc      	lsrs	r4, r1, #3
 6c4:	42a0      	cmp	r0, r4
 6c6:	d302      	bcc.n	6ce <.divsi3_skip_div0_test+0x6a>
 6c8:	1b00      	subs	r0, r0, r4
 6ca:	08dc      	lsrs	r4, r3, #3
 6cc:	4322      	orrs	r2, r4
 6ce:	2800      	cmp	r0, #0
 6d0:	d003      	beq.n	6da <.divsi3_skip_div0_test+0x76>
 6d2:	091b      	lsrs	r3, r3, #4
 6d4:	d001      	beq.n	6da <.divsi3_skip_div0_test+0x76>
 6d6:	0909      	lsrs	r1, r1, #4
 6d8:	e7e3      	b.n	6a2 <.divsi3_skip_div0_test+0x3e>
 6da:	1c10      	adds	r0, r2, #0
 6dc:	4664      	mov	r4, ip
 6de:	2c00      	cmp	r4, #0
 6e0:	d500      	bpl.n	6e4 <.divsi3_skip_div0_test+0x80>
 6e2:	4240      	negs	r0, r0
 6e4:	bc10      	pop	{r4}
 6e6:	4770      	bx	lr
 6e8:	2800      	cmp	r0, #0
 6ea:	d006      	beq.n	6fa <.divsi3_skip_div0_test+0x96>
 6ec:	db03      	blt.n	6f6 <.divsi3_skip_div0_test+0x92>
 6ee:	2000      	movs	r0, #0
 6f0:	43c0      	mvns	r0, r0
 6f2:	0840      	lsrs	r0, r0, #1
 6f4:	e001      	b.n	6fa <.divsi3_skip_div0_test+0x96>
 6f6:	2080      	movs	r0, #128	; 0x80
 6f8:	0600      	lsls	r0, r0, #24
 6fa:	b407      	push	{r0, r1, r2}
 6fc:	4802      	ldr	r0, [pc, #8]	; (708 <.divsi3_skip_div0_test+0xa4>)
 6fe:	a102      	add	r1, pc, #8	; (adr r1, 708 <.divsi3_skip_div0_test+0xa4>)
 700:	1840      	adds	r0, r0, r1
 702:	9002      	str	r0, [sp, #8]
 704:	bd03      	pop	{r0, r1, pc}
 706:	46c0      	nop			; (mov r8, r8)
 708:	00000019 	.word	0x00000019

0000070c <__aeabi_idivmod>:
 70c:	2900      	cmp	r1, #0
 70e:	d0eb      	beq.n	6e8 <.divsi3_skip_div0_test+0x84>
 710:	b503      	push	{r0, r1, lr}
 712:	f7ff ffa7 	bl	664 <.divsi3_skip_div0_test>
 716:	bc0e      	pop	{r1, r2, r3}
 718:	4342      	muls	r2, r0
 71a:	1a89      	subs	r1, r1, r2
 71c:	4718      	bx	r3
 71e:	46c0      	nop			; (mov r8, r8)

00000720 <__aeabi_idiv0>:
 720:	4770      	bx	lr
 722:	46c0      	nop			; (mov r8, r8)
 724:	3270636d 	.word	0x3270636d
 728:	37313033 	.word	0x37313033
 72c:	676f6c20 	.word	0x676f6c20
 730:	76656c20 	.word	0x76656c20
 734:	6f206c65 	.word	0x6f206c65
 738:	6f70206e 	.word	0x6f70206e
 73c:	41207472 	.word	0x41207472
 740:	0000000a 	.word	0x0000000a
