
main.elf:     file format elf32-littlearm


Disassembly of section .text:

00000000 <__text_start>:
   0:	10000448 	.word	0x10000448
   4:	000003c1 	.word	0x000003c1
	...

00000020 <_ZN5hwcpp37callback_administration_double_linkedINS_21timing_implementationINS_12lpc1114_baseILi4096ELi32768ELi48000000EE8timer_64EEEE5_node5visitENS_15moment_durationIxLx24EE6momentE>:
  20:	4770      	bx	lr
  22:	0000      	movs	r0, r0
  24:	0000      	movs	r0, r0
	...

00000028 <_ZN5hwcpp13timing_waiterINS_12lpc1114_baseILi4096ELi32768ELi48000000EE8timer_64EE3nowEv>:
  28:	4b0f      	ldr	r3, [pc, #60]	; (68 <_ZN5hwcpp13timing_waiterINS_12lpc1114_baseILi4096ELi32768ELi48000000EE8timer_64EE3nowEv+0x40>)
  2a:	b5f0      	push	{r4, r5, r6, r7, lr}
  2c:	689c      	ldr	r4, [r3, #8]
  2e:	4b0f      	ldr	r3, [pc, #60]	; (6c <_ZN5hwcpp13timing_waiterINS_12lpc1114_baseILi4096ELi32768ELi48000000EE8timer_64EE3nowEv+0x44>)
  30:	43e4      	mvns	r4, r4
  32:	681a      	ldr	r2, [r3, #0]
  34:	0224      	lsls	r4, r4, #8
  36:	0a24      	lsrs	r4, r4, #8
  38:	1c1d      	adds	r5, r3, #0
  3a:	490d      	ldr	r1, [pc, #52]	; (70 <_ZN5hwcpp13timing_waiterINS_12lpc1114_baseILi4096ELi32768ELi48000000EE8timer_64EE3nowEv+0x48>)
  3c:	4294      	cmp	r4, r2
  3e:	d207      	bcs.n	50 <_ZN5hwcpp13timing_waiterINS_12lpc1114_baseILi4096ELi32768ELi48000000EE8timer_64EE3nowEv+0x28>
  40:	680e      	ldr	r6, [r1, #0]
  42:	684f      	ldr	r7, [r1, #4]
  44:	4b07      	ldr	r3, [pc, #28]	; (64 <_ZN5hwcpp13timing_waiterINS_12lpc1114_baseILi4096ELi32768ELi48000000EE8timer_64EE3nowEv+0x3c>)
  46:	4a06      	ldr	r2, [pc, #24]	; (60 <_ZN5hwcpp13timing_waiterINS_12lpc1114_baseILi4096ELi32768ELi48000000EE8timer_64EE3nowEv+0x38>)
  48:	1992      	adds	r2, r2, r6
  4a:	417b      	adcs	r3, r7
  4c:	600a      	str	r2, [r1, #0]
  4e:	604b      	str	r3, [r1, #4]
  50:	680f      	ldr	r7, [r1, #0]
  52:	6849      	ldr	r1, [r1, #4]
  54:	602c      	str	r4, [r5, #0]
  56:	433c      	orrs	r4, r7
  58:	6004      	str	r4, [r0, #0]
  5a:	6041      	str	r1, [r0, #4]
  5c:	bdf0      	pop	{r4, r5, r6, r7, pc}
  5e:	46c0      	nop			; (mov r8, r8)
  60:	01000000 	.word	0x01000000
  64:	00000000 	.word	0x00000000
  68:	e000e010 	.word	0xe000e010
  6c:	10000038 	.word	0x10000038
  70:	10000030 	.word	0x10000030
  74:	46c0      	nop			; (mov r8, r8)
  76:	46c0      	nop			; (mov r8, r8)

00000078 <_ZN5hwcpp23callback_implementationINS_12lpc1114_baseILi4096ELi32768ELi48000000EE8timer_64ENS_37callback_administration_double_linkedEE4waitENS_15moment_durationIxLx24EE6momentE>:
  78:	b5f0      	push	{r4, r5, r6, r7, lr}
  7a:	b087      	sub	sp, #28
  7c:	9003      	str	r0, [sp, #12]
  7e:	9102      	str	r1, [sp, #8]
  80:	a804      	add	r0, sp, #16
  82:	f7ff ffd1 	bl	28 <_ZN5hwcpp13timing_waiterINS_12lpc1114_baseILi4096ELi32768ELi48000000EE8timer_64EE3nowEv>
  86:	9a04      	ldr	r2, [sp, #16]
  88:	9b05      	ldr	r3, [sp, #20]
  8a:	9e02      	ldr	r6, [sp, #8]
  8c:	9201      	str	r2, [sp, #4]
  8e:	1c1d      	adds	r5, r3, #0
  90:	429e      	cmp	r6, r3
  92:	dc03      	bgt.n	9c <_ZN5hwcpp23callback_implementationINS_12lpc1114_baseILi4096ELi32768ELi48000000EE8timer_64ENS_37callback_administration_double_linkedEE4waitENS_15moment_durationIxLx24EE6momentE+0x24>
  94:	d127      	bne.n	e6 <_ZN5hwcpp23callback_implementationINS_12lpc1114_baseILi4096ELi32768ELi48000000EE8timer_64ENS_37callback_administration_double_linkedEE4waitENS_15moment_durationIxLx24EE6momentE+0x6e>
  96:	9f03      	ldr	r7, [sp, #12]
  98:	4297      	cmp	r7, r2
  9a:	d924      	bls.n	e6 <_ZN5hwcpp23callback_implementationINS_12lpc1114_baseILi4096ELi32768ELi48000000EE8timer_64ENS_37callback_administration_double_linkedEE4waitENS_15moment_durationIxLx24EE6momentE+0x6e>
  9c:	4c13      	ldr	r4, [pc, #76]	; (ec <_ZN5hwcpp23callback_implementationINS_12lpc1114_baseILi4096ELi32768ELi48000000EE8timer_64ENS_37callback_administration_double_linkedEE4waitENS_15moment_durationIxLx24EE6momentE+0x74>)
  9e:	6820      	ldr	r0, [r4, #0]
  a0:	2800      	cmp	r0, #0
  a2:	d1ed      	bne.n	80 <_ZN5hwcpp23callback_implementationINS_12lpc1114_baseILi4096ELi32768ELi48000000EE8timer_64ENS_37callback_administration_double_linkedEE4waitENS_15moment_durationIxLx24EE6momentE+0x8>
  a4:	4f12      	ldr	r7, [pc, #72]	; (f0 <_ZN5hwcpp23callback_implementationINS_12lpc1114_baseILi4096ELi32768ELi48000000EE8timer_64ENS_37callback_administration_double_linkedEE4waitENS_15moment_durationIxLx24EE6momentE+0x78>)
  a6:	2001      	movs	r0, #1
  a8:	683e      	ldr	r6, [r7, #0]
  aa:	6020      	str	r0, [r4, #0]
  ac:	4911      	ldr	r1, [pc, #68]	; (f4 <_ZN5hwcpp23callback_implementationINS_12lpc1114_baseILi4096ELi32768ELi48000000EE8timer_64ENS_37callback_administration_double_linkedEE4waitENS_15moment_durationIxLx24EE6momentE+0x7c>)
  ae:	4206      	tst	r6, r0
  b0:	d104      	bne.n	bc <_ZN5hwcpp23callback_implementationINS_12lpc1114_baseILi4096ELi32768ELi48000000EE8timer_64ENS_37callback_administration_double_linkedEE4waitENS_15moment_durationIxLx24EE6momentE+0x44>
  b2:	4e11      	ldr	r6, [pc, #68]	; (f8 <_ZN5hwcpp23callback_implementationINS_12lpc1114_baseILi4096ELi32768ELi48000000EE8timer_64ENS_37callback_administration_double_linkedEE4waitENS_15moment_durationIxLx24EE6momentE+0x80>)
  b4:	6049      	str	r1, [r1, #4]
  b6:	600e      	str	r6, [r1, #0]
  b8:	6089      	str	r1, [r1, #8]
  ba:	6038      	str	r0, [r7, #0]
  bc:	6848      	ldr	r0, [r1, #4]
  be:	4288      	cmp	r0, r1
  c0:	d00d      	beq.n	de <_ZN5hwcpp23callback_implementationINS_12lpc1114_baseILi4096ELi32768ELi48000000EE8timer_64ENS_37callback_administration_double_linkedEE4waitENS_15moment_durationIxLx24EE6momentE+0x66>
  c2:	6947      	ldr	r7, [r0, #20]
  c4:	42af      	cmp	r7, r5
  c6:	db04      	blt.n	d2 <_ZN5hwcpp23callback_implementationINS_12lpc1114_baseILi4096ELi32768ELi48000000EE8timer_64ENS_37callback_administration_double_linkedEE4waitENS_15moment_durationIxLx24EE6momentE+0x5a>
  c8:	d107      	bne.n	da <_ZN5hwcpp23callback_implementationINS_12lpc1114_baseILi4096ELi32768ELi48000000EE8timer_64ENS_37callback_administration_double_linkedEE4waitENS_15moment_durationIxLx24EE6momentE+0x62>
  ca:	6907      	ldr	r7, [r0, #16]
  cc:	9e01      	ldr	r6, [sp, #4]
  ce:	42b7      	cmp	r7, r6
  d0:	d203      	bcs.n	da <_ZN5hwcpp23callback_implementationINS_12lpc1114_baseILi4096ELi32768ELi48000000EE8timer_64ENS_37callback_administration_double_linkedEE4waitENS_15moment_durationIxLx24EE6momentE+0x62>
  d2:	6801      	ldr	r1, [r0, #0]
  d4:	6809      	ldr	r1, [r1, #0]
  d6:	4788      	blx	r1
  d8:	e001      	b.n	de <_ZN5hwcpp23callback_implementationINS_12lpc1114_baseILi4096ELi32768ELi48000000EE8timer_64ENS_37callback_administration_double_linkedEE4waitENS_15moment_durationIxLx24EE6momentE+0x66>
  da:	6840      	ldr	r0, [r0, #4]
  dc:	e7ef      	b.n	be <_ZN5hwcpp23callback_implementationINS_12lpc1114_baseILi4096ELi32768ELi48000000EE8timer_64ENS_37callback_administration_double_linkedEE4waitENS_15moment_durationIxLx24EE6momentE+0x46>
  de:	6823      	ldr	r3, [r4, #0]
  e0:	3b01      	subs	r3, #1
  e2:	6023      	str	r3, [r4, #0]
  e4:	e7cc      	b.n	80 <_ZN5hwcpp23callback_implementationINS_12lpc1114_baseILi4096ELi32768ELi48000000EE8timer_64ENS_37callback_administration_double_linkedEE4waitENS_15moment_durationIxLx24EE6momentE+0x8>
  e6:	b007      	add	sp, #28
  e8:	bdf0      	pop	{r4, r5, r6, r7, pc}
  ea:	46c0      	nop			; (mov r8, r8)
  ec:	10000040 	.word	0x10000040
  f0:	10000044 	.word	0x10000044
  f4:	10000018 	.word	0x10000018
  f8:	000004c0 	.word	0x000004c0

000000fc <_ZN5hwcpp23callback_implementationINS_12lpc1114_baseILi4096ELi32768ELi48000000EE8timer_64ENS_37callback_administration_double_linkedEE4waitENS_15moment_durationIxLx24EE8durationE>:
  fc:	b537      	push	{r0, r1, r2, r4, r5, lr}
  fe:	1c0d      	adds	r5, r1, #0
 100:	1c04      	adds	r4, r0, #0
 102:	4668      	mov	r0, sp
 104:	f7ff ff90 	bl	28 <_ZN5hwcpp13timing_waiterINS_12lpc1114_baseILi4096ELi32768ELi48000000EE8timer_64EE3nowEv>
 108:	9800      	ldr	r0, [sp, #0]
 10a:	9901      	ldr	r1, [sp, #4]
 10c:	1900      	adds	r0, r0, r4
 10e:	4169      	adcs	r1, r5
 110:	f7ff ffb2 	bl	78 <_ZN5hwcpp23callback_implementationINS_12lpc1114_baseILi4096ELi32768ELi48000000EE8timer_64ENS_37callback_administration_double_linkedEE4waitENS_15moment_durationIxLx24EE6momentE>
 114:	bd37      	pop	{r0, r1, r2, r4, r5, pc}
	...

00000118 <_ZN5hwcpp12lpc1114_baseILi4096ELi32768ELi48000000EE16initialize_clockEv>:
 118:	4b0f      	ldr	r3, [pc, #60]	; (158 <_ZN5hwcpp12lpc1114_baseILi4096ELi32768ELi48000000EE16initialize_clockEv+0x40>)
 11a:	781a      	ldrb	r2, [r3, #0]
 11c:	2a00      	cmp	r2, #0
 11e:	d11a      	bne.n	156 <_ZN5hwcpp12lpc1114_baseILi4096ELi32768ELi48000000EE16initialize_clockEv+0x3e>
 120:	2201      	movs	r2, #1
 122:	701a      	strb	r2, [r3, #0]
 124:	4b0d      	ldr	r3, [pc, #52]	; (15c <_ZN5hwcpp12lpc1114_baseILi4096ELi32768ELi48000000EE16initialize_clockEv+0x44>)
 126:	228e      	movs	r2, #142	; 0x8e
 128:	0092      	lsls	r2, r2, #2
 12a:	5898      	ldr	r0, [r3, r2]
 12c:	2180      	movs	r1, #128	; 0x80
 12e:	4308      	orrs	r0, r1
 130:	5098      	str	r0, [r3, r2]
 132:	2023      	movs	r0, #35	; 0x23
 134:	6098      	str	r0, [r3, #8]
 136:	5898      	ldr	r0, [r3, r2]
 138:	4388      	bics	r0, r1
 13a:	5098      	str	r0, [r3, r2]
 13c:	68d8      	ldr	r0, [r3, #12]
 13e:	2101      	movs	r1, #1
 140:	4a06      	ldr	r2, [pc, #24]	; (15c <_ZN5hwcpp12lpc1114_baseILi4096ELi32768ELi48000000EE16initialize_clockEv+0x44>)
 142:	4208      	tst	r0, r1
 144:	d0fa      	beq.n	13c <_ZN5hwcpp12lpc1114_baseILi4096ELi32768ELi48000000EE16initialize_clockEv+0x24>
 146:	2303      	movs	r3, #3
 148:	6713      	str	r3, [r2, #112]	; 0x70
 14a:	6f53      	ldr	r3, [r2, #116]	; 0x74
 14c:	438b      	bics	r3, r1
 14e:	6753      	str	r3, [r2, #116]	; 0x74
 150:	6f53      	ldr	r3, [r2, #116]	; 0x74
 152:	4319      	orrs	r1, r3
 154:	6751      	str	r1, [r2, #116]	; 0x74
 156:	4770      	bx	lr
 158:	1000003c 	.word	0x1000003c
 15c:	40048000 	.word	0x40048000

00000160 <_Z5blinkv>:
 160:	b510      	push	{r4, lr}
 162:	f7ff ffd9 	bl	118 <_ZN5hwcpp12lpc1114_baseILi4096ELi32768ELi48000000EE16initialize_clockEv>
 166:	4b16      	ldr	r3, [pc, #88]	; (1c0 <_Z5blinkv+0x60>)
 168:	4916      	ldr	r1, [pc, #88]	; (1c4 <_Z5blinkv+0x64>)
 16a:	2200      	movs	r2, #0
 16c:	601a      	str	r2, [r3, #0]
 16e:	6059      	str	r1, [r3, #4]
 170:	609a      	str	r2, [r3, #8]
 172:	2201      	movs	r2, #1
 174:	601a      	str	r2, [r3, #0]
 176:	4b14      	ldr	r3, [pc, #80]	; (1c8 <_Z5blinkv+0x68>)
 178:	2280      	movs	r2, #128	; 0x80
 17a:	6fd9      	ldr	r1, [r3, #124]	; 0x7c
 17c:	0252      	lsls	r2, r2, #9
 17e:	430a      	orrs	r2, r1
 180:	67da      	str	r2, [r3, #124]	; 0x7c
 182:	4b12      	ldr	r3, [pc, #72]	; (1cc <_Z5blinkv+0x6c>)
 184:	2107      	movs	r1, #7
 186:	681a      	ldr	r2, [r3, #0]
 188:	438a      	bics	r2, r1
 18a:	2180      	movs	r1, #128	; 0x80
 18c:	430a      	orrs	r2, r1
 18e:	601a      	str	r2, [r3, #0]
 190:	4b0f      	ldr	r3, [pc, #60]	; (1d0 <_Z5blinkv+0x70>)
 192:	2110      	movs	r1, #16
 194:	681a      	ldr	r2, [r3, #0]
 196:	430a      	orrs	r2, r1
 198:	601a      	str	r2, [r3, #0]
 19a:	4c0e      	ldr	r4, [pc, #56]	; (1d4 <_Z5blinkv+0x74>)
 19c:	2301      	movs	r3, #1
 19e:	425b      	negs	r3, r3
 1a0:	6023      	str	r3, [r4, #0]
 1a2:	4906      	ldr	r1, [pc, #24]	; (1bc <_Z5blinkv+0x5c>)
 1a4:	4804      	ldr	r0, [pc, #16]	; (1b8 <_Z5blinkv+0x58>)
 1a6:	f7ff ffa9 	bl	fc <_ZN5hwcpp23callback_implementationINS_12lpc1114_baseILi4096ELi32768ELi48000000EE8timer_64ENS_37callback_administration_double_linkedEE4waitENS_15moment_durationIxLx24EE8durationE>
 1aa:	4904      	ldr	r1, [pc, #16]	; (1bc <_Z5blinkv+0x5c>)
 1ac:	4802      	ldr	r0, [pc, #8]	; (1b8 <_Z5blinkv+0x58>)
 1ae:	2300      	movs	r3, #0
 1b0:	6023      	str	r3, [r4, #0]
 1b2:	f7ff ffa3 	bl	fc <_ZN5hwcpp23callback_implementationINS_12lpc1114_baseILi4096ELi32768ELi48000000EE8timer_64ENS_37callback_administration_double_linkedEE4waitENS_15moment_durationIxLx24EE8durationE>
 1b6:	e7f0      	b.n	19a <_Z5blinkv+0x3a>
 1b8:	005b8d80 	.word	0x005b8d80
 1bc:	00000000 	.word	0x00000000
 1c0:	e000e010 	.word	0xe000e010
 1c4:	00ffffff 	.word	0x00ffffff
 1c8:	40048004 	.word	0x40048004
 1cc:	40044094 	.word	0x40044094
 1d0:	50018000 	.word	0x50018000
 1d4:	50010040 	.word	0x50010040

000001d8 <_ZN5hwcpp12lpc1114_baseILi4096ELi32768ELi48000000EE4uartILj38400EE3putEc>:
 1d8:	4b02      	ldr	r3, [pc, #8]	; (1e4 <_ZN5hwcpp12lpc1114_baseILi4096ELi32768ELi48000000EE4uartILj38400EE3putEc+0xc>)
 1da:	695a      	ldr	r2, [r3, #20]
 1dc:	0651      	lsls	r1, r2, #25
 1de:	d5fb      	bpl.n	1d8 <_ZN5hwcpp12lpc1114_baseILi4096ELi32768ELi48000000EE4uartILj38400EE3putEc>
 1e0:	6018      	str	r0, [r3, #0]
 1e2:	4770      	bx	lr
 1e4:	40008000 	.word	0x40008000

000001e8 <_ZN5hwcpp12lpc1114_baseILi4096ELi32768ELi48000000EE16initialize_clockEv.part.7>:
 1e8:	4b0e      	ldr	r3, [pc, #56]	; (224 <_ZN5hwcpp12lpc1114_baseILi4096ELi32768ELi48000000EE16initialize_clockEv.part.7+0x3c>)
 1ea:	2201      	movs	r2, #1
 1ec:	701a      	strb	r2, [r3, #0]
 1ee:	4b0e      	ldr	r3, [pc, #56]	; (228 <_ZN5hwcpp12lpc1114_baseILi4096ELi32768ELi48000000EE16initialize_clockEv.part.7+0x40>)
 1f0:	228e      	movs	r2, #142	; 0x8e
 1f2:	0092      	lsls	r2, r2, #2
 1f4:	5898      	ldr	r0, [r3, r2]
 1f6:	2180      	movs	r1, #128	; 0x80
 1f8:	4308      	orrs	r0, r1
 1fa:	5098      	str	r0, [r3, r2]
 1fc:	2023      	movs	r0, #35	; 0x23
 1fe:	6098      	str	r0, [r3, #8]
 200:	5898      	ldr	r0, [r3, r2]
 202:	4388      	bics	r0, r1
 204:	5098      	str	r0, [r3, r2]
 206:	68d8      	ldr	r0, [r3, #12]
 208:	2101      	movs	r1, #1
 20a:	4a07      	ldr	r2, [pc, #28]	; (228 <_ZN5hwcpp12lpc1114_baseILi4096ELi32768ELi48000000EE16initialize_clockEv.part.7+0x40>)
 20c:	4208      	tst	r0, r1
 20e:	d0fa      	beq.n	206 <_ZN5hwcpp12lpc1114_baseILi4096ELi32768ELi48000000EE16initialize_clockEv.part.7+0x1e>
 210:	2303      	movs	r3, #3
 212:	6713      	str	r3, [r2, #112]	; 0x70
 214:	6f53      	ldr	r3, [r2, #116]	; 0x74
 216:	438b      	bics	r3, r1
 218:	6753      	str	r3, [r2, #116]	; 0x74
 21a:	6f53      	ldr	r3, [r2, #116]	; 0x74
 21c:	4319      	orrs	r1, r3
 21e:	6751      	str	r1, [r2, #116]	; 0x74
 220:	4770      	bx	lr
 222:	46c0      	nop			; (mov r8, r8)
 224:	1000003c 	.word	0x1000003c
 228:	40048000 	.word	0x40048000

0000022c <_ZNSt7ostream6fillerEi>:
 22c:	b538      	push	{r3, r4, r5, lr}
 22e:	1c05      	adds	r5, r0, #0
 230:	1c0c      	adds	r4, r1, #0
 232:	2c00      	cmp	r4, #0
 234:	dd06      	ble.n	244 <_ZNSt7ostream6fillerEi+0x18>
 236:	692b      	ldr	r3, [r5, #16]
 238:	7a28      	ldrb	r0, [r5, #8]
 23a:	2b00      	cmp	r3, #0
 23c:	d000      	beq.n	240 <_ZNSt7ostream6fillerEi+0x14>
 23e:	4798      	blx	r3
 240:	3c01      	subs	r4, #1
 242:	e7f6      	b.n	232 <_ZNSt7ostream6fillerEi+0x6>
 244:	bd38      	pop	{r3, r4, r5, pc}

00000246 <_ZStlsRSt7ostreamPKc>:
 246:	b570      	push	{r4, r5, r6, lr}
 248:	7a83      	ldrb	r3, [r0, #10]
 24a:	1c04      	adds	r4, r0, #0
 24c:	1c0d      	adds	r5, r1, #0
 24e:	2b00      	cmp	r3, #0
 250:	d00b      	beq.n	26a <_ZStlsRSt7ostreamPKc+0x24>
 252:	6801      	ldr	r1, [r0, #0]
 254:	1c2b      	adds	r3, r5, #0
 256:	7818      	ldrb	r0, [r3, #0]
 258:	1b5a      	subs	r2, r3, r5
 25a:	2800      	cmp	r0, #0
 25c:	d001      	beq.n	262 <_ZStlsRSt7ostreamPKc+0x1c>
 25e:	3301      	adds	r3, #1
 260:	e7f9      	b.n	256 <_ZStlsRSt7ostreamPKc+0x10>
 262:	1a89      	subs	r1, r1, r2
 264:	1c20      	adds	r0, r4, #0
 266:	f7ff ffe1 	bl	22c <_ZNSt7ostream6fillerEi>
 26a:	1c2e      	adds	r6, r5, #0
 26c:	7830      	ldrb	r0, [r6, #0]
 26e:	2800      	cmp	r0, #0
 270:	d005      	beq.n	27e <_ZStlsRSt7ostreamPKc+0x38>
 272:	6923      	ldr	r3, [r4, #16]
 274:	2b00      	cmp	r3, #0
 276:	d000      	beq.n	27a <_ZStlsRSt7ostreamPKc+0x34>
 278:	4798      	blx	r3
 27a:	3601      	adds	r6, #1
 27c:	e7f6      	b.n	26c <_ZStlsRSt7ostreamPKc+0x26>
 27e:	7aa3      	ldrb	r3, [r4, #10]
 280:	2b00      	cmp	r3, #0
 282:	d10b      	bne.n	29c <_ZStlsRSt7ostreamPKc+0x56>
 284:	6821      	ldr	r1, [r4, #0]
 286:	1c2b      	adds	r3, r5, #0
 288:	7818      	ldrb	r0, [r3, #0]
 28a:	1b5a      	subs	r2, r3, r5
 28c:	2800      	cmp	r0, #0
 28e:	d001      	beq.n	294 <_ZStlsRSt7ostreamPKc+0x4e>
 290:	3301      	adds	r3, #1
 292:	e7f9      	b.n	288 <_ZStlsRSt7ostreamPKc+0x42>
 294:	1a89      	subs	r1, r1, r2
 296:	1c20      	adds	r0, r4, #0
 298:	f7ff ffc8 	bl	22c <_ZNSt7ostream6fillerEi>
 29c:	2300      	movs	r3, #0
 29e:	1c20      	adds	r0, r4, #0
 2a0:	6023      	str	r3, [r4, #0]
 2a2:	bd70      	pop	{r4, r5, r6, pc}

000002a4 <_ZN5hwcpp12lpc1114_baseILi4096ELi32768ELi48000000EE4uartILj38400EE4initEv>:
 2a4:	b538      	push	{r3, r4, r5, lr}
 2a6:	4b24      	ldr	r3, [pc, #144]	; (338 <_ZN5hwcpp12lpc1114_baseILi4096ELi32768ELi48000000EE4uartILj38400EE4initEv+0x94>)
 2a8:	781b      	ldrb	r3, [r3, #0]
 2aa:	2b00      	cmp	r3, #0
 2ac:	d101      	bne.n	2b2 <_ZN5hwcpp12lpc1114_baseILi4096ELi32768ELi48000000EE4uartILj38400EE4initEv+0xe>
 2ae:	f7ff ff9b 	bl	1e8 <_ZN5hwcpp12lpc1114_baseILi4096ELi32768ELi48000000EE16initialize_clockEv.part.7>
 2b2:	4b22      	ldr	r3, [pc, #136]	; (33c <_ZN5hwcpp12lpc1114_baseILi4096ELi32768ELi48000000EE4uartILj38400EE4initEv+0x98>)
 2b4:	2280      	movs	r2, #128	; 0x80
 2b6:	0392      	lsls	r2, r2, #14
 2b8:	67da      	str	r2, [r3, #124]	; 0x7c
 2ba:	4b21      	ldr	r3, [pc, #132]	; (340 <_ZN5hwcpp12lpc1114_baseILi4096ELi32768ELi48000000EE4uartILj38400EE4initEv+0x9c>)
 2bc:	2280      	movs	r2, #128	; 0x80
 2be:	6fd9      	ldr	r1, [r3, #124]	; 0x7c
 2c0:	0252      	lsls	r2, r2, #9
 2c2:	430a      	orrs	r2, r1
 2c4:	67da      	str	r2, [r3, #124]	; 0x7c
 2c6:	6fda      	ldr	r2, [r3, #124]	; 0x7c
 2c8:	2080      	movs	r0, #128	; 0x80
 2ca:	0140      	lsls	r0, r0, #5
 2cc:	4302      	orrs	r2, r0
 2ce:	67da      	str	r2, [r3, #124]	; 0x7c
 2d0:	4a1c      	ldr	r2, [pc, #112]	; (344 <_ZN5hwcpp12lpc1114_baseILi4096ELi32768ELi48000000EE4uartILj38400EE4initEv+0xa0>)
 2d2:	2507      	movs	r5, #7
 2d4:	6811      	ldr	r1, [r2, #0]
 2d6:	43a9      	bics	r1, r5
 2d8:	6011      	str	r1, [r2, #0]
 2da:	6814      	ldr	r4, [r2, #0]
 2dc:	2101      	movs	r1, #1
 2de:	430c      	orrs	r4, r1
 2e0:	6014      	str	r4, [r2, #0]
 2e2:	4a19      	ldr	r2, [pc, #100]	; (348 <_ZN5hwcpp12lpc1114_baseILi4096ELi32768ELi48000000EE4uartILj38400EE4initEv+0xa4>)
 2e4:	6814      	ldr	r4, [r2, #0]
 2e6:	43ac      	bics	r4, r5
 2e8:	6014      	str	r4, [r2, #0]
 2ea:	6814      	ldr	r4, [r2, #0]
 2ec:	430c      	orrs	r4, r1
 2ee:	6014      	str	r4, [r2, #0]
 2f0:	6fda      	ldr	r2, [r3, #124]	; 0x7c
 2f2:	4c16      	ldr	r4, [pc, #88]	; (34c <_ZN5hwcpp12lpc1114_baseILi4096ELi32768ELi48000000EE4uartILj38400EE4initEv+0xa8>)
 2f4:	4310      	orrs	r0, r2
 2f6:	67d8      	str	r0, [r3, #124]	; 0x7c
 2f8:	2383      	movs	r3, #131	; 0x83
 2fa:	60e3      	str	r3, [r4, #12]
 2fc:	4b14      	ldr	r3, [pc, #80]	; (350 <_ZN5hwcpp12lpc1114_baseILi4096ELi32768ELi48000000EE4uartILj38400EE4initEv+0xac>)
 2fe:	4815      	ldr	r0, [pc, #84]	; (354 <_ZN5hwcpp12lpc1114_baseILi4096ELi32768ELi48000000EE4uartILj38400EE4initEv+0xb0>)
 300:	6019      	str	r1, [r3, #0]
 302:	4b15      	ldr	r3, [pc, #84]	; (358 <_ZN5hwcpp12lpc1114_baseILi4096ELi32768ELi48000000EE4uartILj38400EE4initEv+0xb4>)
 304:	2196      	movs	r1, #150	; 0x96
 306:	6f9b      	ldr	r3, [r3, #120]	; 0x78
 308:	0309      	lsls	r1, r1, #12
 30a:	4359      	muls	r1, r3
 30c:	f000 f882 	bl	414 <__aeabi_uidiv>
 310:	0a03      	lsrs	r3, r0, #8
 312:	6063      	str	r3, [r4, #4]
 314:	b2c0      	uxtb	r0, r0
 316:	2303      	movs	r3, #3
 318:	6020      	str	r0, [r4, #0]
 31a:	60e3      	str	r3, [r4, #12]
 31c:	60a5      	str	r5, [r4, #8]
 31e:	6963      	ldr	r3, [r4, #20]
 320:	6962      	ldr	r2, [r4, #20]
 322:	2360      	movs	r3, #96	; 0x60
 324:	4013      	ands	r3, r2
 326:	2b60      	cmp	r3, #96	; 0x60
 328:	d1fa      	bne.n	320 <_ZN5hwcpp12lpc1114_baseILi4096ELi32768ELi48000000EE4uartILj38400EE4initEv+0x7c>
 32a:	6963      	ldr	r3, [r4, #20]
 32c:	07da      	lsls	r2, r3, #31
 32e:	d502      	bpl.n	336 <_ZN5hwcpp12lpc1114_baseILi4096ELi32768ELi48000000EE4uartILj38400EE4initEv+0x92>
 330:	4b06      	ldr	r3, [pc, #24]	; (34c <_ZN5hwcpp12lpc1114_baseILi4096ELi32768ELi48000000EE4uartILj38400EE4initEv+0xa8>)
 332:	681b      	ldr	r3, [r3, #0]
 334:	e7f9      	b.n	32a <_ZN5hwcpp12lpc1114_baseILi4096ELi32768ELi48000000EE4uartILj38400EE4initEv+0x86>
 336:	bd38      	pop	{r3, r4, r5, pc}
 338:	1000003c 	.word	0x1000003c
 33c:	e000e104 	.word	0xe000e104
 340:	40048004 	.word	0x40048004
 344:	400440a4 	.word	0x400440a4
 348:	400440a8 	.word	0x400440a8
 34c:	40008000 	.word	0x40008000
 350:	40048098 	.word	0x40048098
 354:	02dc6c00 	.word	0x02dc6c00
 358:	40048000 	.word	0x40048000

0000035c <main>:
 35c:	b510      	push	{r4, lr}
 35e:	f7ff ffa1 	bl	2a4 <_ZN5hwcpp12lpc1114_baseILi4096ELi32768ELi48000000EE4uartILj38400EE4initEv>
 362:	4b0f      	ldr	r3, [pc, #60]	; (3a0 <main+0x44>)
 364:	480f      	ldr	r0, [pc, #60]	; (3a4 <main+0x48>)
 366:	4910      	ldr	r1, [pc, #64]	; (3a8 <main+0x4c>)
 368:	6103      	str	r3, [r0, #16]
 36a:	f7ff ff6c 	bl	246 <_ZStlsRSt7ostreamPKc>
 36e:	490f      	ldr	r1, [pc, #60]	; (3ac <main+0x50>)
 370:	f7ff ff69 	bl	246 <_ZStlsRSt7ostreamPKc>
 374:	490e      	ldr	r1, [pc, #56]	; (3b0 <main+0x54>)
 376:	f7ff ff66 	bl	246 <_ZStlsRSt7ostreamPKc>
 37a:	4b0e      	ldr	r3, [pc, #56]	; (3b4 <main+0x58>)
 37c:	781b      	ldrb	r3, [r3, #0]
 37e:	2b00      	cmp	r3, #0
 380:	d101      	bne.n	386 <main+0x2a>
 382:	f7ff ff31 	bl	1e8 <_ZN5hwcpp12lpc1114_baseILi4096ELi32768ELi48000000EE16initialize_clockEv.part.7>
 386:	4b0c      	ldr	r3, [pc, #48]	; (3b8 <main+0x5c>)
 388:	4a0c      	ldr	r2, [pc, #48]	; (3bc <main+0x60>)
 38a:	2400      	movs	r4, #0
 38c:	601c      	str	r4, [r3, #0]
 38e:	605a      	str	r2, [r3, #4]
 390:	2201      	movs	r2, #1
 392:	609c      	str	r4, [r3, #8]
 394:	601a      	str	r2, [r3, #0]
 396:	f7ff fee3 	bl	160 <_Z5blinkv>
 39a:	1c20      	adds	r0, r4, #0
 39c:	bd10      	pop	{r4, pc}
 39e:	46c0      	nop			; (mov r8, r8)
 3a0:	000001d9 	.word	0x000001d9
 3a4:	10000000 	.word	0x10000000
 3a8:	000004c8 	.word	0x000004c8
 3ac:	000004d3 	.word	0x000004d3
 3b0:	000004d5 	.word	0x000004d5
 3b4:	1000003c 	.word	0x1000003c
 3b8:	e000e010 	.word	0xe000e010
 3bc:	00ffffff 	.word	0x00ffffff

000003c0 <__startup>:
 3c0:	b510      	push	{r4, lr}
 3c2:	4b0f      	ldr	r3, [pc, #60]	; (400 <__main_stack_size>)
 3c4:	4a0f      	ldr	r2, [pc, #60]	; (404 <__main_stack_size+0x4>)
 3c6:	1d19      	adds	r1, r3, #4
 3c8:	3b04      	subs	r3, #4
 3ca:	4293      	cmp	r3, r2
 3cc:	d003      	beq.n	3d6 <__startup+0x16>
 3ce:	2200      	movs	r2, #0
 3d0:	601a      	str	r2, [r3, #0]
 3d2:	1c0b      	adds	r3, r1, #0
 3d4:	e7f6      	b.n	3c4 <__startup+0x4>
 3d6:	4a0c      	ldr	r2, [pc, #48]	; (408 <__main_stack_size+0x8>)
 3d8:	490c      	ldr	r1, [pc, #48]	; (40c <__main_stack_size+0xc>)
 3da:	2300      	movs	r3, #0
 3dc:	1a89      	subs	r1, r1, r2
 3de:	0889      	lsrs	r1, r1, #2
 3e0:	3101      	adds	r1, #1
 3e2:	0089      	lsls	r1, r1, #2
 3e4:	3304      	adds	r3, #4
 3e6:	428b      	cmp	r3, r1
 3e8:	d007      	beq.n	3fa <__startup+0x3a>
 3ea:	4c09      	ldr	r4, [pc, #36]	; (410 <__main_stack_size+0x10>)
 3ec:	18d0      	adds	r0, r2, r3
 3ee:	191c      	adds	r4, r3, r4
 3f0:	3c04      	subs	r4, #4
 3f2:	6824      	ldr	r4, [r4, #0]
 3f4:	3804      	subs	r0, #4
 3f6:	6004      	str	r4, [r0, #0]
 3f8:	e7f4      	b.n	3e4 <__startup+0x24>
 3fa:	f7ff ffaf 	bl	35c <main>
 3fe:	e7fe      	b.n	3fe <__startup+0x3e>
 400:	1000001c 	.word	0x1000001c
 404:	10000048 	.word	0x10000048
 408:	10000000 	.word	0x10000000
 40c:	10000014 	.word	0x10000014
 410:	000004ec 	.word	0x000004ec

00000414 <__aeabi_uidiv>:
 414:	2900      	cmp	r1, #0
 416:	d034      	beq.n	482 <.udivsi3_skip_div0_test+0x6a>

00000418 <.udivsi3_skip_div0_test>:
 418:	2301      	movs	r3, #1
 41a:	2200      	movs	r2, #0
 41c:	b410      	push	{r4}
 41e:	4288      	cmp	r0, r1
 420:	d32c      	bcc.n	47c <.udivsi3_skip_div0_test+0x64>
 422:	2401      	movs	r4, #1
 424:	0724      	lsls	r4, r4, #28
 426:	42a1      	cmp	r1, r4
 428:	d204      	bcs.n	434 <.udivsi3_skip_div0_test+0x1c>
 42a:	4281      	cmp	r1, r0
 42c:	d202      	bcs.n	434 <.udivsi3_skip_div0_test+0x1c>
 42e:	0109      	lsls	r1, r1, #4
 430:	011b      	lsls	r3, r3, #4
 432:	e7f8      	b.n	426 <.udivsi3_skip_div0_test+0xe>
 434:	00e4      	lsls	r4, r4, #3
 436:	42a1      	cmp	r1, r4
 438:	d204      	bcs.n	444 <.udivsi3_skip_div0_test+0x2c>
 43a:	4281      	cmp	r1, r0
 43c:	d202      	bcs.n	444 <.udivsi3_skip_div0_test+0x2c>
 43e:	0049      	lsls	r1, r1, #1
 440:	005b      	lsls	r3, r3, #1
 442:	e7f8      	b.n	436 <.udivsi3_skip_div0_test+0x1e>
 444:	4288      	cmp	r0, r1
 446:	d301      	bcc.n	44c <.udivsi3_skip_div0_test+0x34>
 448:	1a40      	subs	r0, r0, r1
 44a:	431a      	orrs	r2, r3
 44c:	084c      	lsrs	r4, r1, #1
 44e:	42a0      	cmp	r0, r4
 450:	d302      	bcc.n	458 <.udivsi3_skip_div0_test+0x40>
 452:	1b00      	subs	r0, r0, r4
 454:	085c      	lsrs	r4, r3, #1
 456:	4322      	orrs	r2, r4
 458:	088c      	lsrs	r4, r1, #2
 45a:	42a0      	cmp	r0, r4
 45c:	d302      	bcc.n	464 <.udivsi3_skip_div0_test+0x4c>
 45e:	1b00      	subs	r0, r0, r4
 460:	089c      	lsrs	r4, r3, #2
 462:	4322      	orrs	r2, r4
 464:	08cc      	lsrs	r4, r1, #3
 466:	42a0      	cmp	r0, r4
 468:	d302      	bcc.n	470 <.udivsi3_skip_div0_test+0x58>
 46a:	1b00      	subs	r0, r0, r4
 46c:	08dc      	lsrs	r4, r3, #3
 46e:	4322      	orrs	r2, r4
 470:	2800      	cmp	r0, #0
 472:	d003      	beq.n	47c <.udivsi3_skip_div0_test+0x64>
 474:	091b      	lsrs	r3, r3, #4
 476:	d001      	beq.n	47c <.udivsi3_skip_div0_test+0x64>
 478:	0909      	lsrs	r1, r1, #4
 47a:	e7e3      	b.n	444 <.udivsi3_skip_div0_test+0x2c>
 47c:	1c10      	adds	r0, r2, #0
 47e:	bc10      	pop	{r4}
 480:	4770      	bx	lr
 482:	2800      	cmp	r0, #0
 484:	d001      	beq.n	48a <.udivsi3_skip_div0_test+0x72>
 486:	2000      	movs	r0, #0
 488:	43c0      	mvns	r0, r0
 48a:	b407      	push	{r0, r1, r2}
 48c:	4802      	ldr	r0, [pc, #8]	; (498 <.udivsi3_skip_div0_test+0x80>)
 48e:	a102      	add	r1, pc, #8	; (adr r1, 498 <.udivsi3_skip_div0_test+0x80>)
 490:	1840      	adds	r0, r0, r1
 492:	9002      	str	r0, [sp, #8]
 494:	bd03      	pop	{r0, r1, pc}
 496:	46c0      	nop			; (mov r8, r8)
 498:	00000019 	.word	0x00000019

0000049c <__aeabi_uidivmod>:
 49c:	2900      	cmp	r1, #0
 49e:	d0f0      	beq.n	482 <.udivsi3_skip_div0_test+0x6a>
 4a0:	b503      	push	{r0, r1, lr}
 4a2:	f7ff ffb9 	bl	418 <.udivsi3_skip_div0_test>
 4a6:	bc0e      	pop	{r1, r2, r3}
 4a8:	4342      	muls	r2, r0
 4aa:	1a89      	subs	r1, r1, r2
 4ac:	4718      	bx	r3
 4ae:	46c0      	nop			; (mov r8, r8)

000004b0 <__aeabi_idiv0>:
 4b0:	4770      	bx	lr
 4b2:	46c0      	nop			; (mov r8, r8)
 4b4:	0000      	movs	r0, r0
	...

000004b8 <_ZTVN5hwcpp37callback_administration_double_linkedINS_21timing_implementationINS_12lpc1114_baseILi4096ELi32768ELi48000000EE8timer_64EEEE5_nodeE>:
	...
 4c0:	0021 0000 0000 0000 6d0a 6961 2e6e 7063     !........main.cp
 4d0:	3a70 2035 7400 6f77 732d 756f 6372 7365     p:5 .two-sources
 4e0:	6220 696c 6b6e 7420 7365 0074                blink test.
