
main.elf:     file format elf32-littlearm


Disassembly of section .text:

00000000 <__text_start>:
   0:	10000418 	.word	0x10000418
   4:	000001c1 	.word	0x000001c1
	...

00000020 <_ZN5hwcpp12lpc1114_baseILi4096ELi32768ELi12000000EE4uartILj38400EE3putEc>:
  20:	4b02      	ldr	r3, [pc, #8]	; (2c <_ZN5hwcpp12lpc1114_baseILi4096ELi32768ELi12000000EE4uartILj38400EE3putEc+0xc>)
  22:	695a      	ldr	r2, [r3, #20]
  24:	0651      	lsls	r1, r2, #25
  26:	d5fb      	bpl.n	20 <_ZN5hwcpp12lpc1114_baseILi4096ELi32768ELi12000000EE4uartILj38400EE3putEc>
  28:	6018      	str	r0, [r3, #0]
  2a:	4770      	bx	lr
  2c:	40008000 	.word	0x40008000

00000030 <_ZNSt7ostream6fillerEi>:
  30:	b538      	push	{r3, r4, r5, lr}
  32:	1c05      	adds	r5, r0, #0
  34:	1c0c      	adds	r4, r1, #0
  36:	2c00      	cmp	r4, #0
  38:	dd06      	ble.n	48 <_ZNSt7ostream6fillerEi+0x18>
  3a:	692b      	ldr	r3, [r5, #16]
  3c:	7a28      	ldrb	r0, [r5, #8]
  3e:	2b00      	cmp	r3, #0
  40:	d000      	beq.n	44 <_ZNSt7ostream6fillerEi+0x14>
  42:	4798      	blx	r3
  44:	3c01      	subs	r4, #1
  46:	e7f6      	b.n	36 <_ZNSt7ostream6fillerEi+0x6>
  48:	bd38      	pop	{r3, r4, r5, pc}

0000004a <_ZStlsRSt7ostreamPKc>:
  4a:	b570      	push	{r4, r5, r6, lr}
  4c:	7a83      	ldrb	r3, [r0, #10]
  4e:	1c04      	adds	r4, r0, #0
  50:	1c0d      	adds	r5, r1, #0
  52:	2b00      	cmp	r3, #0
  54:	d00b      	beq.n	6e <_ZStlsRSt7ostreamPKc+0x24>
  56:	6801      	ldr	r1, [r0, #0]
  58:	1c2b      	adds	r3, r5, #0
  5a:	7818      	ldrb	r0, [r3, #0]
  5c:	1b5a      	subs	r2, r3, r5
  5e:	2800      	cmp	r0, #0
  60:	d001      	beq.n	66 <_ZStlsRSt7ostreamPKc+0x1c>
  62:	3301      	adds	r3, #1
  64:	e7f9      	b.n	5a <_ZStlsRSt7ostreamPKc+0x10>
  66:	1a89      	subs	r1, r1, r2
  68:	1c20      	adds	r0, r4, #0
  6a:	f7ff ffe1 	bl	30 <_ZNSt7ostream6fillerEi>
  6e:	1c2e      	adds	r6, r5, #0
  70:	7830      	ldrb	r0, [r6, #0]
  72:	2800      	cmp	r0, #0
  74:	d005      	beq.n	82 <_ZStlsRSt7ostreamPKc+0x38>
  76:	6923      	ldr	r3, [r4, #16]
  78:	2b00      	cmp	r3, #0
  7a:	d000      	beq.n	7e <_ZStlsRSt7ostreamPKc+0x34>
  7c:	4798      	blx	r3
  7e:	3601      	adds	r6, #1
  80:	e7f6      	b.n	70 <_ZStlsRSt7ostreamPKc+0x26>
  82:	7aa3      	ldrb	r3, [r4, #10]
  84:	2b00      	cmp	r3, #0
  86:	d10b      	bne.n	a0 <_ZStlsRSt7ostreamPKc+0x56>
  88:	6821      	ldr	r1, [r4, #0]
  8a:	1c2b      	adds	r3, r5, #0
  8c:	7818      	ldrb	r0, [r3, #0]
  8e:	1b5a      	subs	r2, r3, r5
  90:	2800      	cmp	r0, #0
  92:	d001      	beq.n	98 <_ZStlsRSt7ostreamPKc+0x4e>
  94:	3301      	adds	r3, #1
  96:	e7f9      	b.n	8c <_ZStlsRSt7ostreamPKc+0x42>
  98:	1a89      	subs	r1, r1, r2
  9a:	1c20      	adds	r0, r4, #0
  9c:	f7ff ffc8 	bl	30 <_ZNSt7ostream6fillerEi>
  a0:	2300      	movs	r3, #0
  a2:	1c20      	adds	r0, r4, #0
  a4:	6023      	str	r3, [r4, #0]
  a6:	bd70      	pop	{r4, r5, r6, pc}

000000a8 <_ZN5hwcpp12lpc1114_baseILi4096ELi32768ELi12000000EE4uartILj38400EE4initEv>:
  a8:	b538      	push	{r3, r4, r5, lr}
  aa:	2280      	movs	r2, #128	; 0x80
  ac:	4b20      	ldr	r3, [pc, #128]	; (130 <_ZN5hwcpp12lpc1114_baseILi4096ELi32768ELi12000000EE4uartILj38400EE4initEv+0x88>)
  ae:	0392      	lsls	r2, r2, #14
  b0:	67da      	str	r2, [r3, #124]	; 0x7c
  b2:	4b20      	ldr	r3, [pc, #128]	; (134 <_ZN5hwcpp12lpc1114_baseILi4096ELi32768ELi12000000EE4uartILj38400EE4initEv+0x8c>)
  b4:	2280      	movs	r2, #128	; 0x80
  b6:	6fd9      	ldr	r1, [r3, #124]	; 0x7c
  b8:	0252      	lsls	r2, r2, #9
  ba:	430a      	orrs	r2, r1
  bc:	67da      	str	r2, [r3, #124]	; 0x7c
  be:	6fda      	ldr	r2, [r3, #124]	; 0x7c
  c0:	2080      	movs	r0, #128	; 0x80
  c2:	0140      	lsls	r0, r0, #5
  c4:	4302      	orrs	r2, r0
  c6:	67da      	str	r2, [r3, #124]	; 0x7c
  c8:	4a1b      	ldr	r2, [pc, #108]	; (138 <_ZN5hwcpp12lpc1114_baseILi4096ELi32768ELi12000000EE4uartILj38400EE4initEv+0x90>)
  ca:	2507      	movs	r5, #7
  cc:	6811      	ldr	r1, [r2, #0]
  ce:	43a9      	bics	r1, r5
  d0:	6011      	str	r1, [r2, #0]
  d2:	6814      	ldr	r4, [r2, #0]
  d4:	2101      	movs	r1, #1
  d6:	430c      	orrs	r4, r1
  d8:	6014      	str	r4, [r2, #0]
  da:	4a18      	ldr	r2, [pc, #96]	; (13c <_ZN5hwcpp12lpc1114_baseILi4096ELi32768ELi12000000EE4uartILj38400EE4initEv+0x94>)
  dc:	6814      	ldr	r4, [r2, #0]
  de:	43ac      	bics	r4, r5
  e0:	6014      	str	r4, [r2, #0]
  e2:	6814      	ldr	r4, [r2, #0]
  e4:	430c      	orrs	r4, r1
  e6:	6014      	str	r4, [r2, #0]
  e8:	6fda      	ldr	r2, [r3, #124]	; 0x7c
  ea:	4c15      	ldr	r4, [pc, #84]	; (140 <_ZN5hwcpp12lpc1114_baseILi4096ELi32768ELi12000000EE4uartILj38400EE4initEv+0x98>)
  ec:	4310      	orrs	r0, r2
  ee:	67d8      	str	r0, [r3, #124]	; 0x7c
  f0:	2383      	movs	r3, #131	; 0x83
  f2:	60e3      	str	r3, [r4, #12]
  f4:	4b13      	ldr	r3, [pc, #76]	; (144 <_ZN5hwcpp12lpc1114_baseILi4096ELi32768ELi12000000EE4uartILj38400EE4initEv+0x9c>)
  f6:	4814      	ldr	r0, [pc, #80]	; (148 <_ZN5hwcpp12lpc1114_baseILi4096ELi32768ELi12000000EE4uartILj38400EE4initEv+0xa0>)
  f8:	6019      	str	r1, [r3, #0]
  fa:	4b14      	ldr	r3, [pc, #80]	; (14c <_ZN5hwcpp12lpc1114_baseILi4096ELi32768ELi12000000EE4uartILj38400EE4initEv+0xa4>)
  fc:	2196      	movs	r1, #150	; 0x96
  fe:	6f9b      	ldr	r3, [r3, #120]	; 0x78
 100:	0309      	lsls	r1, r1, #12
 102:	4359      	muls	r1, r3
 104:	f000 f886 	bl	214 <__aeabi_uidiv>
 108:	0a03      	lsrs	r3, r0, #8
 10a:	6063      	str	r3, [r4, #4]
 10c:	b2c0      	uxtb	r0, r0
 10e:	2303      	movs	r3, #3
 110:	6020      	str	r0, [r4, #0]
 112:	60e3      	str	r3, [r4, #12]
 114:	60a5      	str	r5, [r4, #8]
 116:	6963      	ldr	r3, [r4, #20]
 118:	6962      	ldr	r2, [r4, #20]
 11a:	2360      	movs	r3, #96	; 0x60
 11c:	4013      	ands	r3, r2
 11e:	2b60      	cmp	r3, #96	; 0x60
 120:	d1fa      	bne.n	118 <_ZN5hwcpp12lpc1114_baseILi4096ELi32768ELi12000000EE4uartILj38400EE4initEv+0x70>
 122:	6963      	ldr	r3, [r4, #20]
 124:	07da      	lsls	r2, r3, #31
 126:	d502      	bpl.n	12e <_ZN5hwcpp12lpc1114_baseILi4096ELi32768ELi12000000EE4uartILj38400EE4initEv+0x86>
 128:	4b05      	ldr	r3, [pc, #20]	; (140 <_ZN5hwcpp12lpc1114_baseILi4096ELi32768ELi12000000EE4uartILj38400EE4initEv+0x98>)
 12a:	681b      	ldr	r3, [r3, #0]
 12c:	e7f9      	b.n	122 <_ZN5hwcpp12lpc1114_baseILi4096ELi32768ELi12000000EE4uartILj38400EE4initEv+0x7a>
 12e:	bd38      	pop	{r3, r4, r5, pc}
 130:	e000e104 	.word	0xe000e104
 134:	40048004 	.word	0x40048004
 138:	400440a4 	.word	0x400440a4
 13c:	400440a8 	.word	0x400440a8
 140:	40008000 	.word	0x40008000
 144:	40048098 	.word	0x40048098
 148:	00b71b00 	.word	0x00b71b00
 14c:	40048000 	.word	0x40048000

00000150 <main>:
 150:	b570      	push	{r4, r5, r6, lr}
 152:	f7ff ffa9 	bl	a8 <_ZN5hwcpp12lpc1114_baseILi4096ELi32768ELi12000000EE4uartILj38400EE4initEv>
 156:	4d11      	ldr	r5, [pc, #68]	; (19c <main+0x4c>)
 158:	4b11      	ldr	r3, [pc, #68]	; (1a0 <main+0x50>)
 15a:	1c28      	adds	r0, r5, #0
 15c:	612b      	str	r3, [r5, #16]
 15e:	4911      	ldr	r1, [pc, #68]	; (1a4 <main+0x54>)
 160:	f7ff ff73 	bl	4a <_ZStlsRSt7ostreamPKc>
 164:	4e10      	ldr	r6, [pc, #64]	; (1a8 <main+0x58>)
 166:	2400      	movs	r4, #0
 168:	1c31      	adds	r1, r6, #0
 16a:	f7ff ff6e 	bl	4a <_ZStlsRSt7ostreamPKc>
 16e:	490f      	ldr	r1, [pc, #60]	; (1ac <main+0x5c>)
 170:	f7ff ff6b 	bl	4a <_ZStlsRSt7ostreamPKc>
 174:	4b0e      	ldr	r3, [pc, #56]	; (1b0 <main+0x60>)
 176:	4a0f      	ldr	r2, [pc, #60]	; (1b4 <main+0x64>)
 178:	601c      	str	r4, [r3, #0]
 17a:	605a      	str	r2, [r3, #4]
 17c:	2201      	movs	r2, #1
 17e:	609c      	str	r4, [r3, #8]
 180:	1c28      	adds	r0, r5, #0
 182:	601a      	str	r2, [r3, #0]
 184:	490c      	ldr	r1, [pc, #48]	; (1b8 <main+0x68>)
 186:	f7ff ff60 	bl	4a <_ZStlsRSt7ostreamPKc>
 18a:	1c31      	adds	r1, r6, #0
 18c:	f7ff ff5d 	bl	4a <_ZStlsRSt7ostreamPKc>
 190:	490a      	ldr	r1, [pc, #40]	; (1bc <main+0x6c>)
 192:	f7ff ff5a 	bl	4a <_ZStlsRSt7ostreamPKc>
 196:	1c20      	adds	r0, r4, #0
 198:	bd70      	pop	{r4, r5, r6, pc}
 19a:	46c0      	nop			; (mov r8, r8)
 19c:	10000000 	.word	0x10000000
 1a0:	00000021 	.word	0x00000021
 1a4:	000002b4 	.word	0x000002b4
 1a8:	000002bf 	.word	0x000002bf
 1ac:	000002c1 	.word	0x000002c1
 1b0:	e000e010 	.word	0xe000e010
 1b4:	00ffffff 	.word	0x00ffffff
 1b8:	000002cd 	.word	0x000002cd
 1bc:	000002da 	.word	0x000002da

000001c0 <__startup>:
 1c0:	b510      	push	{r4, lr}
 1c2:	4b0f      	ldr	r3, [pc, #60]	; (200 <__startup+0x40>)
 1c4:	4a0f      	ldr	r2, [pc, #60]	; (204 <__startup+0x44>)
 1c6:	1d19      	adds	r1, r3, #4
 1c8:	3b04      	subs	r3, #4
 1ca:	4293      	cmp	r3, r2
 1cc:	d003      	beq.n	1d6 <__startup+0x16>
 1ce:	2200      	movs	r2, #0
 1d0:	601a      	str	r2, [r3, #0]
 1d2:	1c0b      	adds	r3, r1, #0
 1d4:	e7f6      	b.n	1c4 <__startup+0x4>
 1d6:	4a0c      	ldr	r2, [pc, #48]	; (208 <__startup+0x48>)
 1d8:	490c      	ldr	r1, [pc, #48]	; (20c <__startup+0x4c>)
 1da:	2300      	movs	r3, #0
 1dc:	1a89      	subs	r1, r1, r2
 1de:	0889      	lsrs	r1, r1, #2
 1e0:	3101      	adds	r1, #1
 1e2:	0089      	lsls	r1, r1, #2
 1e4:	3304      	adds	r3, #4
 1e6:	428b      	cmp	r3, r1
 1e8:	d007      	beq.n	1fa <__startup+0x3a>
 1ea:	4c09      	ldr	r4, [pc, #36]	; (210 <__startup+0x50>)
 1ec:	18d0      	adds	r0, r2, r3
 1ee:	191c      	adds	r4, r3, r4
 1f0:	3c04      	subs	r4, #4
 1f2:	6824      	ldr	r4, [r4, #0]
 1f4:	3804      	subs	r0, #4
 1f6:	6004      	str	r4, [r0, #0]
 1f8:	e7f4      	b.n	1e4 <__startup+0x24>
 1fa:	f7ff ffa9 	bl	150 <main>
 1fe:	e7fe      	b.n	1fe <__startup+0x3e>
 200:	10000018 	.word	0x10000018
 204:	10000014 	.word	0x10000014
 208:	10000000 	.word	0x10000000
 20c:	10000014 	.word	0x10000014
 210:	000002f0 	.word	0x000002f0

00000214 <__aeabi_uidiv>:
 214:	2900      	cmp	r1, #0
 216:	d034      	beq.n	282 <.udivsi3_skip_div0_test+0x6a>

00000218 <.udivsi3_skip_div0_test>:
 218:	2301      	movs	r3, #1
 21a:	2200      	movs	r2, #0
 21c:	b410      	push	{r4}
 21e:	4288      	cmp	r0, r1
 220:	d32c      	bcc.n	27c <.udivsi3_skip_div0_test+0x64>
 222:	2401      	movs	r4, #1
 224:	0724      	lsls	r4, r4, #28
 226:	42a1      	cmp	r1, r4
 228:	d204      	bcs.n	234 <.udivsi3_skip_div0_test+0x1c>
 22a:	4281      	cmp	r1, r0
 22c:	d202      	bcs.n	234 <.udivsi3_skip_div0_test+0x1c>
 22e:	0109      	lsls	r1, r1, #4
 230:	011b      	lsls	r3, r3, #4
 232:	e7f8      	b.n	226 <.udivsi3_skip_div0_test+0xe>
 234:	00e4      	lsls	r4, r4, #3
 236:	42a1      	cmp	r1, r4
 238:	d204      	bcs.n	244 <.udivsi3_skip_div0_test+0x2c>
 23a:	4281      	cmp	r1, r0
 23c:	d202      	bcs.n	244 <.udivsi3_skip_div0_test+0x2c>
 23e:	0049      	lsls	r1, r1, #1
 240:	005b      	lsls	r3, r3, #1
 242:	e7f8      	b.n	236 <.udivsi3_skip_div0_test+0x1e>
 244:	4288      	cmp	r0, r1
 246:	d301      	bcc.n	24c <.udivsi3_skip_div0_test+0x34>
 248:	1a40      	subs	r0, r0, r1
 24a:	431a      	orrs	r2, r3
 24c:	084c      	lsrs	r4, r1, #1
 24e:	42a0      	cmp	r0, r4
 250:	d302      	bcc.n	258 <.udivsi3_skip_div0_test+0x40>
 252:	1b00      	subs	r0, r0, r4
 254:	085c      	lsrs	r4, r3, #1
 256:	4322      	orrs	r2, r4
 258:	088c      	lsrs	r4, r1, #2
 25a:	42a0      	cmp	r0, r4
 25c:	d302      	bcc.n	264 <.udivsi3_skip_div0_test+0x4c>
 25e:	1b00      	subs	r0, r0, r4
 260:	089c      	lsrs	r4, r3, #2
 262:	4322      	orrs	r2, r4
 264:	08cc      	lsrs	r4, r1, #3
 266:	42a0      	cmp	r0, r4
 268:	d302      	bcc.n	270 <.udivsi3_skip_div0_test+0x58>
 26a:	1b00      	subs	r0, r0, r4
 26c:	08dc      	lsrs	r4, r3, #3
 26e:	4322      	orrs	r2, r4
 270:	2800      	cmp	r0, #0
 272:	d003      	beq.n	27c <.udivsi3_skip_div0_test+0x64>
 274:	091b      	lsrs	r3, r3, #4
 276:	d001      	beq.n	27c <.udivsi3_skip_div0_test+0x64>
 278:	0909      	lsrs	r1, r1, #4
 27a:	e7e3      	b.n	244 <.udivsi3_skip_div0_test+0x2c>
 27c:	1c10      	adds	r0, r2, #0
 27e:	bc10      	pop	{r4}
 280:	4770      	bx	lr
 282:	2800      	cmp	r0, #0
 284:	d001      	beq.n	28a <.udivsi3_skip_div0_test+0x72>
 286:	2000      	movs	r0, #0
 288:	43c0      	mvns	r0, r0
 28a:	b407      	push	{r0, r1, r2}
 28c:	4802      	ldr	r0, [pc, #8]	; (298 <.udivsi3_skip_div0_test+0x80>)
 28e:	a102      	add	r1, pc, #8	; (adr r1, 298 <.udivsi3_skip_div0_test+0x80>)
 290:	1840      	adds	r0, r0, r1
 292:	9002      	str	r0, [sp, #8]
 294:	bd03      	pop	{r0, r1, pc}
 296:	46c0      	nop			; (mov r8, r8)
 298:	00000019 	.word	0x00000019

0000029c <__aeabi_uidivmod>:
 29c:	2900      	cmp	r1, #0
 29e:	d0f0      	beq.n	282 <.udivsi3_skip_div0_test+0x6a>
 2a0:	b503      	push	{r0, r1, lr}
 2a2:	f7ff ffb9 	bl	218 <.udivsi3_skip_div0_test>
 2a6:	bc0e      	pop	{r1, r2, r3}
 2a8:	4342      	muls	r2, r0
 2aa:	1a89      	subs	r1, r1, r2
 2ac:	4718      	bx	r3
 2ae:	46c0      	nop			; (mov r8, r8)

000002b0 <__aeabi_idiv0>:
 2b0:	4770      	bx	lr
 2b2:	46c0      	nop			; (mov r8, r8)
 2b4:	69616d0a 	.word	0x69616d0a
 2b8:	70632e6e 	.word	0x70632e6e
 2bc:	20373a70 	.word	0x20373a70
 2c0:	6c654800 	.word	0x6c654800
 2c4:	77206f6c 	.word	0x77206f6c
 2c8:	646c726f 	.word	0x646c726f
 2cc:	616d0a00 	.word	0x616d0a00
 2d0:	632e6e69 	.word	0x632e6e69
 2d4:	393a7070 	.word	0x393a7070
 2d8:	69740020 	.word	0x69740020
 2dc:	676e696d 	.word	0x676e696d
 2e0:	696e6920 	.word	0x696e6920
 2e4:	6c616974 	.word	0x6c616974
 2e8:	64657a69 	.word	0x64657a69
 2ec:	00000000 	.word	0x00000000
