	.cpu cortex-m0
	.fpu softvfp
	.eabi_attribute 20, 1
	.eabi_attribute 21, 1
	.eabi_attribute 23, 3
	.eabi_attribute 24, 1
	.eabi_attribute 25, 1
	.eabi_attribute 26, 1
	.eabi_attribute 30, 4
	.eabi_attribute 34, 0
	.eabi_attribute 18, 4
	.code	16
	.file	"main.cpp"
	.section	.text._ZN5hwcpp37callback_administration_double_linkedINS_21timing_implementationINS_12lpc1114_baseILi4096ELi32768ELi48000000EE8timer_64EEEE5_node5visitENS_15moment_durationIxLx24EE6momentE,"axG",%progbits,_ZN5hwcpp37callback_administration_double_linkedINS_21timing_implementationINS_12lpc1114_baseILi4096ELi32768ELi48000000EE8timer_64EEEE5_node5visitENS_15moment_durationIxLx24EE6momentE,comdat
	.align	1
	.weak	_ZN5hwcpp37callback_administration_double_linkedINS_21timing_implementationINS_12lpc1114_baseILi4096ELi32768ELi48000000EE8timer_64EEEE5_node5visitENS_15moment_durationIxLx24EE6momentE
	.code	16
	.thumb_func
	.type	_ZN5hwcpp37callback_administration_double_linkedINS_21timing_implementationINS_12lpc1114_baseILi4096ELi32768ELi48000000EE8timer_64EEEE5_node5visitENS_15moment_durationIxLx24EE6momentE, %function
_ZN5hwcpp37callback_administration_double_linkedINS_21timing_implementationINS_12lpc1114_baseILi4096ELi32768ELi48000000EE8timer_64EEEE5_node5visitENS_15moment_durationIxLx24EE6momentE:
	@ sp needed
	bx	lr
	.size	_ZN5hwcpp37callback_administration_double_linkedINS_21timing_implementationINS_12lpc1114_baseILi4096ELi32768ELi48000000EE8timer_64EEEE5_node5visitENS_15moment_durationIxLx24EE6momentE, .-_ZN5hwcpp37callback_administration_double_linkedINS_21timing_implementationINS_12lpc1114_baseILi4096ELi32768ELi48000000EE8timer_64EEEE5_node5visitENS_15moment_durationIxLx24EE6momentE
	.section	.text._ZN5hwcpp13timing_waiterINS_12lpc1114_baseILi4096ELi32768ELi48000000EE8timer_64EE3nowEv,"axG",%progbits,_ZN5hwcpp13timing_waiterINS_12lpc1114_baseILi4096ELi32768ELi48000000EE8timer_64EE3nowEv,comdat
	.align	1
	.weak	_ZN5hwcpp13timing_waiterINS_12lpc1114_baseILi4096ELi32768ELi48000000EE8timer_64EE3nowEv
	.code	16
	.thumb_func
	.type	_ZN5hwcpp13timing_waiterINS_12lpc1114_baseILi4096ELi32768ELi48000000EE8timer_64EE3nowEv, %function
_ZN5hwcpp13timing_waiterINS_12lpc1114_baseILi4096ELi32768ELi48000000EE8timer_64EE3nowEv:
	ldr	r3, .L5+8
	push	{r4, r5, r6, r7, lr}
	ldr	r4, [r3, #8]
	ldr	r3, .L5+12
	mvn	r4, r4
	ldr	r2, [r3]
	lsl	r4, r4, #8
	lsr	r4, r4, #8
	mov	r5, r3
	ldr	r1, .L5+16
	cmp	r4, r2
	bcs	.L3
	ldr	r6, [r1]
	ldr	r7, [r1, #4]
	ldr	r3, .L5+4
	ldr	r2, .L5
	add	r2, r2, r6
	adc	r3, r3, r7
	str	r2, [r1]
	str	r3, [r1, #4]
.L3:
	ldr	r7, [r1]
	ldr	r1, [r1, #4]
	str	r4, [r5]
	orr	r4, r7
	str	r4, [r0]
	str	r1, [r0, #4]
	@ sp needed
	pop	{r4, r5, r6, r7, pc}
.L6:
	.align	3
.L5:
	.word	16777216
	.word	0
	.word	-536813552
	.word	_ZZN5hwcpp12lpc1114_baseILi4096ELi32768ELi48000000EE8timer_643nowEvE8last_low
	.word	_ZZN5hwcpp12lpc1114_baseILi4096ELi32768ELi48000000EE8timer_643nowEvE4high
	.size	_ZN5hwcpp13timing_waiterINS_12lpc1114_baseILi4096ELi32768ELi48000000EE8timer_64EE3nowEv, .-_ZN5hwcpp13timing_waiterINS_12lpc1114_baseILi4096ELi32768ELi48000000EE8timer_64EE3nowEv
	.section	.text._ZN5hwcpp23callback_implementationINS_12lpc1114_baseILi4096ELi32768ELi48000000EE8timer_64ENS_37callback_administration_double_linkedEE4waitENS_15moment_durationIxLx24EE6momentE,"axG",%progbits,_ZN5hwcpp23callback_implementationINS_12lpc1114_baseILi4096ELi32768ELi48000000EE8timer_64ENS_37callback_administration_double_linkedEE4waitENS_15moment_durationIxLx24EE6momentE,comdat
	.align	1
	.weak	_ZN5hwcpp23callback_implementationINS_12lpc1114_baseILi4096ELi32768ELi48000000EE8timer_64ENS_37callback_administration_double_linkedEE4waitENS_15moment_durationIxLx24EE6momentE
	.code	16
	.thumb_func
	.type	_ZN5hwcpp23callback_implementationINS_12lpc1114_baseILi4096ELi32768ELi48000000EE8timer_64ENS_37callback_administration_double_linkedEE4waitENS_15moment_durationIxLx24EE6momentE, %function
_ZN5hwcpp23callback_implementationINS_12lpc1114_baseILi4096ELi32768ELi48000000EE8timer_64ENS_37callback_administration_double_linkedEE4waitENS_15moment_durationIxLx24EE6momentE:
	push	{r4, r5, r6, r7, lr}
	sub	sp, sp, #28
	str	r0, [sp, #12]
	str	r1, [sp, #8]
.L17:
	add	r0, sp, #16
	bl	_ZN5hwcpp13timing_waiterINS_12lpc1114_baseILi4096ELi32768ELi48000000EE8timer_64EE3nowEv
	ldr	r2, [sp, #16]
	ldr	r3, [sp, #20]
	ldr	r6, [sp, #8]
	str	r2, [sp, #4]
	mov	r5, r3
	cmp	r6, r3
	bgt	.L18
	bne	.L7
	ldr	r7, [sp, #12]
	cmp	r7, r2
	bls	.L7
.L18:
	ldr	r4, .L20
	ldr	r0, [r4]
	cmp	r0, #0
	bne	.L17
	ldr	r7, .L20+4
	mov	r0, #1
	ldr	r6, [r7]
	str	r0, [r4]
	ldr	r1, .L20+8
	tst	r6, r0
	bne	.L11
	ldr	r6, .L20+12
	str	r1, [r1, #4]
	str	r6, [r1]
	str	r1, [r1, #8]
	str	r0, [r7]
.L11:
	ldr	r0, [r1, #4]
.L12:
	cmp	r0, r1
	beq	.L15
	ldr	r7, [r0, #20]
	cmp	r7, r5
	blt	.L19
	bne	.L13
	ldr	r7, [r0, #16]
	ldr	r6, [sp, #4]
	cmp	r7, r6
	bcs	.L13
.L19:
	ldr	r1, [r0]
	ldr	r1, [r1]
	blx	r1
	b	.L15
.L13:
	ldr	r0, [r0, #4]
	b	.L12
.L15:
	ldr	r3, [r4]
	sub	r3, r3, #1
	str	r3, [r4]
	b	.L17
.L7:
	add	sp, sp, #28
	@ sp needed
	pop	{r4, r5, r6, r7, pc}
.L21:
	.align	2
.L20:
	.word	_ZN5hwcpp23callback_implementationINS_12lpc1114_baseILi4096ELi32768ELi48000000EE8timer_64ENS_37callback_administration_double_linkedEE12lock_counterE
	.word	_ZGVZN5hwcpp37callback_administration_double_linkedINS_21timing_implementationINS_12lpc1114_baseILi4096ELi32768ELi48000000EE8timer_64EEEE5_node8root_getEvE5_root
	.word	_ZZN5hwcpp37callback_administration_double_linkedINS_21timing_implementationINS_12lpc1114_baseILi4096ELi32768ELi48000000EE8timer_64EEEE5_node8root_getEvE5_root
	.word	_ZTVN5hwcpp37callback_administration_double_linkedINS_21timing_implementationINS_12lpc1114_baseILi4096ELi32768ELi48000000EE8timer_64EEEE5_nodeE+8
	.size	_ZN5hwcpp23callback_implementationINS_12lpc1114_baseILi4096ELi32768ELi48000000EE8timer_64ENS_37callback_administration_double_linkedEE4waitENS_15moment_durationIxLx24EE6momentE, .-_ZN5hwcpp23callback_implementationINS_12lpc1114_baseILi4096ELi32768ELi48000000EE8timer_64ENS_37callback_administration_double_linkedEE4waitENS_15moment_durationIxLx24EE6momentE
	.section	.text._ZN5hwcpp23callback_implementationINS_12lpc1114_baseILi4096ELi32768ELi48000000EE8timer_64ENS_37callback_administration_double_linkedEE4waitENS_15moment_durationIxLx24EE8durationE,"axG",%progbits,_ZN5hwcpp23callback_implementationINS_12lpc1114_baseILi4096ELi32768ELi48000000EE8timer_64ENS_37callback_administration_double_linkedEE4waitENS_15moment_durationIxLx24EE8durationE,comdat
	.align	1
	.weak	_ZN5hwcpp23callback_implementationINS_12lpc1114_baseILi4096ELi32768ELi48000000EE8timer_64ENS_37callback_administration_double_linkedEE4waitENS_15moment_durationIxLx24EE8durationE
	.code	16
	.thumb_func
	.type	_ZN5hwcpp23callback_implementationINS_12lpc1114_baseILi4096ELi32768ELi48000000EE8timer_64ENS_37callback_administration_double_linkedEE4waitENS_15moment_durationIxLx24EE8durationE, %function
_ZN5hwcpp23callback_implementationINS_12lpc1114_baseILi4096ELi32768ELi48000000EE8timer_64ENS_37callback_administration_double_linkedEE4waitENS_15moment_durationIxLx24EE8durationE:
	push	{r0, r1, r2, r4, r5, lr}
	mov	r5, r1
	mov	r4, r0
	mov	r0, sp
	bl	_ZN5hwcpp13timing_waiterINS_12lpc1114_baseILi4096ELi32768ELi48000000EE8timer_64EE3nowEv
	ldr	r0, [sp]
	ldr	r1, [sp, #4]
	add	r0, r0, r4
	adc	r1, r1, r5
	bl	_ZN5hwcpp23callback_implementationINS_12lpc1114_baseILi4096ELi32768ELi48000000EE8timer_64ENS_37callback_administration_double_linkedEE4waitENS_15moment_durationIxLx24EE6momentE
	@ sp needed
	pop	{r0, r1, r2, r4, r5, pc}
	.size	_ZN5hwcpp23callback_implementationINS_12lpc1114_baseILi4096ELi32768ELi48000000EE8timer_64ENS_37callback_administration_double_linkedEE4waitENS_15moment_durationIxLx24EE8durationE, .-_ZN5hwcpp23callback_implementationINS_12lpc1114_baseILi4096ELi32768ELi48000000EE8timer_64ENS_37callback_administration_double_linkedEE4waitENS_15moment_durationIxLx24EE8durationE
	.section	.text._ZN5hwcpp12lpc1114_baseILi4096ELi32768ELi48000000EE16initialize_clockEv,"axG",%progbits,_ZN5hwcpp12lpc1114_baseILi4096ELi32768ELi48000000EE16initialize_clockEv,comdat
	.align	1
	.weak	_ZN5hwcpp12lpc1114_baseILi4096ELi32768ELi48000000EE16initialize_clockEv
	.code	16
	.thumb_func
	.type	_ZN5hwcpp12lpc1114_baseILi4096ELi32768ELi48000000EE16initialize_clockEv, %function
_ZN5hwcpp12lpc1114_baseILi4096ELi32768ELi48000000EE16initialize_clockEv:
	ldr	r3, .L27
	ldrb	r2, [r3]
	cmp	r2, #0
	bne	.L23
	mov	r2, #1
	strb	r2, [r3]
	ldr	r3, .L27+4
	mov	r2, #142
	lsl	r2, r2, #2
	ldr	r0, [r3, r2]
	mov	r1, #128
	orr	r0, r1
	str	r0, [r3, r2]
	mov	r0, #35
	str	r0, [r3, #8]
	ldr	r0, [r3, r2]
	bic	r0, r1
	str	r0, [r3, r2]
.L26:
	ldr	r0, [r3, #12]
	mov	r1, #1
	ldr	r2, .L27+4
	tst	r0, r1
	beq	.L26
	mov	r3, #3
	str	r3, [r2, #112]
	ldr	r3, [r2, #116]
	bic	r3, r1
	str	r3, [r2, #116]
	ldr	r3, [r2, #116]
	orr	r1, r3
	str	r1, [r2, #116]
.L23:
	@ sp needed
	bx	lr
.L28:
	.align	2
.L27:
	.word	_ZZN5hwcpp12lpc1114_baseILi4096ELi32768ELi48000000EE16initialize_clockEvE4done
	.word	1074036736
	.size	_ZN5hwcpp12lpc1114_baseILi4096ELi32768ELi48000000EE16initialize_clockEv, .-_ZN5hwcpp12lpc1114_baseILi4096ELi32768ELi48000000EE16initialize_clockEv
	.section	.text._ZN5hwcpp3allIINS_12lpc1114_baseILi4096ELi32768ELi48000000EE17pin_in_out_pullupILi0ELi6EEENS_6invertINS3_ILi0ELi7EEEvEENS2_20pin_in_out_ad_pullupILi1ELi0ELi1EEENS5_INS8_ILi1ELi1ELi2EEEvEENS8_ILi1ELi2ELi3EEENS5_INS8_ILi1ELi3ELi4EEEvEENS8_ILi1ELi4ELi5EEENS5_INS3_ILi1ELi5EEEvEENS3_ILi1ELi8EEENS5_INS3_ILi1ELi9EEEvEEEE3setEb,"axG",%progbits,_ZN5hwcpp3allIINS_12lpc1114_baseILi4096ELi32768ELi48000000EE17pin_in_out_pullupILi0ELi6EEENS_6invertINS3_ILi0ELi7EEEvEENS2_20pin_in_out_ad_pullupILi1ELi0ELi1EEENS5_INS8_ILi1ELi1ELi2EEEvEENS8_ILi1ELi2ELi3EEENS5_INS8_ILi1ELi3ELi4EEEvEENS8_ILi1ELi4ELi5EEENS5_INS3_ILi1ELi5EEEvEENS3_ILi1ELi8EEENS5_INS3_ILi1ELi9EEEvEEEE3setEb,comdat
	.align	1
	.weak	_ZN5hwcpp3allIINS_12lpc1114_baseILi4096ELi32768ELi48000000EE17pin_in_out_pullupILi0ELi6EEENS_6invertINS3_ILi0ELi7EEEvEENS2_20pin_in_out_ad_pullupILi1ELi0ELi1EEENS5_INS8_ILi1ELi1ELi2EEEvEENS8_ILi1ELi2ELi3EEENS5_INS8_ILi1ELi3ELi4EEEvEENS8_ILi1ELi4ELi5EEENS5_INS3_ILi1ELi5EEEvEENS3_ILi1ELi8EEENS5_INS3_ILi1ELi9EEEvEEEE3setEb
	.code	16
	.thumb_func
	.type	_ZN5hwcpp3allIINS_12lpc1114_baseILi4096ELi32768ELi48000000EE17pin_in_out_pullupILi0ELi6EEENS_6invertINS3_ILi0ELi7EEEvEENS2_20pin_in_out_ad_pullupILi1ELi0ELi1EEENS5_INS8_ILi1ELi1ELi2EEEvEENS8_ILi1ELi2ELi3EEENS5_INS8_ILi1ELi3ELi4EEEvEENS8_ILi1ELi4ELi5EEENS5_INS3_ILi1ELi5EEEvEENS3_ILi1ELi8EEENS5_INS3_ILi1ELi9EEEvEEEE3setEb, %function
_ZN5hwcpp3allIINS_12lpc1114_baseILi4096ELi32768ELi48000000EE17pin_in_out_pullupILi0ELi6EEENS_6invertINS3_ILi0ELi7EEEvEENS2_20pin_in_out_ad_pullupILi1ELi0ELi1EEENS5_INS8_ILi1ELi1ELi2EEEvEENS8_ILi1ELi2ELi3EEENS5_INS8_ILi1ELi3ELi4EEEvEENS8_ILi1ELi4ELi5EEENS5_INS3_ILi1ELi5EEEvEENS3_ILi1ELi8EEENS5_INS3_ILi1ELi9EEEvEEEE3setEb:
	ldr	r2, .L30
	neg	r3, r0
	str	r3, [r2]
	mov	r2, #1
	eor	r0, r2
	ldr	r2, .L30+4
	neg	r0, r0
	str	r0, [r2]
	ldr	r2, .L30+8
	@ sp needed
	str	r3, [r2]
	ldr	r2, .L30+12
	str	r0, [r2]
	ldr	r2, .L30+16
	str	r3, [r2]
	ldr	r2, .L30+20
	str	r0, [r2]
	ldr	r2, .L30+24
	str	r3, [r2]
	ldr	r2, .L30+28
	str	r0, [r2]
	ldr	r2, .L30+32
	str	r3, [r2]
	ldr	r3, .L30+36
	str	r0, [r3]
	bx	lr
.L31:
	.align	2
.L30:
	.word	1342177536
	.word	1342177792
	.word	1342242820
	.word	1342242824
	.word	1342242832
	.word	1342242848
	.word	1342242880
	.word	1342242944
	.word	1342243840
	.word	1342244864
	.size	_ZN5hwcpp3allIINS_12lpc1114_baseILi4096ELi32768ELi48000000EE17pin_in_out_pullupILi0ELi6EEENS_6invertINS3_ILi0ELi7EEEvEENS2_20pin_in_out_ad_pullupILi1ELi0ELi1EEENS5_INS8_ILi1ELi1ELi2EEEvEENS8_ILi1ELi2ELi3EEENS5_INS8_ILi1ELi3ELi4EEEvEENS8_ILi1ELi4ELi5EEENS5_INS3_ILi1ELi5EEEvEENS3_ILi1ELi8EEENS5_INS3_ILi1ELi9EEEvEEEE3setEb, .-_ZN5hwcpp3allIINS_12lpc1114_baseILi4096ELi32768ELi48000000EE17pin_in_out_pullupILi0ELi6EEENS_6invertINS3_ILi0ELi7EEEvEENS2_20pin_in_out_ad_pullupILi1ELi0ELi1EEENS5_INS8_ILi1ELi1ELi2EEEvEENS8_ILi1ELi2ELi3EEENS5_INS8_ILi1ELi3ELi4EEEvEENS8_ILi1ELi4ELi5EEENS5_INS3_ILi1ELi5EEEvEENS3_ILi1ELi8EEENS5_INS3_ILi1ELi9EEEvEEEE3setEb
	.weak	_ZN5hwcpp3allIJNS_12lpc1114_baseILi4096ELi32768ELi48000000EE17pin_in_out_pullupILi0ELi6EEENS_6invertINS3_ILi0ELi7EEEvEENS2_20pin_in_out_ad_pullupILi1ELi0ELi1EEENS5_INS8_ILi1ELi1ELi2EEEvEENS8_ILi1ELi2ELi3EEENS5_INS8_ILi1ELi3ELi4EEEvEENS8_ILi1ELi4ELi5EEENS5_INS3_ILi1ELi5EEEvEENS3_ILi1ELi8EEENS5_INS3_ILi1ELi9EEEvEEEE3setEb
	.thumb_set _ZN5hwcpp3allIJNS_12lpc1114_baseILi4096ELi32768ELi48000000EE17pin_in_out_pullupILi0ELi6EEENS_6invertINS3_ILi0ELi7EEEvEENS2_20pin_in_out_ad_pullupILi1ELi0ELi1EEENS5_INS8_ILi1ELi1ELi2EEEvEENS8_ILi1ELi2ELi3EEENS5_INS8_ILi1ELi3ELi4EEEvEENS8_ILi1ELi4ELi5EEENS5_INS3_ILi1ELi5EEEvEENS3_ILi1ELi8EEENS5_INS3_ILi1ELi9EEEvEEEE3setEb,_ZN5hwcpp3allIINS_12lpc1114_baseILi4096ELi32768ELi48000000EE17pin_in_out_pullupILi0ELi6EEENS_6invertINS3_ILi0ELi7EEEvEENS2_20pin_in_out_ad_pullupILi1ELi0ELi1EEENS5_INS8_ILi1ELi1ELi2EEEvEENS8_ILi1ELi2ELi3EEENS5_INS8_ILi1ELi3ELi4EEEvEENS8_ILi1ELi4ELi5EEENS5_INS3_ILi1ELi5EEEvEENS3_ILi1ELi8EEENS5_INS3_ILi1ELi9EEEvEEEE3setEb
	.section	.text._ZN5hwcpp3allIINS_6invertINS_12lpc1114_baseILi4096ELi32768ELi48000000EE6pin_ocILi0ELi5EEEvEENS3_17pin_in_out_pullupILi0ELi6EEENS1_INS7_ILi0ELi7EEEvEENS3_20pin_in_out_ad_pullupILi1ELi0ELi1EEENS1_INSB_ILi1ELi1ELi2EEEvEENSB_ILi1ELi2ELi3EEENS1_INSB_ILi1ELi3ELi4EEEvEENSB_ILi1ELi4ELi5EEENS1_INS7_ILi1ELi5EEEvEENS7_ILi1ELi8EEENS1_INS7_ILi1ELi9EEEvEEEE3setEb,"axG",%progbits,_ZN5hwcpp3allIINS_6invertINS_12lpc1114_baseILi4096ELi32768ELi48000000EE6pin_ocILi0ELi5EEEvEENS3_17pin_in_out_pullupILi0ELi6EEENS1_INS7_ILi0ELi7EEEvEENS3_20pin_in_out_ad_pullupILi1ELi0ELi1EEENS1_INSB_ILi1ELi1ELi2EEEvEENSB_ILi1ELi2ELi3EEENS1_INSB_ILi1ELi3ELi4EEEvEENSB_ILi1ELi4ELi5EEENS1_INS7_ILi1ELi5EEEvEENS7_ILi1ELi8EEENS1_INS7_ILi1ELi9EEEvEEEE3setEb,comdat
	.align	1
	.weak	_ZN5hwcpp3allIINS_6invertINS_12lpc1114_baseILi4096ELi32768ELi48000000EE6pin_ocILi0ELi5EEEvEENS3_17pin_in_out_pullupILi0ELi6EEENS1_INS7_ILi0ELi7EEEvEENS3_20pin_in_out_ad_pullupILi1ELi0ELi1EEENS1_INSB_ILi1ELi1ELi2EEEvEENSB_ILi1ELi2ELi3EEENS1_INSB_ILi1ELi3ELi4EEEvEENSB_ILi1ELi4ELi5EEENS1_INS7_ILi1ELi5EEEvEENS7_ILi1ELi8EEENS1_INS7_ILi1ELi9EEEvEEEE3setEb
	.code	16
	.thumb_func
	.type	_ZN5hwcpp3allIINS_6invertINS_12lpc1114_baseILi4096ELi32768ELi48000000EE6pin_ocILi0ELi5EEEvEENS3_17pin_in_out_pullupILi0ELi6EEENS1_INS7_ILi0ELi7EEEvEENS3_20pin_in_out_ad_pullupILi1ELi0ELi1EEENS1_INSB_ILi1ELi1ELi2EEEvEENSB_ILi1ELi2ELi3EEENS1_INSB_ILi1ELi3ELi4EEEvEENSB_ILi1ELi4ELi5EEENS1_INS7_ILi1ELi5EEEvEENS7_ILi1ELi8EEENS1_INS7_ILi1ELi9EEEvEEEE3setEb, %function
_ZN5hwcpp3allIINS_6invertINS_12lpc1114_baseILi4096ELi32768ELi48000000EE6pin_ocILi0ELi5EEEvEENS3_17pin_in_out_pullupILi0ELi6EEENS1_INS7_ILi0ELi7EEEvEENS3_20pin_in_out_ad_pullupILi1ELi0ELi1EEENS1_INSB_ILi1ELi1ELi2EEEvEENSB_ILi1ELi2ELi3EEENS1_INSB_ILi1ELi3ELi4EEEvEENSB_ILi1ELi4ELi5EEENS1_INS7_ILi1ELi5EEEvEENS7_ILi1ELi8EEENS1_INS7_ILi1ELi9EEEvEEEE3setEb:
	push	{r3, lr}
	ldr	r3, .L36
	mov	r2, #32
	ldr	r1, [r3]
	cmp	r0, #0
	bne	.L33
	bic	r1, r2
	mov	r2, r1
	b	.L35
.L33:
	orr	r2, r1
	str	r2, [r3]
	ldr	r3, .L36+4
	mov	r2, #0
.L35:
	str	r2, [r3]
	bl	_ZN5hwcpp3allIINS_12lpc1114_baseILi4096ELi32768ELi48000000EE17pin_in_out_pullupILi0ELi6EEENS_6invertINS3_ILi0ELi7EEEvEENS2_20pin_in_out_ad_pullupILi1ELi0ELi1EEENS5_INS8_ILi1ELi1ELi2EEEvEENS8_ILi1ELi2ELi3EEENS5_INS8_ILi1ELi3ELi4EEEvEENS8_ILi1ELi4ELi5EEENS5_INS3_ILi1ELi5EEEvEENS3_ILi1ELi8EEENS5_INS3_ILi1ELi9EEEvEEEE3setEb
	@ sp needed
	pop	{r3, pc}
.L37:
	.align	2
.L36:
	.word	1342210048
	.word	1342177408
	.size	_ZN5hwcpp3allIINS_6invertINS_12lpc1114_baseILi4096ELi32768ELi48000000EE6pin_ocILi0ELi5EEEvEENS3_17pin_in_out_pullupILi0ELi6EEENS1_INS7_ILi0ELi7EEEvEENS3_20pin_in_out_ad_pullupILi1ELi0ELi1EEENS1_INSB_ILi1ELi1ELi2EEEvEENSB_ILi1ELi2ELi3EEENS1_INSB_ILi1ELi3ELi4EEEvEENSB_ILi1ELi4ELi5EEENS1_INS7_ILi1ELi5EEEvEENS7_ILi1ELi8EEENS1_INS7_ILi1ELi9EEEvEEEE3setEb, .-_ZN5hwcpp3allIINS_6invertINS_12lpc1114_baseILi4096ELi32768ELi48000000EE6pin_ocILi0ELi5EEEvEENS3_17pin_in_out_pullupILi0ELi6EEENS1_INS7_ILi0ELi7EEEvEENS3_20pin_in_out_ad_pullupILi1ELi0ELi1EEENS1_INSB_ILi1ELi1ELi2EEEvEENSB_ILi1ELi2ELi3EEENS1_INSB_ILi1ELi3ELi4EEEvEENSB_ILi1ELi4ELi5EEENS1_INS7_ILi1ELi5EEEvEENS7_ILi1ELi8EEENS1_INS7_ILi1ELi9EEEvEEEE3setEb
	.weak	_ZN5hwcpp3allIJNS_6invertINS_12lpc1114_baseILi4096ELi32768ELi48000000EE6pin_ocILi0ELi5EEEvEENS3_17pin_in_out_pullupILi0ELi6EEENS1_INS7_ILi0ELi7EEEvEENS3_20pin_in_out_ad_pullupILi1ELi0ELi1EEENS1_INSB_ILi1ELi1ELi2EEEvEENSB_ILi1ELi2ELi3EEENS1_INSB_ILi1ELi3ELi4EEEvEENSB_ILi1ELi4ELi5EEENS1_INS7_ILi1ELi5EEEvEENS7_ILi1ELi8EEENS1_INS7_ILi1ELi9EEEvEEEE3setEb
	.thumb_set _ZN5hwcpp3allIJNS_6invertINS_12lpc1114_baseILi4096ELi32768ELi48000000EE6pin_ocILi0ELi5EEEvEENS3_17pin_in_out_pullupILi0ELi6EEENS1_INS7_ILi0ELi7EEEvEENS3_20pin_in_out_ad_pullupILi1ELi0ELi1EEENS1_INSB_ILi1ELi1ELi2EEEvEENSB_ILi1ELi2ELi3EEENS1_INSB_ILi1ELi3ELi4EEEvEENSB_ILi1ELi4ELi5EEENS1_INS7_ILi1ELi5EEEvEENS7_ILi1ELi8EEENS1_INS7_ILi1ELi9EEEvEEEE3setEb,_ZN5hwcpp3allIINS_6invertINS_12lpc1114_baseILi4096ELi32768ELi48000000EE6pin_ocILi0ELi5EEEvEENS3_17pin_in_out_pullupILi0ELi6EEENS1_INS7_ILi0ELi7EEEvEENS3_20pin_in_out_ad_pullupILi1ELi0ELi1EEENS1_INSB_ILi1ELi1ELi2EEEvEENSB_ILi1ELi2ELi3EEENS1_INSB_ILi1ELi3ELi4EEEvEENSB_ILi1ELi4ELi5EEENS1_INS7_ILi1ELi5EEEvEENS7_ILi1ELi8EEENS1_INS7_ILi1ELi9EEEvEEEE3setEb
	.section	.text._ZN5hwcpp3allIINS_6invertINS_12lpc1114_baseILi4096ELi32768ELi48000000EE17pin_in_out_pullupILi1ELi5EEEvEENS4_ILi1ELi8EEENS1_INS4_ILi1ELi9EEEvEEEE4initEv,"axG",%progbits,_ZN5hwcpp3allIINS_6invertINS_12lpc1114_baseILi4096ELi32768ELi48000000EE17pin_in_out_pullupILi1ELi5EEEvEENS4_ILi1ELi8EEENS1_INS4_ILi1ELi9EEEvEEEE4initEv,comdat
	.align	1
	.weak	_ZN5hwcpp3allIINS_6invertINS_12lpc1114_baseILi4096ELi32768ELi48000000EE17pin_in_out_pullupILi1ELi5EEEvEENS4_ILi1ELi8EEENS1_INS4_ILi1ELi9EEEvEEEE4initEv
	.code	16
	.thumb_func
	.type	_ZN5hwcpp3allIINS_6invertINS_12lpc1114_baseILi4096ELi32768ELi48000000EE17pin_in_out_pullupILi1ELi5EEEvEENS4_ILi1ELi8EEENS1_INS4_ILi1ELi9EEEvEEEE4initEv, %function
_ZN5hwcpp3allIINS_6invertINS_12lpc1114_baseILi4096ELi32768ELi48000000EE17pin_in_out_pullupILi1ELi5EEEvEENS4_ILi1ELi8EEENS1_INS4_ILi1ELi9EEEvEEEE4initEv:
	ldr	r2, .L39
	mov	r0, #128
	ldr	r3, [r2, #124]
	lsl	r0, r0, #9
	orr	r3, r0
	push	{r4, r5, lr}
	str	r3, [r2, #124]
	ldr	r3, .L39+4
	mov	r1, #7
	ldr	r4, [r3]
	mov	r5, #32
	bic	r4, r1
	str	r4, [r3]
	ldr	r3, .L39+8
	@ sp needed
	ldr	r4, [r3]
	orr	r4, r5
	str	r4, [r3]
	ldr	r4, [r2, #124]
	orr	r4, r0
	str	r4, [r2, #124]
	ldr	r4, .L39+12
	ldr	r5, [r4]
	bic	r5, r1
	str	r5, [r4]
	ldr	r5, [r3]
	mov	r4, #128
	lsl	r4, r4, #1
	orr	r4, r5
	str	r4, [r3]
	ldr	r4, [r2, #124]
	orr	r0, r4
	str	r0, [r2, #124]
	ldr	r2, .L39+16
	ldr	r0, [r2]
	bic	r0, r1
	str	r0, [r2]
	ldr	r1, [r3]
	mov	r2, #128
	lsl	r2, r2, #2
	orr	r2, r1
	str	r2, [r3]
	pop	{r4, r5, pc}
.L40:
	.align	2
.L39:
	.word	1074036740
	.word	1074020512
	.word	1342275584
	.word	1074020372
	.word	1074020408
	.size	_ZN5hwcpp3allIINS_6invertINS_12lpc1114_baseILi4096ELi32768ELi48000000EE17pin_in_out_pullupILi1ELi5EEEvEENS4_ILi1ELi8EEENS1_INS4_ILi1ELi9EEEvEEEE4initEv, .-_ZN5hwcpp3allIINS_6invertINS_12lpc1114_baseILi4096ELi32768ELi48000000EE17pin_in_out_pullupILi1ELi5EEEvEENS4_ILi1ELi8EEENS1_INS4_ILi1ELi9EEEvEEEE4initEv
	.weak	_ZN5hwcpp3allIJNS_6invertINS_12lpc1114_baseILi4096ELi32768ELi48000000EE17pin_in_out_pullupILi1ELi5EEEvEENS4_ILi1ELi8EEENS1_INS4_ILi1ELi9EEEvEEEE4initEv
	.thumb_set _ZN5hwcpp3allIJNS_6invertINS_12lpc1114_baseILi4096ELi32768ELi48000000EE17pin_in_out_pullupILi1ELi5EEEvEENS4_ILi1ELi8EEENS1_INS4_ILi1ELi9EEEvEEEE4initEv,_ZN5hwcpp3allIINS_6invertINS_12lpc1114_baseILi4096ELi32768ELi48000000EE17pin_in_out_pullupILi1ELi5EEEvEENS4_ILi1ELi8EEENS1_INS4_ILi1ELi9EEEvEEEE4initEv
	.section	.text._ZN5hwcpp3allIINS_6invertINS_12lpc1114_baseILi4096ELi32768ELi48000000EE20pin_in_out_ad_pullupILi1ELi3ELi4EEEvEENS4_ILi1ELi4ELi5EEENS1_INS3_17pin_in_out_pullupILi1ELi5EEEvEENS8_ILi1ELi8EEENS1_INS8_ILi1ELi9EEEvEEEE4initEv,"axG",%progbits,_ZN5hwcpp3allIINS_6invertINS_12lpc1114_baseILi4096ELi32768ELi48000000EE20pin_in_out_ad_pullupILi1ELi3ELi4EEEvEENS4_ILi1ELi4ELi5EEENS1_INS3_17pin_in_out_pullupILi1ELi5EEEvEENS8_ILi1ELi8EEENS1_INS8_ILi1ELi9EEEvEEEE4initEv,comdat
	.align	1
	.weak	_ZN5hwcpp3allIINS_6invertINS_12lpc1114_baseILi4096ELi32768ELi48000000EE20pin_in_out_ad_pullupILi1ELi3ELi4EEEvEENS4_ILi1ELi4ELi5EEENS1_INS3_17pin_in_out_pullupILi1ELi5EEEvEENS8_ILi1ELi8EEENS1_INS8_ILi1ELi9EEEvEEEE4initEv
	.code	16
	.thumb_func
	.type	_ZN5hwcpp3allIINS_6invertINS_12lpc1114_baseILi4096ELi32768ELi48000000EE20pin_in_out_ad_pullupILi1ELi3ELi4EEEvEENS4_ILi1ELi4ELi5EEENS1_INS3_17pin_in_out_pullupILi1ELi5EEEvEENS8_ILi1ELi8EEENS1_INS8_ILi1ELi9EEEvEEEE4initEv, %function
_ZN5hwcpp3allIINS_6invertINS_12lpc1114_baseILi4096ELi32768ELi48000000EE20pin_in_out_ad_pullupILi1ELi3ELi4EEEvEENS4_ILi1ELi4ELi5EEENS1_INS3_17pin_in_out_pullupILi1ELi5EEEvEENS8_ILi1ELi8EEENS1_INS8_ILi1ELi9EEEvEEEE4initEv:
	ldr	r2, .L42
	push	{r3, r4, r5, lr}
	mov	r0, #128
	ldr	r3, [r2, #124]
	lsl	r0, r0, #9
	orr	r3, r0
	str	r3, [r2, #124]
	ldr	r3, .L42+4
	mov	r1, #7
	ldr	r4, [r3]
	mov	r5, #129
	bic	r4, r1
	orr	r4, r5
	str	r4, [r3]
	ldr	r3, .L42+8
	mov	r5, #8
	ldr	r4, [r3]
	@ sp needed
	orr	r4, r5
	str	r4, [r3]
	ldr	r4, [r2, #124]
	orr	r0, r4
	str	r0, [r2, #124]
	ldr	r2, .L42+12
	ldr	r0, [r2]
	bic	r0, r1
	mov	r1, r0
	mov	r0, #128
	orr	r1, r0
	str	r1, [r2]
	ldr	r2, [r3]
	mov	r1, #16
	orr	r2, r1
	str	r2, [r3]
	bl	_ZN5hwcpp3allIINS_6invertINS_12lpc1114_baseILi4096ELi32768ELi48000000EE17pin_in_out_pullupILi1ELi5EEEvEENS4_ILi1ELi8EEENS1_INS4_ILi1ELi9EEEvEEEE4initEv
	pop	{r3, r4, r5, pc}
.L43:
	.align	2
.L42:
	.word	1074036740
	.word	1074020496
	.word	1342275584
	.word	1074020500
	.size	_ZN5hwcpp3allIINS_6invertINS_12lpc1114_baseILi4096ELi32768ELi48000000EE20pin_in_out_ad_pullupILi1ELi3ELi4EEEvEENS4_ILi1ELi4ELi5EEENS1_INS3_17pin_in_out_pullupILi1ELi5EEEvEENS8_ILi1ELi8EEENS1_INS8_ILi1ELi9EEEvEEEE4initEv, .-_ZN5hwcpp3allIINS_6invertINS_12lpc1114_baseILi4096ELi32768ELi48000000EE20pin_in_out_ad_pullupILi1ELi3ELi4EEEvEENS4_ILi1ELi4ELi5EEENS1_INS3_17pin_in_out_pullupILi1ELi5EEEvEENS8_ILi1ELi8EEENS1_INS8_ILi1ELi9EEEvEEEE4initEv
	.weak	_ZN5hwcpp3allIJNS_6invertINS_12lpc1114_baseILi4096ELi32768ELi48000000EE20pin_in_out_ad_pullupILi1ELi3ELi4EEEvEENS4_ILi1ELi4ELi5EEENS1_INS3_17pin_in_out_pullupILi1ELi5EEEvEENS8_ILi1ELi8EEENS1_INS8_ILi1ELi9EEEvEEEE4initEv
	.thumb_set _ZN5hwcpp3allIJNS_6invertINS_12lpc1114_baseILi4096ELi32768ELi48000000EE20pin_in_out_ad_pullupILi1ELi3ELi4EEEvEENS4_ILi1ELi4ELi5EEENS1_INS3_17pin_in_out_pullupILi1ELi5EEEvEENS8_ILi1ELi8EEENS1_INS8_ILi1ELi9EEEvEEEE4initEv,_ZN5hwcpp3allIINS_6invertINS_12lpc1114_baseILi4096ELi32768ELi48000000EE20pin_in_out_ad_pullupILi1ELi3ELi4EEEvEENS4_ILi1ELi4ELi5EEENS1_INS3_17pin_in_out_pullupILi1ELi5EEEvEENS8_ILi1ELi8EEENS1_INS8_ILi1ELi9EEEvEEEE4initEv
	.section	.text._ZN5hwcpp3allIINS_6invertINS_12lpc1114_baseILi4096ELi32768ELi48000000EE20pin_in_out_ad_pullupILi1ELi1ELi2EEEvEENS4_ILi1ELi2ELi3EEENS1_INS4_ILi1ELi3ELi4EEEvEENS4_ILi1ELi4ELi5EEENS1_INS3_17pin_in_out_pullupILi1ELi5EEEvEENSB_ILi1ELi8EEENS1_INSB_ILi1ELi9EEEvEEEE4initEv,"axG",%progbits,_ZN5hwcpp3allIINS_6invertINS_12lpc1114_baseILi4096ELi32768ELi48000000EE20pin_in_out_ad_pullupILi1ELi1ELi2EEEvEENS4_ILi1ELi2ELi3EEENS1_INS4_ILi1ELi3ELi4EEEvEENS4_ILi1ELi4ELi5EEENS1_INS3_17pin_in_out_pullupILi1ELi5EEEvEENSB_ILi1ELi8EEENS1_INSB_ILi1ELi9EEEvEEEE4initEv,comdat
	.align	1
	.weak	_ZN5hwcpp3allIINS_6invertINS_12lpc1114_baseILi4096ELi32768ELi48000000EE20pin_in_out_ad_pullupILi1ELi1ELi2EEEvEENS4_ILi1ELi2ELi3EEENS1_INS4_ILi1ELi3ELi4EEEvEENS4_ILi1ELi4ELi5EEENS1_INS3_17pin_in_out_pullupILi1ELi5EEEvEENSB_ILi1ELi8EEENS1_INSB_ILi1ELi9EEEvEEEE4initEv
	.code	16
	.thumb_func
	.type	_ZN5hwcpp3allIINS_6invertINS_12lpc1114_baseILi4096ELi32768ELi48000000EE20pin_in_out_ad_pullupILi1ELi1ELi2EEEvEENS4_ILi1ELi2ELi3EEENS1_INS4_ILi1ELi3ELi4EEEvEENS4_ILi1ELi4ELi5EEENS1_INS3_17pin_in_out_pullupILi1ELi5EEEvEENSB_ILi1ELi8EEENS1_INSB_ILi1ELi9EEEvEEEE4initEv, %function
_ZN5hwcpp3allIINS_6invertINS_12lpc1114_baseILi4096ELi32768ELi48000000EE20pin_in_out_ad_pullupILi1ELi1ELi2EEEvEENS4_ILi1ELi2ELi3EEENS1_INS4_ILi1ELi3ELi4EEEvEENS4_ILi1ELi4ELi5EEENS1_INS3_17pin_in_out_pullupILi1ELi5EEEvEENSB_ILi1ELi8EEENS1_INSB_ILi1ELi9EEEvEEEE4initEv:
	ldr	r2, .L45
	push	{r4, r5, r6, lr}
	ldr	r3, [r2, #124]
	mov	r4, #128
	lsl	r4, r4, #9
	orr	r3, r4
	str	r3, [r2, #124]
	ldr	r3, .L45+4
	mov	r0, #7
	ldr	r5, [r3]
	mov	r1, #129
	bic	r5, r0
	orr	r5, r1
	str	r5, [r3]
	ldr	r3, .L45+8
	mov	r6, #2
	ldr	r5, [r3]
	@ sp needed
	orr	r5, r6
	str	r5, [r3]
	ldr	r5, [r2, #124]
	orr	r4, r5
	str	r4, [r2, #124]
	ldr	r2, .L45+12
	ldr	r4, [r2]
	bic	r4, r0
	orr	r1, r4
	str	r1, [r2]
	ldr	r2, [r3]
	mov	r1, #4
	orr	r2, r1
	str	r2, [r3]
	bl	_ZN5hwcpp3allIINS_6invertINS_12lpc1114_baseILi4096ELi32768ELi48000000EE20pin_in_out_ad_pullupILi1ELi3ELi4EEEvEENS4_ILi1ELi4ELi5EEENS1_INS3_17pin_in_out_pullupILi1ELi5EEEvEENS8_ILi1ELi8EEENS1_INS8_ILi1ELi9EEEvEEEE4initEv
	pop	{r4, r5, r6, pc}
.L46:
	.align	2
.L45:
	.word	1074036740
	.word	1074020476
	.word	1342275584
	.word	1074020480
	.size	_ZN5hwcpp3allIINS_6invertINS_12lpc1114_baseILi4096ELi32768ELi48000000EE20pin_in_out_ad_pullupILi1ELi1ELi2EEEvEENS4_ILi1ELi2ELi3EEENS1_INS4_ILi1ELi3ELi4EEEvEENS4_ILi1ELi4ELi5EEENS1_INS3_17pin_in_out_pullupILi1ELi5EEEvEENSB_ILi1ELi8EEENS1_INSB_ILi1ELi9EEEvEEEE4initEv, .-_ZN5hwcpp3allIINS_6invertINS_12lpc1114_baseILi4096ELi32768ELi48000000EE20pin_in_out_ad_pullupILi1ELi1ELi2EEEvEENS4_ILi1ELi2ELi3EEENS1_INS4_ILi1ELi3ELi4EEEvEENS4_ILi1ELi4ELi5EEENS1_INS3_17pin_in_out_pullupILi1ELi5EEEvEENSB_ILi1ELi8EEENS1_INSB_ILi1ELi9EEEvEEEE4initEv
	.weak	_ZN5hwcpp3allIJNS_6invertINS_12lpc1114_baseILi4096ELi32768ELi48000000EE20pin_in_out_ad_pullupILi1ELi1ELi2EEEvEENS4_ILi1ELi2ELi3EEENS1_INS4_ILi1ELi3ELi4EEEvEENS4_ILi1ELi4ELi5EEENS1_INS3_17pin_in_out_pullupILi1ELi5EEEvEENSB_ILi1ELi8EEENS1_INSB_ILi1ELi9EEEvEEEE4initEv
	.thumb_set _ZN5hwcpp3allIJNS_6invertINS_12lpc1114_baseILi4096ELi32768ELi48000000EE20pin_in_out_ad_pullupILi1ELi1ELi2EEEvEENS4_ILi1ELi2ELi3EEENS1_INS4_ILi1ELi3ELi4EEEvEENS4_ILi1ELi4ELi5EEENS1_INS3_17pin_in_out_pullupILi1ELi5EEEvEENSB_ILi1ELi8EEENS1_INSB_ILi1ELi9EEEvEEEE4initEv,_ZN5hwcpp3allIINS_6invertINS_12lpc1114_baseILi4096ELi32768ELi48000000EE20pin_in_out_ad_pullupILi1ELi1ELi2EEEvEENS4_ILi1ELi2ELi3EEENS1_INS4_ILi1ELi3ELi4EEEvEENS4_ILi1ELi4ELi5EEENS1_INS3_17pin_in_out_pullupILi1ELi5EEEvEENSB_ILi1ELi8EEENS1_INSB_ILi1ELi9EEEvEEEE4initEv
	.section	.text._ZN5hwcpp3allIINS_12lpc1114_baseILi4096ELi32768ELi48000000EE17pin_in_out_pullupILi0ELi6EEENS_6invertINS3_ILi0ELi7EEEvEENS2_20pin_in_out_ad_pullupILi1ELi0ELi1EEENS5_INS8_ILi1ELi1ELi2EEEvEENS8_ILi1ELi2ELi3EEENS5_INS8_ILi1ELi3ELi4EEEvEENS8_ILi1ELi4ELi5EEENS5_INS3_ILi1ELi5EEEvEENS3_ILi1ELi8EEENS5_INS3_ILi1ELi9EEEvEEEE4initEv,"axG",%progbits,_ZN5hwcpp3allIINS_12lpc1114_baseILi4096ELi32768ELi48000000EE17pin_in_out_pullupILi0ELi6EEENS_6invertINS3_ILi0ELi7EEEvEENS2_20pin_in_out_ad_pullupILi1ELi0ELi1EEENS5_INS8_ILi1ELi1ELi2EEEvEENS8_ILi1ELi2ELi3EEENS5_INS8_ILi1ELi3ELi4EEEvEENS8_ILi1ELi4ELi5EEENS5_INS3_ILi1ELi5EEEvEENS3_ILi1ELi8EEENS5_INS3_ILi1ELi9EEEvEEEE4initEv,comdat
	.align	1
	.weak	_ZN5hwcpp3allIINS_12lpc1114_baseILi4096ELi32768ELi48000000EE17pin_in_out_pullupILi0ELi6EEENS_6invertINS3_ILi0ELi7EEEvEENS2_20pin_in_out_ad_pullupILi1ELi0ELi1EEENS5_INS8_ILi1ELi1ELi2EEEvEENS8_ILi1ELi2ELi3EEENS5_INS8_ILi1ELi3ELi4EEEvEENS8_ILi1ELi4ELi5EEENS5_INS3_ILi1ELi5EEEvEENS3_ILi1ELi8EEENS5_INS3_ILi1ELi9EEEvEEEE4initEv
	.code	16
	.thumb_func
	.type	_ZN5hwcpp3allIINS_12lpc1114_baseILi4096ELi32768ELi48000000EE17pin_in_out_pullupILi0ELi6EEENS_6invertINS3_ILi0ELi7EEEvEENS2_20pin_in_out_ad_pullupILi1ELi0ELi1EEENS5_INS8_ILi1ELi1ELi2EEEvEENS8_ILi1ELi2ELi3EEENS5_INS8_ILi1ELi3ELi4EEEvEENS8_ILi1ELi4ELi5EEENS5_INS3_ILi1ELi5EEEvEENS3_ILi1ELi8EEENS5_INS3_ILi1ELi9EEEvEEEE4initEv, %function
_ZN5hwcpp3allIINS_12lpc1114_baseILi4096ELi32768ELi48000000EE17pin_in_out_pullupILi0ELi6EEENS_6invertINS3_ILi0ELi7EEEvEENS2_20pin_in_out_ad_pullupILi1ELi0ELi1EEENS5_INS8_ILi1ELi1ELi2EEEvEENS8_ILi1ELi2ELi3EEENS5_INS8_ILi1ELi3ELi4EEEvEENS8_ILi1ELi4ELi5EEENS5_INS3_ILi1ELi5EEEvEENS3_ILi1ELi8EEENS5_INS3_ILi1ELi9EEEvEEEE4initEv:
	push	{r3, r4, r5, lr}
	ldr	r3, .L48
	mov	r0, #128
	ldr	r2, [r3, #124]
	lsl	r0, r0, #9
	orr	r2, r0
	str	r2, [r3, #124]
	ldr	r2, .L48+4
	mov	r1, #7
	ldr	r4, [r2]
	mov	r5, #64
	bic	r4, r1
	str	r4, [r2]
	ldr	r2, .L48+8
	@ sp needed
	ldr	r4, [r2]
	orr	r4, r5
	str	r4, [r2]
	ldr	r4, [r3, #124]
	orr	r4, r0
	str	r4, [r3, #124]
	ldr	r4, .L48+12
	ldr	r5, [r4]
	bic	r5, r1
	str	r5, [r4]
	ldr	r4, [r2]
	mov	r5, #128
	orr	r4, r5
	str	r4, [r2]
	ldr	r2, [r3, #124]
	orr	r0, r2
	str	r0, [r3, #124]
	ldr	r3, .L48+16
	ldr	r2, [r3]
	bic	r2, r1
	mov	r1, #129
	orr	r2, r1
	str	r2, [r3]
	ldr	r3, .L48+20
	mov	r1, #1
	ldr	r2, [r3]
	orr	r2, r1
	str	r2, [r3]
	bl	_ZN5hwcpp3allIINS_6invertINS_12lpc1114_baseILi4096ELi32768ELi48000000EE20pin_in_out_ad_pullupILi1ELi1ELi2EEEvEENS4_ILi1ELi2ELi3EEENS1_INS4_ILi1ELi3ELi4EEEvEENS4_ILi1ELi4ELi5EEENS1_INS3_17pin_in_out_pullupILi1ELi5EEEvEENSB_ILi1ELi8EEENS1_INSB_ILi1ELi9EEEvEEEE4initEv
	pop	{r3, r4, r5, pc}
.L49:
	.align	2
.L48:
	.word	1074036740
	.word	1074020428
	.word	1342210048
	.word	1074020432
	.word	1074020472
	.word	1342275584
	.size	_ZN5hwcpp3allIINS_12lpc1114_baseILi4096ELi32768ELi48000000EE17pin_in_out_pullupILi0ELi6EEENS_6invertINS3_ILi0ELi7EEEvEENS2_20pin_in_out_ad_pullupILi1ELi0ELi1EEENS5_INS8_ILi1ELi1ELi2EEEvEENS8_ILi1ELi2ELi3EEENS5_INS8_ILi1ELi3ELi4EEEvEENS8_ILi1ELi4ELi5EEENS5_INS3_ILi1ELi5EEEvEENS3_ILi1ELi8EEENS5_INS3_ILi1ELi9EEEvEEEE4initEv, .-_ZN5hwcpp3allIINS_12lpc1114_baseILi4096ELi32768ELi48000000EE17pin_in_out_pullupILi0ELi6EEENS_6invertINS3_ILi0ELi7EEEvEENS2_20pin_in_out_ad_pullupILi1ELi0ELi1EEENS5_INS8_ILi1ELi1ELi2EEEvEENS8_ILi1ELi2ELi3EEENS5_INS8_ILi1ELi3ELi4EEEvEENS8_ILi1ELi4ELi5EEENS5_INS3_ILi1ELi5EEEvEENS3_ILi1ELi8EEENS5_INS3_ILi1ELi9EEEvEEEE4initEv
	.weak	_ZN5hwcpp3allIJNS_12lpc1114_baseILi4096ELi32768ELi48000000EE17pin_in_out_pullupILi0ELi6EEENS_6invertINS3_ILi0ELi7EEEvEENS2_20pin_in_out_ad_pullupILi1ELi0ELi1EEENS5_INS8_ILi1ELi1ELi2EEEvEENS8_ILi1ELi2ELi3EEENS5_INS8_ILi1ELi3ELi4EEEvEENS8_ILi1ELi4ELi5EEENS5_INS3_ILi1ELi5EEEvEENS3_ILi1ELi8EEENS5_INS3_ILi1ELi9EEEvEEEE4initEv
	.thumb_set _ZN5hwcpp3allIJNS_12lpc1114_baseILi4096ELi32768ELi48000000EE17pin_in_out_pullupILi0ELi6EEENS_6invertINS3_ILi0ELi7EEEvEENS2_20pin_in_out_ad_pullupILi1ELi0ELi1EEENS5_INS8_ILi1ELi1ELi2EEEvEENS8_ILi1ELi2ELi3EEENS5_INS8_ILi1ELi3ELi4EEEvEENS8_ILi1ELi4ELi5EEENS5_INS3_ILi1ELi5EEEvEENS3_ILi1ELi8EEENS5_INS3_ILi1ELi9EEEvEEEE4initEv,_ZN5hwcpp3allIINS_12lpc1114_baseILi4096ELi32768ELi48000000EE17pin_in_out_pullupILi0ELi6EEENS_6invertINS3_ILi0ELi7EEEvEENS2_20pin_in_out_ad_pullupILi1ELi0ELi1EEENS5_INS8_ILi1ELi1ELi2EEEvEENS8_ILi1ELi2ELi3EEENS5_INS8_ILi1ELi3ELi4EEEvEENS8_ILi1ELi4ELi5EEENS5_INS3_ILi1ELi5EEEvEENS3_ILi1ELi8EEENS5_INS3_ILi1ELi9EEEvEEEE4initEv
	.section	.text._ZN5hwcpp8blinkingINS_3allIINS_12lpc1114_baseILi4096ELi32768ELi48000000EE6pin_ocILi0ELi4EEENS_6invertINS4_ILi0ELi5EEEvEENS3_17pin_in_out_pullupILi0ELi6EEENS6_INS9_ILi0ELi7EEEvEENS3_20pin_in_out_ad_pullupILi1ELi0ELi1EEENS6_INSD_ILi1ELi1ELi2EEEvEENSD_ILi1ELi2ELi3EEENS6_INSD_ILi1ELi3ELi4EEEvEENSD_ILi1ELi4ELi5EEENS6_INS9_ILi1ELi5EEEvEENS9_ILi1ELi8EEENS6_INS9_ILi1ELi9EEEvEEEEENS_23callback_implementationINS3_8timer_64ENS_37callback_administration_double_linkedEEEE5blinkENS_15moment_durationIxLx24EE8durationE,"axG",%progbits,_ZN5hwcpp8blinkingINS_3allIINS_12lpc1114_baseILi4096ELi32768ELi48000000EE6pin_ocILi0ELi4EEENS_6invertINS4_ILi0ELi5EEEvEENS3_17pin_in_out_pullupILi0ELi6EEENS6_INS9_ILi0ELi7EEEvEENS3_20pin_in_out_ad_pullupILi1ELi0ELi1EEENS6_INSD_ILi1ELi1ELi2EEEvEENSD_ILi1ELi2ELi3EEENS6_INSD_ILi1ELi3ELi4EEEvEENSD_ILi1ELi4ELi5EEENS6_INS9_ILi1ELi5EEEvEENS9_ILi1ELi8EEENS6_INS9_ILi1ELi9EEEvEEEEENS_23callback_implementationINS3_8timer_64ENS_37callback_administration_double_linkedEEEE5blinkENS_15moment_durationIxLx24EE8durationE,comdat
	.align	1
	.weak	_ZN5hwcpp8blinkingINS_3allIINS_12lpc1114_baseILi4096ELi32768ELi48000000EE6pin_ocILi0ELi4EEENS_6invertINS4_ILi0ELi5EEEvEENS3_17pin_in_out_pullupILi0ELi6EEENS6_INS9_ILi0ELi7EEEvEENS3_20pin_in_out_ad_pullupILi1ELi0ELi1EEENS6_INSD_ILi1ELi1ELi2EEEvEENSD_ILi1ELi2ELi3EEENS6_INSD_ILi1ELi3ELi4EEEvEENSD_ILi1ELi4ELi5EEENS6_INS9_ILi1ELi5EEEvEENS9_ILi1ELi8EEENS6_INS9_ILi1ELi9EEEvEEEEENS_23callback_implementationINS3_8timer_64ENS_37callback_administration_double_linkedEEEE5blinkENS_15moment_durationIxLx24EE8durationE
	.code	16
	.thumb_func
	.type	_ZN5hwcpp8blinkingINS_3allIINS_12lpc1114_baseILi4096ELi32768ELi48000000EE6pin_ocILi0ELi4EEENS_6invertINS4_ILi0ELi5EEEvEENS3_17pin_in_out_pullupILi0ELi6EEENS6_INS9_ILi0ELi7EEEvEENS3_20pin_in_out_ad_pullupILi1ELi0ELi1EEENS6_INSD_ILi1ELi1ELi2EEEvEENSD_ILi1ELi2ELi3EEENS6_INSD_ILi1ELi3ELi4EEEvEENSD_ILi1ELi4ELi5EEENS6_INS9_ILi1ELi5EEEvEENS9_ILi1ELi8EEENS6_INS9_ILi1ELi9EEEvEEEEENS_23callback_implementationINS3_8timer_64ENS_37callback_administration_double_linkedEEEE5blinkENS_15moment_durationIxLx24EE8durationE, %function
_ZN5hwcpp8blinkingINS_3allIINS_12lpc1114_baseILi4096ELi32768ELi48000000EE6pin_ocILi0ELi4EEENS_6invertINS4_ILi0ELi5EEEvEENS3_17pin_in_out_pullupILi0ELi6EEENS6_INS9_ILi0ELi7EEEvEENS3_20pin_in_out_ad_pullupILi1ELi0ELi1EEENS6_INSD_ILi1ELi1ELi2EEEvEENSD_ILi1ELi2ELi3EEENS6_INSD_ILi1ELi3ELi4EEEvEENSD_ILi1ELi4ELi5EEENS6_INS9_ILi1ELi5EEEvEENS9_ILi1ELi8EEENS6_INS9_ILi1ELi9EEEvEEEEENS_23callback_implementationINS3_8timer_64ENS_37callback_administration_double_linkedEEEE5blinkENS_15moment_durationIxLx24EE8durationE:
	push	{r0, r1, r2, r4, r5, r6, r7, lr}
	mov	r6, r0
	mov	r7, r1
	bl	_ZN5hwcpp12lpc1114_baseILi4096ELi32768ELi48000000EE16initialize_clockEv
	ldr	r3, .L52
	ldr	r2, .L52+4
	mov	r5, #0
	str	r5, [r3]
	str	r2, [r3, #4]
	mov	r2, #1
	str	r5, [r3, #8]
	str	r2, [r3]
	ldr	r3, .L52+8
	mov	r1, #128
	ldr	r2, [r3, #124]
	lsl	r1, r1, #9
	orr	r2, r1
	ldr	r0, .L52+12
	str	r2, [r3, #124]
	ldr	r4, [r0]
	mov	r2, #7
	bic	r4, r2
	str	r4, [r0]
	ldr	r4, .L52+16
	mov	r2, #16
	ldr	r0, [r4]
	orr	r0, r2
	str	r0, [r4]
	ldr	r0, [r3, #124]
	orr	r1, r0
	str	r1, [r3, #124]
	ldr	r3, .L52+20
	mov	r0, #7
	ldr	r1, [r3]
	mov	r2, r1
	bic	r2, r0
	str	r2, [r3]
	ldr	r3, [r4]
	mov	r2, #32
	orr	r3, r2
	str	r3, [r4]
	bl	_ZN5hwcpp3allIINS_12lpc1114_baseILi4096ELi32768ELi48000000EE17pin_in_out_pullupILi0ELi6EEENS_6invertINS3_ILi0ELi7EEEvEENS2_20pin_in_out_ad_pullupILi1ELi0ELi1EEENS5_INS8_ILi1ELi1ELi2EEEvEENS8_ILi1ELi2ELi3EEENS5_INS8_ILi1ELi3ELi4EEEvEENS8_ILi1ELi4ELi5EEENS5_INS3_ILi1ELi5EEEvEENS3_ILi1ELi8EEENS5_INS3_ILi1ELi9EEEvEEEE4initEv
	mov	r3, r5
	lsr	r2, r7, #31
	add	r2, r2, r6
	adc	r3, r3, r7
	lsl	r1, r3, #31
	lsr	r5, r2, #1
	orr	r5, r1
	asr	r6, r3, #1
.L51:
	ldr	r3, [r4]
	mov	r7, #16
	bic	r3, r7
	str	r3, [r4]
	mov	r0, #1
	bl	_ZN5hwcpp3allIINS_6invertINS_12lpc1114_baseILi4096ELi32768ELi48000000EE6pin_ocILi0ELi5EEEvEENS3_17pin_in_out_pullupILi0ELi6EEENS1_INS7_ILi0ELi7EEEvEENS3_20pin_in_out_ad_pullupILi1ELi0ELi1EEENS1_INSB_ILi1ELi1ELi2EEEvEENSB_ILi1ELi2ELi3EEENS1_INSB_ILi1ELi3ELi4EEEvEENSB_ILi1ELi4ELi5EEENS1_INS7_ILi1ELi5EEEvEENS7_ILi1ELi8EEENS1_INS7_ILi1ELi9EEEvEEEE3setEb
	mov	r1, r6
	mov	r0, r5
	bl	_ZN5hwcpp23callback_implementationINS_12lpc1114_baseILi4096ELi32768ELi48000000EE8timer_64ENS_37callback_administration_double_linkedEE4waitENS_15moment_durationIxLx24EE8durationE
	ldr	r3, [r4]
	mov	r0, #0
	orr	r7, r3
	ldr	r3, .L52+24
	str	r7, [r4]
	str	r0, [r3]
	bl	_ZN5hwcpp3allIINS_6invertINS_12lpc1114_baseILi4096ELi32768ELi48000000EE6pin_ocILi0ELi5EEEvEENS3_17pin_in_out_pullupILi0ELi6EEENS1_INS7_ILi0ELi7EEEvEENS3_20pin_in_out_ad_pullupILi1ELi0ELi1EEENS1_INSB_ILi1ELi1ELi2EEEvEENSB_ILi1ELi2ELi3EEENS1_INSB_ILi1ELi3ELi4EEEvEENSB_ILi1ELi4ELi5EEENS1_INS7_ILi1ELi5EEEvEENS7_ILi1ELi8EEENS1_INS7_ILi1ELi9EEEvEEEE3setEb
	mov	r0, r5
	mov	r1, r6
	bl	_ZN5hwcpp23callback_implementationINS_12lpc1114_baseILi4096ELi32768ELi48000000EE8timer_64ENS_37callback_administration_double_linkedEE4waitENS_15moment_durationIxLx24EE8durationE
	b	.L51
.L53:
	.align	2
.L52:
	.word	-536813552
	.word	16777215
	.word	1074036740
	.word	1074020400
	.word	1342210048
	.word	1074020404
	.word	1342177344
	.size	_ZN5hwcpp8blinkingINS_3allIINS_12lpc1114_baseILi4096ELi32768ELi48000000EE6pin_ocILi0ELi4EEENS_6invertINS4_ILi0ELi5EEEvEENS3_17pin_in_out_pullupILi0ELi6EEENS6_INS9_ILi0ELi7EEEvEENS3_20pin_in_out_ad_pullupILi1ELi0ELi1EEENS6_INSD_ILi1ELi1ELi2EEEvEENSD_ILi1ELi2ELi3EEENS6_INSD_ILi1ELi3ELi4EEEvEENSD_ILi1ELi4ELi5EEENS6_INS9_ILi1ELi5EEEvEENS9_ILi1ELi8EEENS6_INS9_ILi1ELi9EEEvEEEEENS_23callback_implementationINS3_8timer_64ENS_37callback_administration_double_linkedEEEE5blinkENS_15moment_durationIxLx24EE8durationE, .-_ZN5hwcpp8blinkingINS_3allIINS_12lpc1114_baseILi4096ELi32768ELi48000000EE6pin_ocILi0ELi4EEENS_6invertINS4_ILi0ELi5EEEvEENS3_17pin_in_out_pullupILi0ELi6EEENS6_INS9_ILi0ELi7EEEvEENS3_20pin_in_out_ad_pullupILi1ELi0ELi1EEENS6_INSD_ILi1ELi1ELi2EEEvEENSD_ILi1ELi2ELi3EEENS6_INSD_ILi1ELi3ELi4EEEvEENSD_ILi1ELi4ELi5EEENS6_INS9_ILi1ELi5EEEvEENS9_ILi1ELi8EEENS6_INS9_ILi1ELi9EEEvEEEEENS_23callback_implementationINS3_8timer_64ENS_37callback_administration_double_linkedEEEE5blinkENS_15moment_durationIxLx24EE8durationE
	.weak	_ZN5hwcpp8blinkingINS_3allIJNS_12lpc1114_baseILi4096ELi32768ELi48000000EE6pin_ocILi0ELi4EEENS_6invertINS4_ILi0ELi5EEEvEENS3_17pin_in_out_pullupILi0ELi6EEENS6_INS9_ILi0ELi7EEEvEENS3_20pin_in_out_ad_pullupILi1ELi0ELi1EEENS6_INSD_ILi1ELi1ELi2EEEvEENSD_ILi1ELi2ELi3EEENS6_INSD_ILi1ELi3ELi4EEEvEENSD_ILi1ELi4ELi5EEENS6_INS9_ILi1ELi5EEEvEENS9_ILi1ELi8EEENS6_INS9_ILi1ELi9EEEvEEEEENS_23callback_implementationINS3_8timer_64ENS_37callback_administration_double_linkedEEEE5blinkENS_15moment_durationIxLx24EE8durationE
	.thumb_set _ZN5hwcpp8blinkingINS_3allIJNS_12lpc1114_baseILi4096ELi32768ELi48000000EE6pin_ocILi0ELi4EEENS_6invertINS4_ILi0ELi5EEEvEENS3_17pin_in_out_pullupILi0ELi6EEENS6_INS9_ILi0ELi7EEEvEENS3_20pin_in_out_ad_pullupILi1ELi0ELi1EEENS6_INSD_ILi1ELi1ELi2EEEvEENSD_ILi1ELi2ELi3EEENS6_INSD_ILi1ELi3ELi4EEEvEENSD_ILi1ELi4ELi5EEENS6_INS9_ILi1ELi5EEEvEENS9_ILi1ELi8EEENS6_INS9_ILi1ELi9EEEvEEEEENS_23callback_implementationINS3_8timer_64ENS_37callback_administration_double_linkedEEEE5blinkENS_15moment_durationIxLx24EE8durationE,_ZN5hwcpp8blinkingINS_3allIINS_12lpc1114_baseILi4096ELi32768ELi48000000EE6pin_ocILi0ELi4EEENS_6invertINS4_ILi0ELi5EEEvEENS3_17pin_in_out_pullupILi0ELi6EEENS6_INS9_ILi0ELi7EEEvEENS3_20pin_in_out_ad_pullupILi1ELi0ELi1EEENS6_INSD_ILi1ELi1ELi2EEEvEENSD_ILi1ELi2ELi3EEENS6_INSD_ILi1ELi3ELi4EEEvEENSD_ILi1ELi4ELi5EEENS6_INS9_ILi1ELi5EEEvEENS9_ILi1ELi8EEENS6_INS9_ILi1ELi9EEEvEEEEENS_23callback_implementationINS3_8timer_64ENS_37callback_administration_double_linkedEEEE5blinkENS_15moment_durationIxLx24EE8durationE
	.section	.text.startup.main,"ax",%progbits
	.align	1
	.global	main
	.code	16
	.thumb_func
	.type	main, %function
main:
	push	{r3, lr}
	ldr	r1, .L55+4
	ldr	r0, .L55
	bl	_ZN5hwcpp8blinkingINS_3allIINS_12lpc1114_baseILi4096ELi32768ELi48000000EE6pin_ocILi0ELi4EEENS_6invertINS4_ILi0ELi5EEEvEENS3_17pin_in_out_pullupILi0ELi6EEENS6_INS9_ILi0ELi7EEEvEENS3_20pin_in_out_ad_pullupILi1ELi0ELi1EEENS6_INSD_ILi1ELi1ELi2EEEvEENSD_ILi1ELi2ELi3EEENS6_INSD_ILi1ELi3ELi4EEEvEENSD_ILi1ELi4ELi5EEENS6_INS9_ILi1ELi5EEEvEENS9_ILi1ELi8EEENS6_INS9_ILi1ELi9EEEvEEEEENS_23callback_implementationINS3_8timer_64ENS_37callback_administration_double_linkedEEEE5blinkENS_15moment_durationIxLx24EE8durationE
.L56:
	.align	3
.L55:
	.word	12000000
	.word	0
	.size	main, .-main
	.weak	_ZZN5hwcpp37callback_administration_double_linkedINS_21timing_implementationINS_12lpc1114_baseILi4096ELi32768ELi48000000EE8timer_64EEEE5_node8root_getEvE5_root
	.section	.bss._ZZN5hwcpp37callback_administration_double_linkedINS_21timing_implementationINS_12lpc1114_baseILi4096ELi32768ELi48000000EE8timer_64EEEE5_node8root_getEvE5_root,"awG",%nobits,_ZZN5hwcpp37callback_administration_double_linkedINS_21timing_implementationINS_12lpc1114_baseILi4096ELi32768ELi48000000EE8timer_64EEEE5_node8root_getEvE5_root,comdat
	.align	3
	.type	_ZZN5hwcpp37callback_administration_double_linkedINS_21timing_implementationINS_12lpc1114_baseILi4096ELi32768ELi48000000EE8timer_64EEEE5_node8root_getEvE5_root, %object
	.size	_ZZN5hwcpp37callback_administration_double_linkedINS_21timing_implementationINS_12lpc1114_baseILi4096ELi32768ELi48000000EE8timer_64EEEE5_node8root_getEvE5_root, 24
_ZZN5hwcpp37callback_administration_double_linkedINS_21timing_implementationINS_12lpc1114_baseILi4096ELi32768ELi48000000EE8timer_64EEEE5_node8root_getEvE5_root:
	.space	24
	.weak	_ZZN5hwcpp12lpc1114_baseILi4096ELi32768ELi48000000EE8timer_643nowEvE4high
	.section	.bss._ZZN5hwcpp12lpc1114_baseILi4096ELi32768ELi48000000EE8timer_643nowEvE4high,"awG",%nobits,_ZZN5hwcpp12lpc1114_baseILi4096ELi32768ELi48000000EE8timer_643nowEvE4high,comdat
	.align	3
	.type	_ZZN5hwcpp12lpc1114_baseILi4096ELi32768ELi48000000EE8timer_643nowEvE4high, %object
	.size	_ZZN5hwcpp12lpc1114_baseILi4096ELi32768ELi48000000EE8timer_643nowEvE4high, 8
_ZZN5hwcpp12lpc1114_baseILi4096ELi32768ELi48000000EE8timer_643nowEvE4high:
	.space	8
	.weak	_ZZN5hwcpp12lpc1114_baseILi4096ELi32768ELi48000000EE8timer_643nowEvE8last_low
	.section	.bss._ZZN5hwcpp12lpc1114_baseILi4096ELi32768ELi48000000EE8timer_643nowEvE8last_low,"awG",%nobits,_ZZN5hwcpp12lpc1114_baseILi4096ELi32768ELi48000000EE8timer_643nowEvE8last_low,comdat
	.align	2
	.type	_ZZN5hwcpp12lpc1114_baseILi4096ELi32768ELi48000000EE8timer_643nowEvE8last_low, %object
	.size	_ZZN5hwcpp12lpc1114_baseILi4096ELi32768ELi48000000EE8timer_643nowEvE8last_low, 4
_ZZN5hwcpp12lpc1114_baseILi4096ELi32768ELi48000000EE8timer_643nowEvE8last_low:
	.space	4
	.weak	_ZZN5hwcpp12lpc1114_baseILi4096ELi32768ELi48000000EE16initialize_clockEvE4done
	.section	.bss._ZZN5hwcpp12lpc1114_baseILi4096ELi32768ELi48000000EE16initialize_clockEvE4done,"awG",%nobits,_ZZN5hwcpp12lpc1114_baseILi4096ELi32768ELi48000000EE16initialize_clockEvE4done,comdat
	.type	_ZZN5hwcpp12lpc1114_baseILi4096ELi32768ELi48000000EE16initialize_clockEvE4done, %object
	.size	_ZZN5hwcpp12lpc1114_baseILi4096ELi32768ELi48000000EE16initialize_clockEvE4done, 1
_ZZN5hwcpp12lpc1114_baseILi4096ELi32768ELi48000000EE16initialize_clockEvE4done:
	.space	1
	.weak	_ZN5hwcpp23callback_implementationINS_12lpc1114_baseILi4096ELi32768ELi48000000EE8timer_64ENS_37callback_administration_double_linkedEE12lock_counterE
	.section	.bss._ZN5hwcpp23callback_implementationINS_12lpc1114_baseILi4096ELi32768ELi48000000EE8timer_64ENS_37callback_administration_double_linkedEE12lock_counterE,"awG",%nobits,_ZN5hwcpp23callback_implementationINS_12lpc1114_baseILi4096ELi32768ELi48000000EE8timer_64ENS_37callback_administration_double_linkedEE12lock_counterE,comdat
	.align	2
	.type	_ZN5hwcpp23callback_implementationINS_12lpc1114_baseILi4096ELi32768ELi48000000EE8timer_64ENS_37callback_administration_double_linkedEE12lock_counterE, %object
	.size	_ZN5hwcpp23callback_implementationINS_12lpc1114_baseILi4096ELi32768ELi48000000EE8timer_64ENS_37callback_administration_double_linkedEE12lock_counterE, 4
_ZN5hwcpp23callback_implementationINS_12lpc1114_baseILi4096ELi32768ELi48000000EE8timer_64ENS_37callback_administration_double_linkedEE12lock_counterE:
	.space	4
	.weak	_ZTVN5hwcpp37callback_administration_double_linkedINS_21timing_implementationINS_12lpc1114_baseILi4096ELi32768ELi48000000EE8timer_64EEEE5_nodeE
	.section	.rodata._ZTVN5hwcpp37callback_administration_double_linkedINS_21timing_implementationINS_12lpc1114_baseILi4096ELi32768ELi48000000EE8timer_64EEEE5_nodeE,"aG",%progbits,_ZTVN5hwcpp37callback_administration_double_linkedINS_21timing_implementationINS_12lpc1114_baseILi4096ELi32768ELi48000000EE8timer_64EEEE5_nodeE,comdat
	.align	3
	.type	_ZTVN5hwcpp37callback_administration_double_linkedINS_21timing_implementationINS_12lpc1114_baseILi4096ELi32768ELi48000000EE8timer_64EEEE5_nodeE, %object
	.size	_ZTVN5hwcpp37callback_administration_double_linkedINS_21timing_implementationINS_12lpc1114_baseILi4096ELi32768ELi48000000EE8timer_64EEEE5_nodeE, 12
_ZTVN5hwcpp37callback_administration_double_linkedINS_21timing_implementationINS_12lpc1114_baseILi4096ELi32768ELi48000000EE8timer_64EEEE5_nodeE:
	.word	0
	.word	0
	.word	_ZN5hwcpp37callback_administration_double_linkedINS_21timing_implementationINS_12lpc1114_baseILi4096ELi32768ELi48000000EE8timer_64EEEE5_node5visitENS_15moment_durationIxLx24EE6momentE
	.weak	_ZGVZN5hwcpp37callback_administration_double_linkedINS_21timing_implementationINS_12lpc1114_baseILi4096ELi32768ELi48000000EE8timer_64EEEE5_node8root_getEvE5_root
	.section	.bss._ZGVZN5hwcpp37callback_administration_double_linkedINS_21timing_implementationINS_12lpc1114_baseILi4096ELi32768ELi48000000EE8timer_64EEEE5_node8root_getEvE5_root,"awG",%nobits,_ZGVZN5hwcpp37callback_administration_double_linkedINS_21timing_implementationINS_12lpc1114_baseILi4096ELi32768ELi48000000EE8timer_64EEEE5_node8root_getEvE5_root,comdat
	.align	2
	.type	_ZGVZN5hwcpp37callback_administration_double_linkedINS_21timing_implementationINS_12lpc1114_baseILi4096ELi32768ELi48000000EE8timer_64EEEE5_node8root_getEvE5_root, %object
	.size	_ZGVZN5hwcpp37callback_administration_double_linkedINS_21timing_implementationINS_12lpc1114_baseILi4096ELi32768ELi48000000EE8timer_64EEEE5_node8root_getEvE5_root, 4
_ZGVZN5hwcpp37callback_administration_double_linkedINS_21timing_implementationINS_12lpc1114_baseILi4096ELi32768ELi48000000EE8timer_64EEEE5_node8root_getEvE5_root:
	.space	4
	.weak	_ZSt4cout
	.section	.data._ZSt4cout,"aw",%progbits
	.align	2
	.type	_ZSt4cout, %object
	.size	_ZSt4cout, 20
_ZSt4cout:
	.word	0
	.word	10
	.byte	32
	.byte	65
	.byte	1
	.byte	0
	.byte	0
	.byte	0
	.space	2
	.word	0
	.ident	"GCC: (GNU Tools for ARM Embedded Processors) 4.8.3 20131129 (release) [ARM/embedded-4_8-branch revision 205641]"
