
main.elf:     file format elf32-littlearm


Disassembly of section .text:

00000000 <__text_start>:
   0:	10000430 	.word	0x10000430
   4:	00000441 	.word	0x00000441
	...

00000020 <_ZN5hwcpp37callback_administration_double_linkedINS_21timing_implementationINS_12lpc1114_baseILi4096ELi32768ELi48000000EE8timer_64EEEE5_node5visitENS_15moment_durationIxLx24EE6momentE>:
  20:	4770      	bx	lr
  22:	0000      	movs	r0, r0
  24:	0000      	movs	r0, r0
	...

00000028 <_ZN5hwcpp13timing_waiterINS_12lpc1114_baseILi4096ELi32768ELi48000000EE8timer_64EE3nowEv>:
  28:	4b0f      	ldr	r3, [pc, #60]	; (68 <_ZN5hwcpp13timing_waiterINS_12lpc1114_baseILi4096ELi32768ELi48000000EE8timer_64EE3nowEv+0x40>)
  2a:	b5f0      	push	{r4, r5, r6, r7, lr}
  2c:	689c      	ldr	r4, [r3, #8]
  2e:	4b0f      	ldr	r3, [pc, #60]	; (6c <_ZN5hwcpp13timing_waiterINS_12lpc1114_baseILi4096ELi32768ELi48000000EE8timer_64EE3nowEv+0x44>)
  30:	43e4      	mvns	r4, r4
  32:	681a      	ldr	r2, [r3, #0]
  34:	0224      	lsls	r4, r4, #8
  36:	0a24      	lsrs	r4, r4, #8
  38:	1c1d      	adds	r5, r3, #0
  3a:	490d      	ldr	r1, [pc, #52]	; (70 <_ZN5hwcpp13timing_waiterINS_12lpc1114_baseILi4096ELi32768ELi48000000EE8timer_64EE3nowEv+0x48>)
  3c:	4294      	cmp	r4, r2
  3e:	d207      	bcs.n	50 <_ZN5hwcpp13timing_waiterINS_12lpc1114_baseILi4096ELi32768ELi48000000EE8timer_64EE3nowEv+0x28>
  40:	680e      	ldr	r6, [r1, #0]
  42:	684f      	ldr	r7, [r1, #4]
  44:	4b07      	ldr	r3, [pc, #28]	; (64 <_ZN5hwcpp13timing_waiterINS_12lpc1114_baseILi4096ELi32768ELi48000000EE8timer_64EE3nowEv+0x3c>)
  46:	4a06      	ldr	r2, [pc, #24]	; (60 <_ZN5hwcpp13timing_waiterINS_12lpc1114_baseILi4096ELi32768ELi48000000EE8timer_64EE3nowEv+0x38>)
  48:	1992      	adds	r2, r2, r6
  4a:	417b      	adcs	r3, r7
  4c:	600a      	str	r2, [r1, #0]
  4e:	604b      	str	r3, [r1, #4]
  50:	680f      	ldr	r7, [r1, #0]
  52:	6849      	ldr	r1, [r1, #4]
  54:	602c      	str	r4, [r5, #0]
  56:	433c      	orrs	r4, r7
  58:	6004      	str	r4, [r0, #0]
  5a:	6041      	str	r1, [r0, #4]
  5c:	bdf0      	pop	{r4, r5, r6, r7, pc}
  5e:	46c0      	nop			; (mov r8, r8)
  60:	01000000 	.word	0x01000000
  64:	00000000 	.word	0x00000000
  68:	e000e010 	.word	0xe000e010
  6c:	10000020 	.word	0x10000020
  70:	10000018 	.word	0x10000018
  74:	46c0      	nop			; (mov r8, r8)
  76:	46c0      	nop			; (mov r8, r8)

00000078 <_ZN5hwcpp23callback_implementationINS_12lpc1114_baseILi4096ELi32768ELi48000000EE8timer_64ENS_37callback_administration_double_linkedEE4waitENS_15moment_durationIxLx24EE6momentE>:
  78:	b5f0      	push	{r4, r5, r6, r7, lr}
  7a:	b087      	sub	sp, #28
  7c:	9003      	str	r0, [sp, #12]
  7e:	9102      	str	r1, [sp, #8]
  80:	a804      	add	r0, sp, #16
  82:	f7ff ffd1 	bl	28 <_ZN5hwcpp13timing_waiterINS_12lpc1114_baseILi4096ELi32768ELi48000000EE8timer_64EE3nowEv>
  86:	9a04      	ldr	r2, [sp, #16]
  88:	9b05      	ldr	r3, [sp, #20]
  8a:	9e02      	ldr	r6, [sp, #8]
  8c:	9201      	str	r2, [sp, #4]
  8e:	1c1d      	adds	r5, r3, #0
  90:	429e      	cmp	r6, r3
  92:	dc03      	bgt.n	9c <_ZN5hwcpp23callback_implementationINS_12lpc1114_baseILi4096ELi32768ELi48000000EE8timer_64ENS_37callback_administration_double_linkedEE4waitENS_15moment_durationIxLx24EE6momentE+0x24>
  94:	d127      	bne.n	e6 <_ZN5hwcpp23callback_implementationINS_12lpc1114_baseILi4096ELi32768ELi48000000EE8timer_64ENS_37callback_administration_double_linkedEE4waitENS_15moment_durationIxLx24EE6momentE+0x6e>
  96:	9f03      	ldr	r7, [sp, #12]
  98:	4297      	cmp	r7, r2
  9a:	d924      	bls.n	e6 <_ZN5hwcpp23callback_implementationINS_12lpc1114_baseILi4096ELi32768ELi48000000EE8timer_64ENS_37callback_administration_double_linkedEE4waitENS_15moment_durationIxLx24EE6momentE+0x6e>
  9c:	4c13      	ldr	r4, [pc, #76]	; (ec <_ZN5hwcpp23callback_implementationINS_12lpc1114_baseILi4096ELi32768ELi48000000EE8timer_64ENS_37callback_administration_double_linkedEE4waitENS_15moment_durationIxLx24EE6momentE+0x74>)
  9e:	6820      	ldr	r0, [r4, #0]
  a0:	2800      	cmp	r0, #0
  a2:	d1ed      	bne.n	80 <_ZN5hwcpp23callback_implementationINS_12lpc1114_baseILi4096ELi32768ELi48000000EE8timer_64ENS_37callback_administration_double_linkedEE4waitENS_15moment_durationIxLx24EE6momentE+0x8>
  a4:	4f12      	ldr	r7, [pc, #72]	; (f0 <_ZN5hwcpp23callback_implementationINS_12lpc1114_baseILi4096ELi32768ELi48000000EE8timer_64ENS_37callback_administration_double_linkedEE4waitENS_15moment_durationIxLx24EE6momentE+0x78>)
  a6:	2001      	movs	r0, #1
  a8:	683e      	ldr	r6, [r7, #0]
  aa:	6020      	str	r0, [r4, #0]
  ac:	4911      	ldr	r1, [pc, #68]	; (f4 <_ZN5hwcpp23callback_implementationINS_12lpc1114_baseILi4096ELi32768ELi48000000EE8timer_64ENS_37callback_administration_double_linkedEE4waitENS_15moment_durationIxLx24EE6momentE+0x7c>)
  ae:	4206      	tst	r6, r0
  b0:	d104      	bne.n	bc <_ZN5hwcpp23callback_implementationINS_12lpc1114_baseILi4096ELi32768ELi48000000EE8timer_64ENS_37callback_administration_double_linkedEE4waitENS_15moment_durationIxLx24EE6momentE+0x44>
  b2:	4e11      	ldr	r6, [pc, #68]	; (f8 <_ZN5hwcpp23callback_implementationINS_12lpc1114_baseILi4096ELi32768ELi48000000EE8timer_64ENS_37callback_administration_double_linkedEE4waitENS_15moment_durationIxLx24EE6momentE+0x80>)
  b4:	6049      	str	r1, [r1, #4]
  b6:	600e      	str	r6, [r1, #0]
  b8:	6089      	str	r1, [r1, #8]
  ba:	6038      	str	r0, [r7, #0]
  bc:	6848      	ldr	r0, [r1, #4]
  be:	4288      	cmp	r0, r1
  c0:	d00d      	beq.n	de <_ZN5hwcpp23callback_implementationINS_12lpc1114_baseILi4096ELi32768ELi48000000EE8timer_64ENS_37callback_administration_double_linkedEE4waitENS_15moment_durationIxLx24EE6momentE+0x66>
  c2:	6947      	ldr	r7, [r0, #20]
  c4:	42af      	cmp	r7, r5
  c6:	db04      	blt.n	d2 <_ZN5hwcpp23callback_implementationINS_12lpc1114_baseILi4096ELi32768ELi48000000EE8timer_64ENS_37callback_administration_double_linkedEE4waitENS_15moment_durationIxLx24EE6momentE+0x5a>
  c8:	d107      	bne.n	da <_ZN5hwcpp23callback_implementationINS_12lpc1114_baseILi4096ELi32768ELi48000000EE8timer_64ENS_37callback_administration_double_linkedEE4waitENS_15moment_durationIxLx24EE6momentE+0x62>
  ca:	6907      	ldr	r7, [r0, #16]
  cc:	9e01      	ldr	r6, [sp, #4]
  ce:	42b7      	cmp	r7, r6
  d0:	d203      	bcs.n	da <_ZN5hwcpp23callback_implementationINS_12lpc1114_baseILi4096ELi32768ELi48000000EE8timer_64ENS_37callback_administration_double_linkedEE4waitENS_15moment_durationIxLx24EE6momentE+0x62>
  d2:	6801      	ldr	r1, [r0, #0]
  d4:	6809      	ldr	r1, [r1, #0]
  d6:	4788      	blx	r1
  d8:	e001      	b.n	de <_ZN5hwcpp23callback_implementationINS_12lpc1114_baseILi4096ELi32768ELi48000000EE8timer_64ENS_37callback_administration_double_linkedEE4waitENS_15moment_durationIxLx24EE6momentE+0x66>
  da:	6840      	ldr	r0, [r0, #4]
  dc:	e7ef      	b.n	be <_ZN5hwcpp23callback_implementationINS_12lpc1114_baseILi4096ELi32768ELi48000000EE8timer_64ENS_37callback_administration_double_linkedEE4waitENS_15moment_durationIxLx24EE6momentE+0x46>
  de:	6823      	ldr	r3, [r4, #0]
  e0:	3b01      	subs	r3, #1
  e2:	6023      	str	r3, [r4, #0]
  e4:	e7cc      	b.n	80 <_ZN5hwcpp23callback_implementationINS_12lpc1114_baseILi4096ELi32768ELi48000000EE8timer_64ENS_37callback_administration_double_linkedEE4waitENS_15moment_durationIxLx24EE6momentE+0x8>
  e6:	b007      	add	sp, #28
  e8:	bdf0      	pop	{r4, r5, r6, r7, pc}
  ea:	46c0      	nop			; (mov r8, r8)
  ec:	10000028 	.word	0x10000028
  f0:	1000002c 	.word	0x1000002c
  f4:	10000000 	.word	0x10000000
  f8:	000004a0 	.word	0x000004a0

000000fc <_ZN5hwcpp23callback_implementationINS_12lpc1114_baseILi4096ELi32768ELi48000000EE8timer_64ENS_37callback_administration_double_linkedEE4waitENS_15moment_durationIxLx24EE8durationE>:
  fc:	b537      	push	{r0, r1, r2, r4, r5, lr}
  fe:	1c0d      	adds	r5, r1, #0
 100:	1c04      	adds	r4, r0, #0
 102:	4668      	mov	r0, sp
 104:	f7ff ff90 	bl	28 <_ZN5hwcpp13timing_waiterINS_12lpc1114_baseILi4096ELi32768ELi48000000EE8timer_64EE3nowEv>
 108:	9800      	ldr	r0, [sp, #0]
 10a:	9901      	ldr	r1, [sp, #4]
 10c:	1900      	adds	r0, r0, r4
 10e:	4169      	adcs	r1, r5
 110:	f7ff ffb2 	bl	78 <_ZN5hwcpp23callback_implementationINS_12lpc1114_baseILi4096ELi32768ELi48000000EE8timer_64ENS_37callback_administration_double_linkedEE4waitENS_15moment_durationIxLx24EE6momentE>
 114:	bd37      	pop	{r0, r1, r2, r4, r5, pc}
	...

00000118 <_ZN5hwcpp12lpc1114_baseILi4096ELi32768ELi48000000EE16initialize_clockEv>:
 118:	4b0f      	ldr	r3, [pc, #60]	; (158 <_ZN5hwcpp12lpc1114_baseILi4096ELi32768ELi48000000EE16initialize_clockEv+0x40>)
 11a:	781a      	ldrb	r2, [r3, #0]
 11c:	2a00      	cmp	r2, #0
 11e:	d11a      	bne.n	156 <_ZN5hwcpp12lpc1114_baseILi4096ELi32768ELi48000000EE16initialize_clockEv+0x3e>
 120:	2201      	movs	r2, #1
 122:	701a      	strb	r2, [r3, #0]
 124:	4b0d      	ldr	r3, [pc, #52]	; (15c <_ZN5hwcpp12lpc1114_baseILi4096ELi32768ELi48000000EE16initialize_clockEv+0x44>)
 126:	228e      	movs	r2, #142	; 0x8e
 128:	0092      	lsls	r2, r2, #2
 12a:	5898      	ldr	r0, [r3, r2]
 12c:	2180      	movs	r1, #128	; 0x80
 12e:	4308      	orrs	r0, r1
 130:	5098      	str	r0, [r3, r2]
 132:	2023      	movs	r0, #35	; 0x23
 134:	6098      	str	r0, [r3, #8]
 136:	5898      	ldr	r0, [r3, r2]
 138:	4388      	bics	r0, r1
 13a:	5098      	str	r0, [r3, r2]
 13c:	68d8      	ldr	r0, [r3, #12]
 13e:	2101      	movs	r1, #1
 140:	4a06      	ldr	r2, [pc, #24]	; (15c <_ZN5hwcpp12lpc1114_baseILi4096ELi32768ELi48000000EE16initialize_clockEv+0x44>)
 142:	4208      	tst	r0, r1
 144:	d0fa      	beq.n	13c <_ZN5hwcpp12lpc1114_baseILi4096ELi32768ELi48000000EE16initialize_clockEv+0x24>
 146:	2303      	movs	r3, #3
 148:	6713      	str	r3, [r2, #112]	; 0x70
 14a:	6f53      	ldr	r3, [r2, #116]	; 0x74
 14c:	438b      	bics	r3, r1
 14e:	6753      	str	r3, [r2, #116]	; 0x74
 150:	6f53      	ldr	r3, [r2, #116]	; 0x74
 152:	4319      	orrs	r1, r3
 154:	6751      	str	r1, [r2, #116]	; 0x74
 156:	4770      	bx	lr
 158:	10000024 	.word	0x10000024
 15c:	40048000 	.word	0x40048000

00000160 <_ZN5hwcpp3allIINS_12lpc1114_baseILi4096ELi32768ELi48000000EE17pin_in_out_pullupILi0ELi6EEENS_6invertINS3_ILi0ELi7EEEvEENS2_20pin_in_out_ad_pullupILi1ELi0ELi1EEENS5_INS8_ILi1ELi1ELi2EEEvEENS8_ILi1ELi2ELi3EEENS5_INS8_ILi1ELi3ELi4EEEvEENS8_ILi1ELi4ELi5EEENS5_INS3_ILi1ELi5EEEvEENS3_ILi1ELi8EEENS5_INS3_ILi1ELi9EEEvEEEE3setEb>:
 160:	4a0c      	ldr	r2, [pc, #48]	; (194 <_ZN5hwcpp3allIINS_12lpc1114_baseILi4096ELi32768ELi48000000EE17pin_in_out_pullupILi0ELi6EEENS_6invertINS3_ILi0ELi7EEEvEENS2_20pin_in_out_ad_pullupILi1ELi0ELi1EEENS5_INS8_ILi1ELi1ELi2EEEvEENS8_ILi1ELi2ELi3EEENS5_INS8_ILi1ELi3ELi4EEEvEENS8_ILi1ELi4ELi5EEENS5_INS3_ILi1ELi5EEEvEENS3_ILi1ELi8EEENS5_INS3_ILi1ELi9EEEvEEEE3setEb+0x34>)
 162:	4243      	negs	r3, r0
 164:	6013      	str	r3, [r2, #0]
 166:	2201      	movs	r2, #1
 168:	4050      	eors	r0, r2
 16a:	4a0b      	ldr	r2, [pc, #44]	; (198 <_ZN5hwcpp3allIINS_12lpc1114_baseILi4096ELi32768ELi48000000EE17pin_in_out_pullupILi0ELi6EEENS_6invertINS3_ILi0ELi7EEEvEENS2_20pin_in_out_ad_pullupILi1ELi0ELi1EEENS5_INS8_ILi1ELi1ELi2EEEvEENS8_ILi1ELi2ELi3EEENS5_INS8_ILi1ELi3ELi4EEEvEENS8_ILi1ELi4ELi5EEENS5_INS3_ILi1ELi5EEEvEENS3_ILi1ELi8EEENS5_INS3_ILi1ELi9EEEvEEEE3setEb+0x38>)
 16c:	4240      	negs	r0, r0
 16e:	6010      	str	r0, [r2, #0]
 170:	4a0a      	ldr	r2, [pc, #40]	; (19c <_ZN5hwcpp3allIINS_12lpc1114_baseILi4096ELi32768ELi48000000EE17pin_in_out_pullupILi0ELi6EEENS_6invertINS3_ILi0ELi7EEEvEENS2_20pin_in_out_ad_pullupILi1ELi0ELi1EEENS5_INS8_ILi1ELi1ELi2EEEvEENS8_ILi1ELi2ELi3EEENS5_INS8_ILi1ELi3ELi4EEEvEENS8_ILi1ELi4ELi5EEENS5_INS3_ILi1ELi5EEEvEENS3_ILi1ELi8EEENS5_INS3_ILi1ELi9EEEvEEEE3setEb+0x3c>)
 172:	6013      	str	r3, [r2, #0]
 174:	4a0a      	ldr	r2, [pc, #40]	; (1a0 <_ZN5hwcpp3allIINS_12lpc1114_baseILi4096ELi32768ELi48000000EE17pin_in_out_pullupILi0ELi6EEENS_6invertINS3_ILi0ELi7EEEvEENS2_20pin_in_out_ad_pullupILi1ELi0ELi1EEENS5_INS8_ILi1ELi1ELi2EEEvEENS8_ILi1ELi2ELi3EEENS5_INS8_ILi1ELi3ELi4EEEvEENS8_ILi1ELi4ELi5EEENS5_INS3_ILi1ELi5EEEvEENS3_ILi1ELi8EEENS5_INS3_ILi1ELi9EEEvEEEE3setEb+0x40>)
 176:	6010      	str	r0, [r2, #0]
 178:	4a0a      	ldr	r2, [pc, #40]	; (1a4 <_ZN5hwcpp3allIINS_12lpc1114_baseILi4096ELi32768ELi48000000EE17pin_in_out_pullupILi0ELi6EEENS_6invertINS3_ILi0ELi7EEEvEENS2_20pin_in_out_ad_pullupILi1ELi0ELi1EEENS5_INS8_ILi1ELi1ELi2EEEvEENS8_ILi1ELi2ELi3EEENS5_INS8_ILi1ELi3ELi4EEEvEENS8_ILi1ELi4ELi5EEENS5_INS3_ILi1ELi5EEEvEENS3_ILi1ELi8EEENS5_INS3_ILi1ELi9EEEvEEEE3setEb+0x44>)
 17a:	6013      	str	r3, [r2, #0]
 17c:	4a0a      	ldr	r2, [pc, #40]	; (1a8 <_ZN5hwcpp3allIINS_12lpc1114_baseILi4096ELi32768ELi48000000EE17pin_in_out_pullupILi0ELi6EEENS_6invertINS3_ILi0ELi7EEEvEENS2_20pin_in_out_ad_pullupILi1ELi0ELi1EEENS5_INS8_ILi1ELi1ELi2EEEvEENS8_ILi1ELi2ELi3EEENS5_INS8_ILi1ELi3ELi4EEEvEENS8_ILi1ELi4ELi5EEENS5_INS3_ILi1ELi5EEEvEENS3_ILi1ELi8EEENS5_INS3_ILi1ELi9EEEvEEEE3setEb+0x48>)
 17e:	6010      	str	r0, [r2, #0]
 180:	4a0a      	ldr	r2, [pc, #40]	; (1ac <_ZN5hwcpp3allIINS_12lpc1114_baseILi4096ELi32768ELi48000000EE17pin_in_out_pullupILi0ELi6EEENS_6invertINS3_ILi0ELi7EEEvEENS2_20pin_in_out_ad_pullupILi1ELi0ELi1EEENS5_INS8_ILi1ELi1ELi2EEEvEENS8_ILi1ELi2ELi3EEENS5_INS8_ILi1ELi3ELi4EEEvEENS8_ILi1ELi4ELi5EEENS5_INS3_ILi1ELi5EEEvEENS3_ILi1ELi8EEENS5_INS3_ILi1ELi9EEEvEEEE3setEb+0x4c>)
 182:	6013      	str	r3, [r2, #0]
 184:	4a0a      	ldr	r2, [pc, #40]	; (1b0 <_ZN5hwcpp3allIINS_12lpc1114_baseILi4096ELi32768ELi48000000EE17pin_in_out_pullupILi0ELi6EEENS_6invertINS3_ILi0ELi7EEEvEENS2_20pin_in_out_ad_pullupILi1ELi0ELi1EEENS5_INS8_ILi1ELi1ELi2EEEvEENS8_ILi1ELi2ELi3EEENS5_INS8_ILi1ELi3ELi4EEEvEENS8_ILi1ELi4ELi5EEENS5_INS3_ILi1ELi5EEEvEENS3_ILi1ELi8EEENS5_INS3_ILi1ELi9EEEvEEEE3setEb+0x50>)
 186:	6010      	str	r0, [r2, #0]
 188:	4a0a      	ldr	r2, [pc, #40]	; (1b4 <_ZN5hwcpp3allIINS_12lpc1114_baseILi4096ELi32768ELi48000000EE17pin_in_out_pullupILi0ELi6EEENS_6invertINS3_ILi0ELi7EEEvEENS2_20pin_in_out_ad_pullupILi1ELi0ELi1EEENS5_INS8_ILi1ELi1ELi2EEEvEENS8_ILi1ELi2ELi3EEENS5_INS8_ILi1ELi3ELi4EEEvEENS8_ILi1ELi4ELi5EEENS5_INS3_ILi1ELi5EEEvEENS3_ILi1ELi8EEENS5_INS3_ILi1ELi9EEEvEEEE3setEb+0x54>)
 18a:	6013      	str	r3, [r2, #0]
 18c:	4b0a      	ldr	r3, [pc, #40]	; (1b8 <_ZN5hwcpp3allIINS_12lpc1114_baseILi4096ELi32768ELi48000000EE17pin_in_out_pullupILi0ELi6EEENS_6invertINS3_ILi0ELi7EEEvEENS2_20pin_in_out_ad_pullupILi1ELi0ELi1EEENS5_INS8_ILi1ELi1ELi2EEEvEENS8_ILi1ELi2ELi3EEENS5_INS8_ILi1ELi3ELi4EEEvEENS8_ILi1ELi4ELi5EEENS5_INS3_ILi1ELi5EEEvEENS3_ILi1ELi8EEENS5_INS3_ILi1ELi9EEEvEEEE3setEb+0x58>)
 18e:	6018      	str	r0, [r3, #0]
 190:	4770      	bx	lr
 192:	46c0      	nop			; (mov r8, r8)
 194:	50000100 	.word	0x50000100
 198:	50000200 	.word	0x50000200
 19c:	50010004 	.word	0x50010004
 1a0:	50010008 	.word	0x50010008
 1a4:	50010010 	.word	0x50010010
 1a8:	50010020 	.word	0x50010020
 1ac:	50010040 	.word	0x50010040
 1b0:	50010080 	.word	0x50010080
 1b4:	50010400 	.word	0x50010400
 1b8:	50010800 	.word	0x50010800

000001bc <_ZN5hwcpp3allIINS_6invertINS_12lpc1114_baseILi4096ELi32768ELi48000000EE6pin_ocILi0ELi5EEEvEENS3_17pin_in_out_pullupILi0ELi6EEENS1_INS7_ILi0ELi7EEEvEENS3_20pin_in_out_ad_pullupILi1ELi0ELi1EEENS1_INSB_ILi1ELi1ELi2EEEvEENSB_ILi1ELi2ELi3EEENS1_INSB_ILi1ELi3ELi4EEEvEENSB_ILi1ELi4ELi5EEENS1_INS7_ILi1ELi5EEEvEENS7_ILi1ELi8EEENS1_INS7_ILi1ELi9EEEvEEEE3setEb>:
 1bc:	b508      	push	{r3, lr}
 1be:	4b08      	ldr	r3, [pc, #32]	; (1e0 <_ZN5hwcpp3allIINS_6invertINS_12lpc1114_baseILi4096ELi32768ELi48000000EE6pin_ocILi0ELi5EEEvEENS3_17pin_in_out_pullupILi0ELi6EEENS1_INS7_ILi0ELi7EEEvEENS3_20pin_in_out_ad_pullupILi1ELi0ELi1EEENS1_INSB_ILi1ELi1ELi2EEEvEENSB_ILi1ELi2ELi3EEENS1_INSB_ILi1ELi3ELi4EEEvEENSB_ILi1ELi4ELi5EEENS1_INS7_ILi1ELi5EEEvEENS7_ILi1ELi8EEENS1_INS7_ILi1ELi9EEEvEEEE3setEb+0x24>)
 1c0:	2220      	movs	r2, #32
 1c2:	6819      	ldr	r1, [r3, #0]
 1c4:	2800      	cmp	r0, #0
 1c6:	d102      	bne.n	1ce <_ZN5hwcpp3allIINS_6invertINS_12lpc1114_baseILi4096ELi32768ELi48000000EE6pin_ocILi0ELi5EEEvEENS3_17pin_in_out_pullupILi0ELi6EEENS1_INS7_ILi0ELi7EEEvEENS3_20pin_in_out_ad_pullupILi1ELi0ELi1EEENS1_INSB_ILi1ELi1ELi2EEEvEENSB_ILi1ELi2ELi3EEENS1_INSB_ILi1ELi3ELi4EEEvEENSB_ILi1ELi4ELi5EEENS1_INS7_ILi1ELi5EEEvEENS7_ILi1ELi8EEENS1_INS7_ILi1ELi9EEEvEEEE3setEb+0x12>
 1c8:	4391      	bics	r1, r2
 1ca:	1c0a      	adds	r2, r1, #0
 1cc:	e003      	b.n	1d6 <_ZN5hwcpp3allIINS_6invertINS_12lpc1114_baseILi4096ELi32768ELi48000000EE6pin_ocILi0ELi5EEEvEENS3_17pin_in_out_pullupILi0ELi6EEENS1_INS7_ILi0ELi7EEEvEENS3_20pin_in_out_ad_pullupILi1ELi0ELi1EEENS1_INSB_ILi1ELi1ELi2EEEvEENSB_ILi1ELi2ELi3EEENS1_INSB_ILi1ELi3ELi4EEEvEENSB_ILi1ELi4ELi5EEENS1_INS7_ILi1ELi5EEEvEENS7_ILi1ELi8EEENS1_INS7_ILi1ELi9EEEvEEEE3setEb+0x1a>
 1ce:	430a      	orrs	r2, r1
 1d0:	601a      	str	r2, [r3, #0]
 1d2:	4b04      	ldr	r3, [pc, #16]	; (1e4 <_ZN5hwcpp3allIINS_6invertINS_12lpc1114_baseILi4096ELi32768ELi48000000EE6pin_ocILi0ELi5EEEvEENS3_17pin_in_out_pullupILi0ELi6EEENS1_INS7_ILi0ELi7EEEvEENS3_20pin_in_out_ad_pullupILi1ELi0ELi1EEENS1_INSB_ILi1ELi1ELi2EEEvEENSB_ILi1ELi2ELi3EEENS1_INSB_ILi1ELi3ELi4EEEvEENSB_ILi1ELi4ELi5EEENS1_INS7_ILi1ELi5EEEvEENS7_ILi1ELi8EEENS1_INS7_ILi1ELi9EEEvEEEE3setEb+0x28>)
 1d4:	2200      	movs	r2, #0
 1d6:	601a      	str	r2, [r3, #0]
 1d8:	f7ff ffc2 	bl	160 <_ZN5hwcpp3allIINS_12lpc1114_baseILi4096ELi32768ELi48000000EE17pin_in_out_pullupILi0ELi6EEENS_6invertINS3_ILi0ELi7EEEvEENS2_20pin_in_out_ad_pullupILi1ELi0ELi1EEENS5_INS8_ILi1ELi1ELi2EEEvEENS8_ILi1ELi2ELi3EEENS5_INS8_ILi1ELi3ELi4EEEvEENS8_ILi1ELi4ELi5EEENS5_INS3_ILi1ELi5EEEvEENS3_ILi1ELi8EEENS5_INS3_ILi1ELi9EEEvEEEE3setEb>
 1dc:	bd08      	pop	{r3, pc}
 1de:	46c0      	nop			; (mov r8, r8)
 1e0:	50008000 	.word	0x50008000
 1e4:	50000080 	.word	0x50000080

000001e8 <_ZN5hwcpp3allIINS_6invertINS_12lpc1114_baseILi4096ELi32768ELi48000000EE17pin_in_out_pullupILi1ELi5EEEvEENS4_ILi1ELi8EEENS1_INS4_ILi1ELi9EEEvEEEE4initEv>:
 1e8:	4a14      	ldr	r2, [pc, #80]	; (23c <_ZN5hwcpp3allIINS_6invertINS_12lpc1114_baseILi4096ELi32768ELi48000000EE17pin_in_out_pullupILi1ELi5EEEvEENS4_ILi1ELi8EEENS1_INS4_ILi1ELi9EEEvEEEE4initEv+0x54>)
 1ea:	2080      	movs	r0, #128	; 0x80
 1ec:	6fd3      	ldr	r3, [r2, #124]	; 0x7c
 1ee:	0240      	lsls	r0, r0, #9
 1f0:	4303      	orrs	r3, r0
 1f2:	b530      	push	{r4, r5, lr}
 1f4:	67d3      	str	r3, [r2, #124]	; 0x7c
 1f6:	4b12      	ldr	r3, [pc, #72]	; (240 <_ZN5hwcpp3allIINS_6invertINS_12lpc1114_baseILi4096ELi32768ELi48000000EE17pin_in_out_pullupILi1ELi5EEEvEENS4_ILi1ELi8EEENS1_INS4_ILi1ELi9EEEvEEEE4initEv+0x58>)
 1f8:	2107      	movs	r1, #7
 1fa:	681c      	ldr	r4, [r3, #0]
 1fc:	2520      	movs	r5, #32
 1fe:	438c      	bics	r4, r1
 200:	601c      	str	r4, [r3, #0]
 202:	4b10      	ldr	r3, [pc, #64]	; (244 <_ZN5hwcpp3allIINS_6invertINS_12lpc1114_baseILi4096ELi32768ELi48000000EE17pin_in_out_pullupILi1ELi5EEEvEENS4_ILi1ELi8EEENS1_INS4_ILi1ELi9EEEvEEEE4initEv+0x5c>)
 204:	681c      	ldr	r4, [r3, #0]
 206:	432c      	orrs	r4, r5
 208:	601c      	str	r4, [r3, #0]
 20a:	6fd4      	ldr	r4, [r2, #124]	; 0x7c
 20c:	4304      	orrs	r4, r0
 20e:	67d4      	str	r4, [r2, #124]	; 0x7c
 210:	4c0d      	ldr	r4, [pc, #52]	; (248 <_ZN5hwcpp3allIINS_6invertINS_12lpc1114_baseILi4096ELi32768ELi48000000EE17pin_in_out_pullupILi1ELi5EEEvEENS4_ILi1ELi8EEENS1_INS4_ILi1ELi9EEEvEEEE4initEv+0x60>)
 212:	6825      	ldr	r5, [r4, #0]
 214:	438d      	bics	r5, r1
 216:	6025      	str	r5, [r4, #0]
 218:	681d      	ldr	r5, [r3, #0]
 21a:	2480      	movs	r4, #128	; 0x80
 21c:	0064      	lsls	r4, r4, #1
 21e:	432c      	orrs	r4, r5
 220:	601c      	str	r4, [r3, #0]
 222:	6fd4      	ldr	r4, [r2, #124]	; 0x7c
 224:	4320      	orrs	r0, r4
 226:	67d0      	str	r0, [r2, #124]	; 0x7c
 228:	4a08      	ldr	r2, [pc, #32]	; (24c <_ZN5hwcpp3allIINS_6invertINS_12lpc1114_baseILi4096ELi32768ELi48000000EE17pin_in_out_pullupILi1ELi5EEEvEENS4_ILi1ELi8EEENS1_INS4_ILi1ELi9EEEvEEEE4initEv+0x64>)
 22a:	6810      	ldr	r0, [r2, #0]
 22c:	4388      	bics	r0, r1
 22e:	6010      	str	r0, [r2, #0]
 230:	6819      	ldr	r1, [r3, #0]
 232:	2280      	movs	r2, #128	; 0x80
 234:	0092      	lsls	r2, r2, #2
 236:	430a      	orrs	r2, r1
 238:	601a      	str	r2, [r3, #0]
 23a:	bd30      	pop	{r4, r5, pc}
 23c:	40048004 	.word	0x40048004
 240:	400440a0 	.word	0x400440a0
 244:	50018000 	.word	0x50018000
 248:	40044014 	.word	0x40044014
 24c:	40044038 	.word	0x40044038

00000250 <_ZN5hwcpp3allIINS_6invertINS_12lpc1114_baseILi4096ELi32768ELi48000000EE20pin_in_out_ad_pullupILi1ELi3ELi4EEEvEENS4_ILi1ELi4ELi5EEENS1_INS3_17pin_in_out_pullupILi1ELi5EEEvEENS8_ILi1ELi8EEENS1_INS8_ILi1ELi9EEEvEEEE4initEv>:
 250:	4a11      	ldr	r2, [pc, #68]	; (298 <_ZN5hwcpp3allIINS_6invertINS_12lpc1114_baseILi4096ELi32768ELi48000000EE20pin_in_out_ad_pullupILi1ELi3ELi4EEEvEENS4_ILi1ELi4ELi5EEENS1_INS3_17pin_in_out_pullupILi1ELi5EEEvEENS8_ILi1ELi8EEENS1_INS8_ILi1ELi9EEEvEEEE4initEv+0x48>)
 252:	b538      	push	{r3, r4, r5, lr}
 254:	2080      	movs	r0, #128	; 0x80
 256:	6fd3      	ldr	r3, [r2, #124]	; 0x7c
 258:	0240      	lsls	r0, r0, #9
 25a:	4303      	orrs	r3, r0
 25c:	67d3      	str	r3, [r2, #124]	; 0x7c
 25e:	4b0f      	ldr	r3, [pc, #60]	; (29c <_ZN5hwcpp3allIINS_6invertINS_12lpc1114_baseILi4096ELi32768ELi48000000EE20pin_in_out_ad_pullupILi1ELi3ELi4EEEvEENS4_ILi1ELi4ELi5EEENS1_INS3_17pin_in_out_pullupILi1ELi5EEEvEENS8_ILi1ELi8EEENS1_INS8_ILi1ELi9EEEvEEEE4initEv+0x4c>)
 260:	2107      	movs	r1, #7
 262:	681c      	ldr	r4, [r3, #0]
 264:	2581      	movs	r5, #129	; 0x81
 266:	438c      	bics	r4, r1
 268:	432c      	orrs	r4, r5
 26a:	601c      	str	r4, [r3, #0]
 26c:	4b0c      	ldr	r3, [pc, #48]	; (2a0 <_ZN5hwcpp3allIINS_6invertINS_12lpc1114_baseILi4096ELi32768ELi48000000EE20pin_in_out_ad_pullupILi1ELi3ELi4EEEvEENS4_ILi1ELi4ELi5EEENS1_INS3_17pin_in_out_pullupILi1ELi5EEEvEENS8_ILi1ELi8EEENS1_INS8_ILi1ELi9EEEvEEEE4initEv+0x50>)
 26e:	2508      	movs	r5, #8
 270:	681c      	ldr	r4, [r3, #0]
 272:	432c      	orrs	r4, r5
 274:	601c      	str	r4, [r3, #0]
 276:	6fd4      	ldr	r4, [r2, #124]	; 0x7c
 278:	4320      	orrs	r0, r4
 27a:	67d0      	str	r0, [r2, #124]	; 0x7c
 27c:	4a09      	ldr	r2, [pc, #36]	; (2a4 <_ZN5hwcpp3allIINS_6invertINS_12lpc1114_baseILi4096ELi32768ELi48000000EE20pin_in_out_ad_pullupILi1ELi3ELi4EEEvEENS4_ILi1ELi4ELi5EEENS1_INS3_17pin_in_out_pullupILi1ELi5EEEvEENS8_ILi1ELi8EEENS1_INS8_ILi1ELi9EEEvEEEE4initEv+0x54>)
 27e:	6810      	ldr	r0, [r2, #0]
 280:	4388      	bics	r0, r1
 282:	1c01      	adds	r1, r0, #0
 284:	2080      	movs	r0, #128	; 0x80
 286:	4301      	orrs	r1, r0
 288:	6011      	str	r1, [r2, #0]
 28a:	681a      	ldr	r2, [r3, #0]
 28c:	2110      	movs	r1, #16
 28e:	430a      	orrs	r2, r1
 290:	601a      	str	r2, [r3, #0]
 292:	f7ff ffa9 	bl	1e8 <_ZN5hwcpp3allIINS_6invertINS_12lpc1114_baseILi4096ELi32768ELi48000000EE17pin_in_out_pullupILi1ELi5EEEvEENS4_ILi1ELi8EEENS1_INS4_ILi1ELi9EEEvEEEE4initEv>
 296:	bd38      	pop	{r3, r4, r5, pc}
 298:	40048004 	.word	0x40048004
 29c:	40044090 	.word	0x40044090
 2a0:	50018000 	.word	0x50018000
 2a4:	40044094 	.word	0x40044094

000002a8 <_ZN5hwcpp3allIINS_6invertINS_12lpc1114_baseILi4096ELi32768ELi48000000EE20pin_in_out_ad_pullupILi1ELi1ELi2EEEvEENS4_ILi1ELi2ELi3EEENS1_INS4_ILi1ELi3ELi4EEEvEENS4_ILi1ELi4ELi5EEENS1_INS3_17pin_in_out_pullupILi1ELi5EEEvEENSB_ILi1ELi8EEENS1_INSB_ILi1ELi9EEEvEEEE4initEv>:
 2a8:	4a10      	ldr	r2, [pc, #64]	; (2ec <_ZN5hwcpp3allIINS_6invertINS_12lpc1114_baseILi4096ELi32768ELi48000000EE20pin_in_out_ad_pullupILi1ELi1ELi2EEEvEENS4_ILi1ELi2ELi3EEENS1_INS4_ILi1ELi3ELi4EEEvEENS4_ILi1ELi4ELi5EEENS1_INS3_17pin_in_out_pullupILi1ELi5EEEvEENSB_ILi1ELi8EEENS1_INSB_ILi1ELi9EEEvEEEE4initEv+0x44>)
 2aa:	b570      	push	{r4, r5, r6, lr}
 2ac:	6fd3      	ldr	r3, [r2, #124]	; 0x7c
 2ae:	2480      	movs	r4, #128	; 0x80
 2b0:	0264      	lsls	r4, r4, #9
 2b2:	4323      	orrs	r3, r4
 2b4:	67d3      	str	r3, [r2, #124]	; 0x7c
 2b6:	4b0e      	ldr	r3, [pc, #56]	; (2f0 <_ZN5hwcpp3allIINS_6invertINS_12lpc1114_baseILi4096ELi32768ELi48000000EE20pin_in_out_ad_pullupILi1ELi1ELi2EEEvEENS4_ILi1ELi2ELi3EEENS1_INS4_ILi1ELi3ELi4EEEvEENS4_ILi1ELi4ELi5EEENS1_INS3_17pin_in_out_pullupILi1ELi5EEEvEENSB_ILi1ELi8EEENS1_INSB_ILi1ELi9EEEvEEEE4initEv+0x48>)
 2b8:	2007      	movs	r0, #7
 2ba:	681d      	ldr	r5, [r3, #0]
 2bc:	2181      	movs	r1, #129	; 0x81
 2be:	4385      	bics	r5, r0
 2c0:	430d      	orrs	r5, r1
 2c2:	601d      	str	r5, [r3, #0]
 2c4:	4b0b      	ldr	r3, [pc, #44]	; (2f4 <_ZN5hwcpp3allIINS_6invertINS_12lpc1114_baseILi4096ELi32768ELi48000000EE20pin_in_out_ad_pullupILi1ELi1ELi2EEEvEENS4_ILi1ELi2ELi3EEENS1_INS4_ILi1ELi3ELi4EEEvEENS4_ILi1ELi4ELi5EEENS1_INS3_17pin_in_out_pullupILi1ELi5EEEvEENSB_ILi1ELi8EEENS1_INSB_ILi1ELi9EEEvEEEE4initEv+0x4c>)
 2c6:	2602      	movs	r6, #2
 2c8:	681d      	ldr	r5, [r3, #0]
 2ca:	4335      	orrs	r5, r6
 2cc:	601d      	str	r5, [r3, #0]
 2ce:	6fd5      	ldr	r5, [r2, #124]	; 0x7c
 2d0:	432c      	orrs	r4, r5
 2d2:	67d4      	str	r4, [r2, #124]	; 0x7c
 2d4:	4a08      	ldr	r2, [pc, #32]	; (2f8 <_ZN5hwcpp3allIINS_6invertINS_12lpc1114_baseILi4096ELi32768ELi48000000EE20pin_in_out_ad_pullupILi1ELi1ELi2EEEvEENS4_ILi1ELi2ELi3EEENS1_INS4_ILi1ELi3ELi4EEEvEENS4_ILi1ELi4ELi5EEENS1_INS3_17pin_in_out_pullupILi1ELi5EEEvEENSB_ILi1ELi8EEENS1_INSB_ILi1ELi9EEEvEEEE4initEv+0x50>)
 2d6:	6814      	ldr	r4, [r2, #0]
 2d8:	4384      	bics	r4, r0
 2da:	4321      	orrs	r1, r4
 2dc:	6011      	str	r1, [r2, #0]
 2de:	681a      	ldr	r2, [r3, #0]
 2e0:	2104      	movs	r1, #4
 2e2:	430a      	orrs	r2, r1
 2e4:	601a      	str	r2, [r3, #0]
 2e6:	f7ff ffb3 	bl	250 <_ZN5hwcpp3allIINS_6invertINS_12lpc1114_baseILi4096ELi32768ELi48000000EE20pin_in_out_ad_pullupILi1ELi3ELi4EEEvEENS4_ILi1ELi4ELi5EEENS1_INS3_17pin_in_out_pullupILi1ELi5EEEvEENS8_ILi1ELi8EEENS1_INS8_ILi1ELi9EEEvEEEE4initEv>
 2ea:	bd70      	pop	{r4, r5, r6, pc}
 2ec:	40048004 	.word	0x40048004
 2f0:	4004407c 	.word	0x4004407c
 2f4:	50018000 	.word	0x50018000
 2f8:	40044080 	.word	0x40044080

000002fc <_ZN5hwcpp3allIINS_12lpc1114_baseILi4096ELi32768ELi48000000EE17pin_in_out_pullupILi0ELi6EEENS_6invertINS3_ILi0ELi7EEEvEENS2_20pin_in_out_ad_pullupILi1ELi0ELi1EEENS5_INS8_ILi1ELi1ELi2EEEvEENS8_ILi1ELi2ELi3EEENS5_INS8_ILi1ELi3ELi4EEEvEENS8_ILi1ELi4ELi5EEENS5_INS3_ILi1ELi5EEEvEENS3_ILi1ELi8EEENS5_INS3_ILi1ELi9EEEvEEEE4initEv>:
 2fc:	b538      	push	{r3, r4, r5, lr}
 2fe:	4b16      	ldr	r3, [pc, #88]	; (358 <_ZN5hwcpp3allIINS_12lpc1114_baseILi4096ELi32768ELi48000000EE17pin_in_out_pullupILi0ELi6EEENS_6invertINS3_ILi0ELi7EEEvEENS2_20pin_in_out_ad_pullupILi1ELi0ELi1EEENS5_INS8_ILi1ELi1ELi2EEEvEENS8_ILi1ELi2ELi3EEENS5_INS8_ILi1ELi3ELi4EEEvEENS8_ILi1ELi4ELi5EEENS5_INS3_ILi1ELi5EEEvEENS3_ILi1ELi8EEENS5_INS3_ILi1ELi9EEEvEEEE4initEv+0x5c>)
 300:	2080      	movs	r0, #128	; 0x80
 302:	6fda      	ldr	r2, [r3, #124]	; 0x7c
 304:	0240      	lsls	r0, r0, #9
 306:	4302      	orrs	r2, r0
 308:	67da      	str	r2, [r3, #124]	; 0x7c
 30a:	4a14      	ldr	r2, [pc, #80]	; (35c <_ZN5hwcpp3allIINS_12lpc1114_baseILi4096ELi32768ELi48000000EE17pin_in_out_pullupILi0ELi6EEENS_6invertINS3_ILi0ELi7EEEvEENS2_20pin_in_out_ad_pullupILi1ELi0ELi1EEENS5_INS8_ILi1ELi1ELi2EEEvEENS8_ILi1ELi2ELi3EEENS5_INS8_ILi1ELi3ELi4EEEvEENS8_ILi1ELi4ELi5EEENS5_INS3_ILi1ELi5EEEvEENS3_ILi1ELi8EEENS5_INS3_ILi1ELi9EEEvEEEE4initEv+0x60>)
 30c:	2107      	movs	r1, #7
 30e:	6814      	ldr	r4, [r2, #0]
 310:	2540      	movs	r5, #64	; 0x40
 312:	438c      	bics	r4, r1
 314:	6014      	str	r4, [r2, #0]
 316:	4a12      	ldr	r2, [pc, #72]	; (360 <_ZN5hwcpp3allIINS_12lpc1114_baseILi4096ELi32768ELi48000000EE17pin_in_out_pullupILi0ELi6EEENS_6invertINS3_ILi0ELi7EEEvEENS2_20pin_in_out_ad_pullupILi1ELi0ELi1EEENS5_INS8_ILi1ELi1ELi2EEEvEENS8_ILi1ELi2ELi3EEENS5_INS8_ILi1ELi3ELi4EEEvEENS8_ILi1ELi4ELi5EEENS5_INS3_ILi1ELi5EEEvEENS3_ILi1ELi8EEENS5_INS3_ILi1ELi9EEEvEEEE4initEv+0x64>)
 318:	6814      	ldr	r4, [r2, #0]
 31a:	432c      	orrs	r4, r5
 31c:	6014      	str	r4, [r2, #0]
 31e:	6fdc      	ldr	r4, [r3, #124]	; 0x7c
 320:	4304      	orrs	r4, r0
 322:	67dc      	str	r4, [r3, #124]	; 0x7c
 324:	4c0f      	ldr	r4, [pc, #60]	; (364 <_ZN5hwcpp3allIINS_12lpc1114_baseILi4096ELi32768ELi48000000EE17pin_in_out_pullupILi0ELi6EEENS_6invertINS3_ILi0ELi7EEEvEENS2_20pin_in_out_ad_pullupILi1ELi0ELi1EEENS5_INS8_ILi1ELi1ELi2EEEvEENS8_ILi1ELi2ELi3EEENS5_INS8_ILi1ELi3ELi4EEEvEENS8_ILi1ELi4ELi5EEENS5_INS3_ILi1ELi5EEEvEENS3_ILi1ELi8EEENS5_INS3_ILi1ELi9EEEvEEEE4initEv+0x68>)
 326:	6825      	ldr	r5, [r4, #0]
 328:	438d      	bics	r5, r1
 32a:	6025      	str	r5, [r4, #0]
 32c:	6814      	ldr	r4, [r2, #0]
 32e:	2580      	movs	r5, #128	; 0x80
 330:	432c      	orrs	r4, r5
 332:	6014      	str	r4, [r2, #0]
 334:	6fda      	ldr	r2, [r3, #124]	; 0x7c
 336:	4310      	orrs	r0, r2
 338:	67d8      	str	r0, [r3, #124]	; 0x7c
 33a:	4b0b      	ldr	r3, [pc, #44]	; (368 <_ZN5hwcpp3allIINS_12lpc1114_baseILi4096ELi32768ELi48000000EE17pin_in_out_pullupILi0ELi6EEENS_6invertINS3_ILi0ELi7EEEvEENS2_20pin_in_out_ad_pullupILi1ELi0ELi1EEENS5_INS8_ILi1ELi1ELi2EEEvEENS8_ILi1ELi2ELi3EEENS5_INS8_ILi1ELi3ELi4EEEvEENS8_ILi1ELi4ELi5EEENS5_INS3_ILi1ELi5EEEvEENS3_ILi1ELi8EEENS5_INS3_ILi1ELi9EEEvEEEE4initEv+0x6c>)
 33c:	681a      	ldr	r2, [r3, #0]
 33e:	438a      	bics	r2, r1
 340:	2181      	movs	r1, #129	; 0x81
 342:	430a      	orrs	r2, r1
 344:	601a      	str	r2, [r3, #0]
 346:	4b09      	ldr	r3, [pc, #36]	; (36c <_ZN5hwcpp3allIINS_12lpc1114_baseILi4096ELi32768ELi48000000EE17pin_in_out_pullupILi0ELi6EEENS_6invertINS3_ILi0ELi7EEEvEENS2_20pin_in_out_ad_pullupILi1ELi0ELi1EEENS5_INS8_ILi1ELi1ELi2EEEvEENS8_ILi1ELi2ELi3EEENS5_INS8_ILi1ELi3ELi4EEEvEENS8_ILi1ELi4ELi5EEENS5_INS3_ILi1ELi5EEEvEENS3_ILi1ELi8EEENS5_INS3_ILi1ELi9EEEvEEEE4initEv+0x70>)
 348:	2101      	movs	r1, #1
 34a:	681a      	ldr	r2, [r3, #0]
 34c:	430a      	orrs	r2, r1
 34e:	601a      	str	r2, [r3, #0]
 350:	f7ff ffaa 	bl	2a8 <_ZN5hwcpp3allIINS_6invertINS_12lpc1114_baseILi4096ELi32768ELi48000000EE20pin_in_out_ad_pullupILi1ELi1ELi2EEEvEENS4_ILi1ELi2ELi3EEENS1_INS4_ILi1ELi3ELi4EEEvEENS4_ILi1ELi4ELi5EEENS1_INS3_17pin_in_out_pullupILi1ELi5EEEvEENSB_ILi1ELi8EEENS1_INSB_ILi1ELi9EEEvEEEE4initEv>
 354:	bd38      	pop	{r3, r4, r5, pc}
 356:	46c0      	nop			; (mov r8, r8)
 358:	40048004 	.word	0x40048004
 35c:	4004404c 	.word	0x4004404c
 360:	50008000 	.word	0x50008000
 364:	40044050 	.word	0x40044050
 368:	40044078 	.word	0x40044078
 36c:	50018000 	.word	0x50018000

00000370 <_ZN5hwcpp8blinkingINS_3allIINS_12lpc1114_baseILi4096ELi32768ELi48000000EE6pin_ocILi0ELi4EEENS_6invertINS4_ILi0ELi5EEEvEENS3_17pin_in_out_pullupILi0ELi6EEENS6_INS9_ILi0ELi7EEEvEENS3_20pin_in_out_ad_pullupILi1ELi0ELi1EEENS6_INSD_ILi1ELi1ELi2EEEvEENSD_ILi1ELi2ELi3EEENS6_INSD_ILi1ELi3ELi4EEEvEENSD_ILi1ELi4ELi5EEENS6_INS9_ILi1ELi5EEEvEENS9_ILi1ELi8EEENS6_INS9_ILi1ELi9EEEvEEEEENS_23callback_implementationINS3_8timer_64ENS_37callback_administration_double_linkedEEEE5blinkENS_15moment_durationIxLx24EE8durationE>:
 370:	b5f7      	push	{r0, r1, r2, r4, r5, r6, r7, lr}
 372:	1c06      	adds	r6, r0, #0
 374:	1c0f      	adds	r7, r1, #0
 376:	f7ff fecf 	bl	118 <_ZN5hwcpp12lpc1114_baseILi4096ELi32768ELi48000000EE16initialize_clockEv>
 37a:	4b23      	ldr	r3, [pc, #140]	; (408 <__main_stack_size+0x8>)
 37c:	4a23      	ldr	r2, [pc, #140]	; (40c <__main_stack_size+0xc>)
 37e:	2500      	movs	r5, #0
 380:	601d      	str	r5, [r3, #0]
 382:	605a      	str	r2, [r3, #4]
 384:	2201      	movs	r2, #1
 386:	609d      	str	r5, [r3, #8]
 388:	601a      	str	r2, [r3, #0]
 38a:	4b21      	ldr	r3, [pc, #132]	; (410 <__main_stack_size+0x10>)
 38c:	2180      	movs	r1, #128	; 0x80
 38e:	6fda      	ldr	r2, [r3, #124]	; 0x7c
 390:	0249      	lsls	r1, r1, #9
 392:	430a      	orrs	r2, r1
 394:	481f      	ldr	r0, [pc, #124]	; (414 <__main_stack_size+0x14>)
 396:	67da      	str	r2, [r3, #124]	; 0x7c
 398:	6804      	ldr	r4, [r0, #0]
 39a:	2207      	movs	r2, #7
 39c:	4394      	bics	r4, r2
 39e:	6004      	str	r4, [r0, #0]
 3a0:	4c1d      	ldr	r4, [pc, #116]	; (418 <__main_stack_size+0x18>)
 3a2:	2210      	movs	r2, #16
 3a4:	6820      	ldr	r0, [r4, #0]
 3a6:	4310      	orrs	r0, r2
 3a8:	6020      	str	r0, [r4, #0]
 3aa:	6fd8      	ldr	r0, [r3, #124]	; 0x7c
 3ac:	4301      	orrs	r1, r0
 3ae:	67d9      	str	r1, [r3, #124]	; 0x7c
 3b0:	4b1a      	ldr	r3, [pc, #104]	; (41c <__main_stack_size+0x1c>)
 3b2:	2007      	movs	r0, #7
 3b4:	6819      	ldr	r1, [r3, #0]
 3b6:	1c0a      	adds	r2, r1, #0
 3b8:	4382      	bics	r2, r0
 3ba:	601a      	str	r2, [r3, #0]
 3bc:	6823      	ldr	r3, [r4, #0]
 3be:	2220      	movs	r2, #32
 3c0:	4313      	orrs	r3, r2
 3c2:	6023      	str	r3, [r4, #0]
 3c4:	f7ff ff9a 	bl	2fc <_ZN5hwcpp3allIINS_12lpc1114_baseILi4096ELi32768ELi48000000EE17pin_in_out_pullupILi0ELi6EEENS_6invertINS3_ILi0ELi7EEEvEENS2_20pin_in_out_ad_pullupILi1ELi0ELi1EEENS5_INS8_ILi1ELi1ELi2EEEvEENS8_ILi1ELi2ELi3EEENS5_INS8_ILi1ELi3ELi4EEEvEENS8_ILi1ELi4ELi5EEENS5_INS3_ILi1ELi5EEEvEENS3_ILi1ELi8EEENS5_INS3_ILi1ELi9EEEvEEEE4initEv>
 3c8:	1c2b      	adds	r3, r5, #0
 3ca:	0ffa      	lsrs	r2, r7, #31
 3cc:	1992      	adds	r2, r2, r6
 3ce:	417b      	adcs	r3, r7
 3d0:	07d9      	lsls	r1, r3, #31
 3d2:	0855      	lsrs	r5, r2, #1
 3d4:	430d      	orrs	r5, r1
 3d6:	105e      	asrs	r6, r3, #1
 3d8:	6823      	ldr	r3, [r4, #0]
 3da:	2710      	movs	r7, #16
 3dc:	43bb      	bics	r3, r7
 3de:	6023      	str	r3, [r4, #0]
 3e0:	2001      	movs	r0, #1
 3e2:	f7ff feeb 	bl	1bc <_ZN5hwcpp3allIINS_6invertINS_12lpc1114_baseILi4096ELi32768ELi48000000EE6pin_ocILi0ELi5EEEvEENS3_17pin_in_out_pullupILi0ELi6EEENS1_INS7_ILi0ELi7EEEvEENS3_20pin_in_out_ad_pullupILi1ELi0ELi1EEENS1_INSB_ILi1ELi1ELi2EEEvEENSB_ILi1ELi2ELi3EEENS1_INSB_ILi1ELi3ELi4EEEvEENSB_ILi1ELi4ELi5EEENS1_INS7_ILi1ELi5EEEvEENS7_ILi1ELi8EEENS1_INS7_ILi1ELi9EEEvEEEE3setEb>
 3e6:	1c31      	adds	r1, r6, #0
 3e8:	1c28      	adds	r0, r5, #0
 3ea:	f7ff fe87 	bl	fc <_ZN5hwcpp23callback_implementationINS_12lpc1114_baseILi4096ELi32768ELi48000000EE8timer_64ENS_37callback_administration_double_linkedEE4waitENS_15moment_durationIxLx24EE8durationE>
 3ee:	6823      	ldr	r3, [r4, #0]
 3f0:	2000      	movs	r0, #0
 3f2:	431f      	orrs	r7, r3
 3f4:	4b0a      	ldr	r3, [pc, #40]	; (420 <__main_stack_size+0x20>)
 3f6:	6027      	str	r7, [r4, #0]
 3f8:	6018      	str	r0, [r3, #0]
 3fa:	f7ff fedf 	bl	1bc <_ZN5hwcpp3allIINS_6invertINS_12lpc1114_baseILi4096ELi32768ELi48000000EE6pin_ocILi0ELi5EEEvEENS3_17pin_in_out_pullupILi0ELi6EEENS1_INS7_ILi0ELi7EEEvEENS3_20pin_in_out_ad_pullupILi1ELi0ELi1EEENS1_INSB_ILi1ELi1ELi2EEEvEENSB_ILi1ELi2ELi3EEENS1_INSB_ILi1ELi3ELi4EEEvEENSB_ILi1ELi4ELi5EEENS1_INS7_ILi1ELi5EEEvEENS7_ILi1ELi8EEENS1_INS7_ILi1ELi9EEEvEEEE3setEb>
 3fe:	1c28      	adds	r0, r5, #0
 400:	1c31      	adds	r1, r6, #0
 402:	f7ff fe7b 	bl	fc <_ZN5hwcpp23callback_implementationINS_12lpc1114_baseILi4096ELi32768ELi48000000EE8timer_64ENS_37callback_administration_double_linkedEE4waitENS_15moment_durationIxLx24EE8durationE>
 406:	e7e7      	b.n	3d8 <_ZN5hwcpp8blinkingINS_3allIINS_12lpc1114_baseILi4096ELi32768ELi48000000EE6pin_ocILi0ELi4EEENS_6invertINS4_ILi0ELi5EEEvEENS3_17pin_in_out_pullupILi0ELi6EEENS6_INS9_ILi0ELi7EEEvEENS3_20pin_in_out_ad_pullupILi1ELi0ELi1EEENS6_INSD_ILi1ELi1ELi2EEEvEENSD_ILi1ELi2ELi3EEENS6_INSD_ILi1ELi3ELi4EEEvEENSD_ILi1ELi4ELi5EEENS6_INS9_ILi1ELi5EEEvEENS9_ILi1ELi8EEENS6_INS9_ILi1ELi9EEEvEEEEENS_23callback_implementationINS3_8timer_64ENS_37callback_administration_double_linkedEEEE5blinkENS_15moment_durationIxLx24EE8durationE+0x68>
 408:	e000e010 	.word	0xe000e010
 40c:	00ffffff 	.word	0x00ffffff
 410:	40048004 	.word	0x40048004
 414:	40044030 	.word	0x40044030
 418:	50008000 	.word	0x50008000
 41c:	40044034 	.word	0x40044034
 420:	50000040 	.word	0x50000040
 424:	00000000 	.word	0x00000000

00000428 <main>:
 428:	b508      	push	{r3, lr}
 42a:	4904      	ldr	r1, [pc, #16]	; (43c <main+0x14>)
 42c:	4802      	ldr	r0, [pc, #8]	; (438 <main+0x10>)
 42e:	f7ff ff9f 	bl	370 <_ZN5hwcpp8blinkingINS_3allIINS_12lpc1114_baseILi4096ELi32768ELi48000000EE6pin_ocILi0ELi4EEENS_6invertINS4_ILi0ELi5EEEvEENS3_17pin_in_out_pullupILi0ELi6EEENS6_INS9_ILi0ELi7EEEvEENS3_20pin_in_out_ad_pullupILi1ELi0ELi1EEENS6_INSD_ILi1ELi1ELi2EEEvEENSD_ILi1ELi2ELi3EEENS6_INSD_ILi1ELi3ELi4EEEvEENSD_ILi1ELi4ELi5EEENS6_INS9_ILi1ELi5EEEvEENS9_ILi1ELi8EEENS6_INS9_ILi1ELi9EEEvEEEEENS_23callback_implementationINS3_8timer_64ENS_37callback_administration_double_linkedEEEE5blinkENS_15moment_durationIxLx24EE8durationE>
 432:	46c0      	nop			; (mov r8, r8)
 434:	46c0      	nop			; (mov r8, r8)
 436:	46c0      	nop			; (mov r8, r8)
 438:	00b71b00 	.word	0x00b71b00
 43c:	00000000 	.word	0x00000000

00000440 <__startup>:
 440:	b510      	push	{r4, lr}
 442:	4b0f      	ldr	r3, [pc, #60]	; (480 <__startup+0x40>)
 444:	4a0f      	ldr	r2, [pc, #60]	; (484 <__startup+0x44>)
 446:	1d19      	adds	r1, r3, #4
 448:	3b04      	subs	r3, #4
 44a:	4293      	cmp	r3, r2
 44c:	d003      	beq.n	456 <__startup+0x16>
 44e:	2200      	movs	r2, #0
 450:	601a      	str	r2, [r3, #0]
 452:	1c0b      	adds	r3, r1, #0
 454:	e7f6      	b.n	444 <__startup+0x4>
 456:	4a0c      	ldr	r2, [pc, #48]	; (488 <__startup+0x48>)
 458:	490c      	ldr	r1, [pc, #48]	; (48c <__startup+0x4c>)
 45a:	2300      	movs	r3, #0
 45c:	1a89      	subs	r1, r1, r2
 45e:	0889      	lsrs	r1, r1, #2
 460:	3101      	adds	r1, #1
 462:	0089      	lsls	r1, r1, #2
 464:	3304      	adds	r3, #4
 466:	428b      	cmp	r3, r1
 468:	d007      	beq.n	47a <__startup+0x3a>
 46a:	4c09      	ldr	r4, [pc, #36]	; (490 <__startup+0x50>)
 46c:	18d0      	adds	r0, r2, r3
 46e:	191c      	adds	r4, r3, r4
 470:	3c04      	subs	r4, #4
 472:	6824      	ldr	r4, [r4, #0]
 474:	3804      	subs	r0, #4
 476:	6004      	str	r4, [r0, #0]
 478:	e7f4      	b.n	464 <__startup+0x24>
 47a:	f7ff ffd5 	bl	428 <main>
 47e:	e7fe      	b.n	47e <__startup+0x3e>
 480:	10000004 	.word	0x10000004
 484:	10000030 	.word	0x10000030
 488:	10000000 	.word	0x10000000
 48c:	10000000 	.word	0x10000000
 490:	000004a8 	.word	0x000004a8
 494:	00000000 	.word	0x00000000

00000498 <_ZTVN5hwcpp37callback_administration_double_linkedINS_21timing_implementationINS_12lpc1114_baseILi4096ELi32768ELi48000000EE8timer_64EEEE5_nodeE>:
	...
 4a0:	00000021 00000000                       !.......
