	.cpu cortex-m0
	.fpu softvfp
	.eabi_attribute 20, 1
	.eabi_attribute 21, 1
	.eabi_attribute 23, 3
	.eabi_attribute 24, 1
	.eabi_attribute 25, 1
	.eabi_attribute 26, 1
	.eabi_attribute 30, 4
	.eabi_attribute 34, 0
	.eabi_attribute 18, 4
	.code	16
	.file	"main.cpp"
	.section	.text._ZN5hwcpp37callback_administration_double_linkedINS_21timing_implementationINS_12lpc1114_baseILi4096ELi32768ELi48000000EE8timer_64EEEE5clockIvvE5visitENS_15moment_durationIxLx24EE6momentE,"axG",%progbits,_ZN5hwcpp37callback_administration_double_linkedINS_21timing_implementationINS_12lpc1114_baseILi4096ELi32768ELi48000000EE8timer_64EEEE5clockIvvE5visitENS_15moment_durationIxLx24EE6momentE,comdat
	.align	1
	.weak	_ZN5hwcpp37callback_administration_double_linkedINS_21timing_implementationINS_12lpc1114_baseILi4096ELi32768ELi48000000EE8timer_64EEEE5clockIvvE5visitENS_15moment_durationIxLx24EE6momentE
	.code	16
	.thumb_func
	.type	_ZN5hwcpp37callback_administration_double_linkedINS_21timing_implementationINS_12lpc1114_baseILi4096ELi32768ELi48000000EE8timer_64EEEE5clockIvvE5visitENS_15moment_durationIxLx24EE6momentE, %function
_ZN5hwcpp37callback_administration_double_linkedINS_21timing_implementationINS_12lpc1114_baseILi4096ELi32768ELi48000000EE8timer_64EEEE5clockIvvE5visitENS_15moment_durationIxLx24EE6momentE:
	push	{r3, r4, r5, lr}
	ldr	r2, [r0, #16]
	ldr	r3, [r0, #20]
	ldr	r4, [r0, #24]
	ldr	r5, [r0, #28]
	add	r2, r2, r4
	adc	r3, r3, r5
	str	r2, [r0, #16]
	str	r3, [r0, #20]
	ldr	r3, [r0]
	@ sp needed
	ldr	r3, [r3, #4]
	blx	r3
	pop	{r3, r4, r5, pc}
	.size	_ZN5hwcpp37callback_administration_double_linkedINS_21timing_implementationINS_12lpc1114_baseILi4096ELi32768ELi48000000EE8timer_64EEEE5clockIvvE5visitENS_15moment_durationIxLx24EE6momentE, .-_ZN5hwcpp37callback_administration_double_linkedINS_21timing_implementationINS_12lpc1114_baseILi4096ELi32768ELi48000000EE8timer_64EEEE5clockIvvE5visitENS_15moment_durationIxLx24EE6momentE
	.section	.text._ZN5hwcpp37callback_administration_double_linkedINS_21timing_implementationINS_12lpc1114_baseILi4096ELi32768ELi48000000EE8timer_64EEEE4node8functionEv,"axG",%progbits,_ZN5hwcpp37callback_administration_double_linkedINS_21timing_implementationINS_12lpc1114_baseILi4096ELi32768ELi48000000EE8timer_64EEEE4node8functionEv,comdat
	.align	1
	.weak	_ZN5hwcpp37callback_administration_double_linkedINS_21timing_implementationINS_12lpc1114_baseILi4096ELi32768ELi48000000EE8timer_64EEEE4node8functionEv
	.code	16
	.thumb_func
	.type	_ZN5hwcpp37callback_administration_double_linkedINS_21timing_implementationINS_12lpc1114_baseILi4096ELi32768ELi48000000EE8timer_64EEEE4node8functionEv, %function
_ZN5hwcpp37callback_administration_double_linkedINS_21timing_implementationINS_12lpc1114_baseILi4096ELi32768ELi48000000EE8timer_64EEEE4node8functionEv:
	@ sp needed
	bx	lr
	.size	_ZN5hwcpp37callback_administration_double_linkedINS_21timing_implementationINS_12lpc1114_baseILi4096ELi32768ELi48000000EE8timer_64EEEE4node8functionEv, .-_ZN5hwcpp37callback_administration_double_linkedINS_21timing_implementationINS_12lpc1114_baseILi4096ELi32768ELi48000000EE8timer_64EEEE4node8functionEv
	.section	.text._ZN5hwcpp37callback_administration_double_linkedINS_21timing_implementationINS_12lpc1114_baseILi4096ELi32768ELi48000000EE8timer_64EEEE5_node5visitENS_15moment_durationIxLx24EE6momentE,"axG",%progbits,_ZN5hwcpp37callback_administration_double_linkedINS_21timing_implementationINS_12lpc1114_baseILi4096ELi32768ELi48000000EE8timer_64EEEE5_node5visitENS_15moment_durationIxLx24EE6momentE,comdat
	.align	1
	.weak	_ZN5hwcpp37callback_administration_double_linkedINS_21timing_implementationINS_12lpc1114_baseILi4096ELi32768ELi48000000EE8timer_64EEEE5_node5visitENS_15moment_durationIxLx24EE6momentE
	.code	16
	.thumb_func
	.type	_ZN5hwcpp37callback_administration_double_linkedINS_21timing_implementationINS_12lpc1114_baseILi4096ELi32768ELi48000000EE8timer_64EEEE5_node5visitENS_15moment_durationIxLx24EE6momentE, %function
_ZN5hwcpp37callback_administration_double_linkedINS_21timing_implementationINS_12lpc1114_baseILi4096ELi32768ELi48000000EE8timer_64EEEE5_node5visitENS_15moment_durationIxLx24EE6momentE:
	@ sp needed
	bx	lr
	.size	_ZN5hwcpp37callback_administration_double_linkedINS_21timing_implementationINS_12lpc1114_baseILi4096ELi32768ELi48000000EE8timer_64EEEE5_node5visitENS_15moment_durationIxLx24EE6momentE, .-_ZN5hwcpp37callback_administration_double_linkedINS_21timing_implementationINS_12lpc1114_baseILi4096ELi32768ELi48000000EE8timer_64EEEE5_node5visitENS_15moment_durationIxLx24EE6momentE
	.section	.text._ZN5hwcpp21seven_segment_displayINS_23callback_implementationINS_12lpc1114_baseILi4096ELi32768ELi48000000EE8timer_64ENS_37callback_administration_double_linkedEEENS_6invertINS_18port_out_from_pinsIINS3_17pin_in_out_pullupILi0ELi2EEENS9_ILi0ELi3EEENS3_6pin_ocILi0ELi4EEENSC_ILi0ELi5EEENS9_ILi0ELi6EEENS9_ILi0ELi7EEENS9_ILi0ELi8EEENS9_ILi0ELi9EEEEEEvEENS8_IINS9_ILi1ELi9EEENS9_ILi1ELi8EEENS9_ILi1ELi5EEENS3_20pin_in_out_ad_pullupILi1ELi4ELi5EEEEEENS_28seven_segments_table_defaultIvEEE12multiplexingD2Ev,"axG",%progbits,_ZN5hwcpp21seven_segment_displayINS_23callback_implementationINS_12lpc1114_baseILi4096ELi32768ELi48000000EE8timer_64ENS_37callback_administration_double_linkedEEENS_6invertINS_18port_out_from_pinsIINS3_17pin_in_out_pullupILi0ELi2EEENS9_ILi0ELi3EEENS3_6pin_ocILi0ELi4EEENSC_ILi0ELi5EEENS9_ILi0ELi6EEENS9_ILi0ELi7EEENS9_ILi0ELi8EEENS9_ILi0ELi9EEEEEEvEENS8_IINS9_ILi1ELi9EEENS9_ILi1ELi8EEENS9_ILi1ELi5EEENS3_20pin_in_out_ad_pullupILi1ELi4ELi5EEEEEENS_28seven_segments_table_defaultIvEEE12multiplexingD5Ev,comdat
	.align	1
	.weak	_ZN5hwcpp21seven_segment_displayINS_23callback_implementationINS_12lpc1114_baseILi4096ELi32768ELi48000000EE8timer_64ENS_37callback_administration_double_linkedEEENS_6invertINS_18port_out_from_pinsIINS3_17pin_in_out_pullupILi0ELi2EEENS9_ILi0ELi3EEENS3_6pin_ocILi0ELi4EEENSC_ILi0ELi5EEENS9_ILi0ELi6EEENS9_ILi0ELi7EEENS9_ILi0ELi8EEENS9_ILi0ELi9EEEEEEvEENS8_IINS9_ILi1ELi9EEENS9_ILi1ELi8EEENS9_ILi1ELi5EEENS3_20pin_in_out_ad_pullupILi1ELi4ELi5EEEEEENS_28seven_segments_table_defaultIvEEE12multiplexingD2Ev
	.code	16
	.thumb_func
	.type	_ZN5hwcpp21seven_segment_displayINS_23callback_implementationINS_12lpc1114_baseILi4096ELi32768ELi48000000EE8timer_64ENS_37callback_administration_double_linkedEEENS_6invertINS_18port_out_from_pinsIINS3_17pin_in_out_pullupILi0ELi2EEENS9_ILi0ELi3EEENS3_6pin_ocILi0ELi4EEENSC_ILi0ELi5EEENS9_ILi0ELi6EEENS9_ILi0ELi7EEENS9_ILi0ELi8EEENS9_ILi0ELi9EEEEEEvEENS8_IINS9_ILi1ELi9EEENS9_ILi1ELi8EEENS9_ILi1ELi5EEENS3_20pin_in_out_ad_pullupILi1ELi4ELi5EEEEEENS_28seven_segments_table_defaultIvEEE12multiplexingD2Ev, %function
_ZN5hwcpp21seven_segment_displayINS_23callback_implementationINS_12lpc1114_baseILi4096ELi32768ELi48000000EE8timer_64ENS_37callback_administration_double_linkedEEENS_6invertINS_18port_out_from_pinsIINS3_17pin_in_out_pullupILi0ELi2EEENS9_ILi0ELi3EEENS3_6pin_ocILi0ELi4EEENSC_ILi0ELi5EEENS9_ILi0ELi6EEENS9_ILi0ELi7EEENS9_ILi0ELi8EEENS9_ILi0ELi9EEEEEEvEENS8_IINS9_ILi1ELi9EEENS9_ILi1ELi8EEENS9_ILi1ELi5EEENS3_20pin_in_out_ad_pullupILi1ELi4ELi5EEEEEENS_28seven_segments_table_defaultIvEEE12multiplexingD2Ev:
	ldr	r3, .L5
	ldr	r2, [r0, #8]
	str	r3, [r0]
	ldr	r3, [r0, #4]
	@ sp needed
	str	r2, [r3, #8]
	ldr	r2, [r0, #8]
	str	r3, [r2, #4]
	str	r0, [r0, #4]
	str	r0, [r0, #8]
	bx	lr
.L6:
	.align	2
.L5:
	.word	_ZTVN5hwcpp37callback_administration_double_linkedINS_21timing_implementationINS_12lpc1114_baseILi4096ELi32768ELi48000000EE8timer_64EEEE4nodeE+8
	.size	_ZN5hwcpp21seven_segment_displayINS_23callback_implementationINS_12lpc1114_baseILi4096ELi32768ELi48000000EE8timer_64ENS_37callback_administration_double_linkedEEENS_6invertINS_18port_out_from_pinsIINS3_17pin_in_out_pullupILi0ELi2EEENS9_ILi0ELi3EEENS3_6pin_ocILi0ELi4EEENSC_ILi0ELi5EEENS9_ILi0ELi6EEENS9_ILi0ELi7EEENS9_ILi0ELi8EEENS9_ILi0ELi9EEEEEEvEENS8_IINS9_ILi1ELi9EEENS9_ILi1ELi8EEENS9_ILi1ELi5EEENS3_20pin_in_out_ad_pullupILi1ELi4ELi5EEEEEENS_28seven_segments_table_defaultIvEEE12multiplexingD2Ev, .-_ZN5hwcpp21seven_segment_displayINS_23callback_implementationINS_12lpc1114_baseILi4096ELi32768ELi48000000EE8timer_64ENS_37callback_administration_double_linkedEEENS_6invertINS_18port_out_from_pinsIINS3_17pin_in_out_pullupILi0ELi2EEENS9_ILi0ELi3EEENS3_6pin_ocILi0ELi4EEENSC_ILi0ELi5EEENS9_ILi0ELi6EEENS9_ILi0ELi7EEENS9_ILi0ELi8EEENS9_ILi0ELi9EEEEEEvEENS8_IINS9_ILi1ELi9EEENS9_ILi1ELi8EEENS9_ILi1ELi5EEENS3_20pin_in_out_ad_pullupILi1ELi4ELi5EEEEEENS_28seven_segments_table_defaultIvEEE12multiplexingD2Ev
	.weak	_ZN5hwcpp21seven_segment_displayINS_23callback_implementationINS_12lpc1114_baseILi4096ELi32768ELi48000000EE8timer_64ENS_37callback_administration_double_linkedEEENS_6invertINS_18port_out_from_pinsIJNS3_17pin_in_out_pullupILi0ELi2EEENS9_ILi0ELi3EEENS3_6pin_ocILi0ELi4EEENSC_ILi0ELi5EEENS9_ILi0ELi6EEENS9_ILi0ELi7EEENS9_ILi0ELi8EEENS9_ILi0ELi9EEEEEEvEENS8_IJNS9_ILi1ELi9EEENS9_ILi1ELi8EEENS9_ILi1ELi5EEENS3_20pin_in_out_ad_pullupILi1ELi4ELi5EEEEEENS_28seven_segments_table_defaultIvEEE12multiplexingD2Ev
	.thumb_set _ZN5hwcpp21seven_segment_displayINS_23callback_implementationINS_12lpc1114_baseILi4096ELi32768ELi48000000EE8timer_64ENS_37callback_administration_double_linkedEEENS_6invertINS_18port_out_from_pinsIJNS3_17pin_in_out_pullupILi0ELi2EEENS9_ILi0ELi3EEENS3_6pin_ocILi0ELi4EEENSC_ILi0ELi5EEENS9_ILi0ELi6EEENS9_ILi0ELi7EEENS9_ILi0ELi8EEENS9_ILi0ELi9EEEEEEvEENS8_IJNS9_ILi1ELi9EEENS9_ILi1ELi8EEENS9_ILi1ELi5EEENS3_20pin_in_out_ad_pullupILi1ELi4ELi5EEEEEENS_28seven_segments_table_defaultIvEEE12multiplexingD2Ev,_ZN5hwcpp21seven_segment_displayINS_23callback_implementationINS_12lpc1114_baseILi4096ELi32768ELi48000000EE8timer_64ENS_37callback_administration_double_linkedEEENS_6invertINS_18port_out_from_pinsIINS3_17pin_in_out_pullupILi0ELi2EEENS9_ILi0ELi3EEENS3_6pin_ocILi0ELi4EEENSC_ILi0ELi5EEENS9_ILi0ELi6EEENS9_ILi0ELi7EEENS9_ILi0ELi8EEENS9_ILi0ELi9EEEEEEvEENS8_IINS9_ILi1ELi9EEENS9_ILi1ELi8EEENS9_ILi1ELi5EEENS3_20pin_in_out_ad_pullupILi1ELi4ELi5EEEEEENS_28seven_segments_table_defaultIvEEE12multiplexingD2Ev
	.weak	_ZN5hwcpp21seven_segment_displayINS_23callback_implementationINS_12lpc1114_baseILi4096ELi32768ELi48000000EE8timer_64ENS_37callback_administration_double_linkedEEENS_6invertINS_18port_out_from_pinsIINS3_17pin_in_out_pullupILi0ELi2EEENS9_ILi0ELi3EEENS3_6pin_ocILi0ELi4EEENSC_ILi0ELi5EEENS9_ILi0ELi6EEENS9_ILi0ELi7EEENS9_ILi0ELi8EEENS9_ILi0ELi9EEEEEEvEENS8_IINS9_ILi1ELi9EEENS9_ILi1ELi8EEENS9_ILi1ELi5EEENS3_20pin_in_out_ad_pullupILi1ELi4ELi5EEEEEENS_28seven_segments_table_defaultIvEEE12multiplexingD1Ev
	.thumb_set _ZN5hwcpp21seven_segment_displayINS_23callback_implementationINS_12lpc1114_baseILi4096ELi32768ELi48000000EE8timer_64ENS_37callback_administration_double_linkedEEENS_6invertINS_18port_out_from_pinsIINS3_17pin_in_out_pullupILi0ELi2EEENS9_ILi0ELi3EEENS3_6pin_ocILi0ELi4EEENSC_ILi0ELi5EEENS9_ILi0ELi6EEENS9_ILi0ELi7EEENS9_ILi0ELi8EEENS9_ILi0ELi9EEEEEEvEENS8_IINS9_ILi1ELi9EEENS9_ILi1ELi8EEENS9_ILi1ELi5EEENS3_20pin_in_out_ad_pullupILi1ELi4ELi5EEEEEENS_28seven_segments_table_defaultIvEEE12multiplexingD1Ev,_ZN5hwcpp21seven_segment_displayINS_23callback_implementationINS_12lpc1114_baseILi4096ELi32768ELi48000000EE8timer_64ENS_37callback_administration_double_linkedEEENS_6invertINS_18port_out_from_pinsIINS3_17pin_in_out_pullupILi0ELi2EEENS9_ILi0ELi3EEENS3_6pin_ocILi0ELi4EEENSC_ILi0ELi5EEENS9_ILi0ELi6EEENS9_ILi0ELi7EEENS9_ILi0ELi8EEENS9_ILi0ELi9EEEEEEvEENS8_IINS9_ILi1ELi9EEENS9_ILi1ELi8EEENS9_ILi1ELi5EEENS3_20pin_in_out_ad_pullupILi1ELi4ELi5EEEEEENS_28seven_segments_table_defaultIvEEE12multiplexingD2Ev
	.weak	_ZN5hwcpp21seven_segment_displayINS_23callback_implementationINS_12lpc1114_baseILi4096ELi32768ELi48000000EE8timer_64ENS_37callback_administration_double_linkedEEENS_6invertINS_18port_out_from_pinsIJNS3_17pin_in_out_pullupILi0ELi2EEENS9_ILi0ELi3EEENS3_6pin_ocILi0ELi4EEENSC_ILi0ELi5EEENS9_ILi0ELi6EEENS9_ILi0ELi7EEENS9_ILi0ELi8EEENS9_ILi0ELi9EEEEEEvEENS8_IJNS9_ILi1ELi9EEENS9_ILi1ELi8EEENS9_ILi1ELi5EEENS3_20pin_in_out_ad_pullupILi1ELi4ELi5EEEEEENS_28seven_segments_table_defaultIvEEE12multiplexingD1Ev
	.thumb_set _ZN5hwcpp21seven_segment_displayINS_23callback_implementationINS_12lpc1114_baseILi4096ELi32768ELi48000000EE8timer_64ENS_37callback_administration_double_linkedEEENS_6invertINS_18port_out_from_pinsIJNS3_17pin_in_out_pullupILi0ELi2EEENS9_ILi0ELi3EEENS3_6pin_ocILi0ELi4EEENSC_ILi0ELi5EEENS9_ILi0ELi6EEENS9_ILi0ELi7EEENS9_ILi0ELi8EEENS9_ILi0ELi9EEEEEEvEENS8_IJNS9_ILi1ELi9EEENS9_ILi1ELi8EEENS9_ILi1ELi5EEENS3_20pin_in_out_ad_pullupILi1ELi4ELi5EEEEEENS_28seven_segments_table_defaultIvEEE12multiplexingD1Ev,_ZN5hwcpp21seven_segment_displayINS_23callback_implementationINS_12lpc1114_baseILi4096ELi32768ELi48000000EE8timer_64ENS_37callback_administration_double_linkedEEENS_6invertINS_18port_out_from_pinsIINS3_17pin_in_out_pullupILi0ELi2EEENS9_ILi0ELi3EEENS3_6pin_ocILi0ELi4EEENSC_ILi0ELi5EEENS9_ILi0ELi6EEENS9_ILi0ELi7EEENS9_ILi0ELi8EEENS9_ILi0ELi9EEEEEEvEENS8_IINS9_ILi1ELi9EEENS9_ILi1ELi8EEENS9_ILi1ELi5EEENS3_20pin_in_out_ad_pullupILi1ELi4ELi5EEEEEENS_28seven_segments_table_defaultIvEEE12multiplexingD1Ev
	.section	.text._ZN5hwcpp13timing_waiterINS_12lpc1114_baseILi4096ELi32768ELi48000000EE8timer_64EE3nowEv,"axG",%progbits,_ZN5hwcpp13timing_waiterINS_12lpc1114_baseILi4096ELi32768ELi48000000EE8timer_64EE3nowEv,comdat
	.align	1
	.weak	_ZN5hwcpp13timing_waiterINS_12lpc1114_baseILi4096ELi32768ELi48000000EE8timer_64EE3nowEv
	.code	16
	.thumb_func
	.type	_ZN5hwcpp13timing_waiterINS_12lpc1114_baseILi4096ELi32768ELi48000000EE8timer_64EE3nowEv, %function
_ZN5hwcpp13timing_waiterINS_12lpc1114_baseILi4096ELi32768ELi48000000EE8timer_64EE3nowEv:
	ldr	r3, .L10+8
	push	{r4, r5, r6, r7, lr}
	ldr	r4, [r3, #8]
	ldr	r3, .L10+12
	mvn	r4, r4
	ldr	r2, [r3]
	lsl	r4, r4, #8
	lsr	r4, r4, #8
	mov	r5, r3
	ldr	r1, .L10+16
	cmp	r4, r2
	bcs	.L8
	ldr	r6, [r1]
	ldr	r7, [r1, #4]
	ldr	r3, .L10+4
	ldr	r2, .L10
	add	r2, r2, r6
	adc	r3, r3, r7
	str	r2, [r1]
	str	r3, [r1, #4]
.L8:
	ldr	r7, [r1]
	ldr	r1, [r1, #4]
	str	r4, [r5]
	orr	r4, r7
	str	r4, [r0]
	str	r1, [r0, #4]
	@ sp needed
	pop	{r4, r5, r6, r7, pc}
.L11:
	.align	3
.L10:
	.word	16777216
	.word	0
	.word	-536813552
	.word	_ZZN5hwcpp12lpc1114_baseILi4096ELi32768ELi48000000EE8timer_643nowEvE8last_low
	.word	_ZZN5hwcpp12lpc1114_baseILi4096ELi32768ELi48000000EE8timer_643nowEvE4high
	.size	_ZN5hwcpp13timing_waiterINS_12lpc1114_baseILi4096ELi32768ELi48000000EE8timer_64EE3nowEv, .-_ZN5hwcpp13timing_waiterINS_12lpc1114_baseILi4096ELi32768ELi48000000EE8timer_64EE3nowEv
	.global	__aeabi_uidivmod
	.global	__aeabi_uidiv
	.section	.text._ZN5hwcpp21seven_segment_displayINS_23callback_implementationINS_12lpc1114_baseILi4096ELi32768ELi48000000EE8timer_64ENS_37callback_administration_double_linkedEEENS_6invertINS_18port_out_from_pinsIINS3_17pin_in_out_pullupILi0ELi2EEENS9_ILi0ELi3EEENS3_6pin_ocILi0ELi4EEENSC_ILi0ELi5EEENS9_ILi0ELi6EEENS9_ILi0ELi7EEENS9_ILi0ELi8EEENS9_ILi0ELi9EEEEEEvEENS8_IINS9_ILi1ELi9EEENS9_ILi1ELi8EEENS9_ILi1ELi5EEENS3_20pin_in_out_ad_pullupILi1ELi4ELi5EEEEEENS_28seven_segments_table_defaultIvEEE17set_decimal_valueEjjb,"axG",%progbits,_ZN5hwcpp21seven_segment_displayINS_23callback_implementationINS_12lpc1114_baseILi4096ELi32768ELi48000000EE8timer_64ENS_37callback_administration_double_linkedEEENS_6invertINS_18port_out_from_pinsIINS3_17pin_in_out_pullupILi0ELi2EEENS9_ILi0ELi3EEENS3_6pin_ocILi0ELi4EEENSC_ILi0ELi5EEENS9_ILi0ELi6EEENS9_ILi0ELi7EEENS9_ILi0ELi8EEENS9_ILi0ELi9EEEEEEvEENS8_IINS9_ILi1ELi9EEENS9_ILi1ELi8EEENS9_ILi1ELi5EEENS3_20pin_in_out_ad_pullupILi1ELi4ELi5EEEEEENS_28seven_segments_table_defaultIvEEE17set_decimal_valueEjjb,comdat
	.align	1
	.weak	_ZN5hwcpp21seven_segment_displayINS_23callback_implementationINS_12lpc1114_baseILi4096ELi32768ELi48000000EE8timer_64ENS_37callback_administration_double_linkedEEENS_6invertINS_18port_out_from_pinsIINS3_17pin_in_out_pullupILi0ELi2EEENS9_ILi0ELi3EEENS3_6pin_ocILi0ELi4EEENSC_ILi0ELi5EEENS9_ILi0ELi6EEENS9_ILi0ELi7EEENS9_ILi0ELi8EEENS9_ILi0ELi9EEEEEEvEENS8_IINS9_ILi1ELi9EEENS9_ILi1ELi8EEENS9_ILi1ELi5EEENS3_20pin_in_out_ad_pullupILi1ELi4ELi5EEEEEENS_28seven_segments_table_defaultIvEEE17set_decimal_valueEjjb
	.code	16
	.thumb_func
	.type	_ZN5hwcpp21seven_segment_displayINS_23callback_implementationINS_12lpc1114_baseILi4096ELi32768ELi48000000EE8timer_64ENS_37callback_administration_double_linkedEEENS_6invertINS_18port_out_from_pinsIINS3_17pin_in_out_pullupILi0ELi2EEENS9_ILi0ELi3EEENS3_6pin_ocILi0ELi4EEENSC_ILi0ELi5EEENS9_ILi0ELi6EEENS9_ILi0ELi7EEENS9_ILi0ELi8EEENS9_ILi0ELi9EEEEEEvEENS8_IINS9_ILi1ELi9EEENS9_ILi1ELi8EEENS9_ILi1ELi5EEENS3_20pin_in_out_ad_pullupILi1ELi4ELi5EEEEEENS_28seven_segments_table_defaultIvEEE17set_decimal_valueEjjb, %function
_ZN5hwcpp21seven_segment_displayINS_23callback_implementationINS_12lpc1114_baseILi4096ELi32768ELi48000000EE8timer_64ENS_37callback_administration_double_linkedEEENS_6invertINS_18port_out_from_pinsIINS3_17pin_in_out_pullupILi0ELi2EEENS9_ILi0ELi3EEENS3_6pin_ocILi0ELi4EEENSC_ILi0ELi5EEENS9_ILi0ELi6EEENS9_ILi0ELi7EEENS9_ILi0ELi8EEENS9_ILi0ELi9EEEEEEvEENS8_IINS9_ILi1ELi9EEENS9_ILi1ELi8EEENS9_ILi1ELi5EEENS3_20pin_in_out_ad_pullupILi1ELi4ELi5EEEEEENS_28seven_segments_table_defaultIvEEE17set_decimal_valueEjjb:
	push	{r3, r4, r5, r6, r7, lr}
	mov	r6, r0
	mov	r5, r1
	mov	r4, #0
.L13:
	mov	r0, r6
	mov	r1, #10
	bl	__aeabi_uidivmod
	mov	r0, r6
	mov	r7, r1
	mov	r1, #10
	bl	__aeabi_uidiv
	mov	r2, r0
	mov	r6, r0
	orr	r2, r7
	ldr	r3, .L24
	bne	.L14
	cmp	r4, #0
	beq	.L14
	cmp	r5, #0
	bne	.L14
	strb	r5, [r3, r4]
	b	.L15
.L14:
	ldr	r2, .L24+4
	ldrb	r2, [r2, r7]
	strb	r2, [r3, r4]
.L15:
	lsl	r2, r5, #31
	bpl	.L16
	add	r3, r3, r4
	ldrb	r1, [r3]
	mov	r2, #128
	neg	r2, r2
	orr	r2, r1
	strb	r2, [r3]
.L16:
	add	r4, r4, #1
	lsr	r5, r5, #1
	cmp	r4, #4
	bne	.L13
	@ sp needed
	pop	{r3, r4, r5, r6, r7, pc}
.L25:
	.align	2
.L24:
	.word	_ZN5hwcpp21seven_segment_displayINS_23callback_implementationINS_12lpc1114_baseILi4096ELi32768ELi48000000EE8timer_64ENS_37callback_administration_double_linkedEEENS_6invertINS_18port_out_from_pinsIINS3_17pin_in_out_pullupILi0ELi2EEENS9_ILi0ELi3EEENS3_6pin_ocILi0ELi4EEENSC_ILi0ELi5EEENS9_ILi0ELi6EEENS9_ILi0ELi7EEENS9_ILi0ELi8EEENS9_ILi0ELi9EEEEEEvEENS8_IINS9_ILi1ELi9EEENS9_ILi1ELi8EEENS9_ILi1ELi5EEENS3_20pin_in_out_ad_pullupILi1ELi4ELi5EEEEEENS_28seven_segments_table_defaultIvEEE14segment_valuesE
	.word	_ZN5hwcpp28seven_segments_table_defaultIvE9translateE
	.size	_ZN5hwcpp21seven_segment_displayINS_23callback_implementationINS_12lpc1114_baseILi4096ELi32768ELi48000000EE8timer_64ENS_37callback_administration_double_linkedEEENS_6invertINS_18port_out_from_pinsIINS3_17pin_in_out_pullupILi0ELi2EEENS9_ILi0ELi3EEENS3_6pin_ocILi0ELi4EEENSC_ILi0ELi5EEENS9_ILi0ELi6EEENS9_ILi0ELi7EEENS9_ILi0ELi8EEENS9_ILi0ELi9EEEEEEvEENS8_IINS9_ILi1ELi9EEENS9_ILi1ELi8EEENS9_ILi1ELi5EEENS3_20pin_in_out_ad_pullupILi1ELi4ELi5EEEEEENS_28seven_segments_table_defaultIvEEE17set_decimal_valueEjjb, .-_ZN5hwcpp21seven_segment_displayINS_23callback_implementationINS_12lpc1114_baseILi4096ELi32768ELi48000000EE8timer_64ENS_37callback_administration_double_linkedEEENS_6invertINS_18port_out_from_pinsIINS3_17pin_in_out_pullupILi0ELi2EEENS9_ILi0ELi3EEENS3_6pin_ocILi0ELi4EEENSC_ILi0ELi5EEENS9_ILi0ELi6EEENS9_ILi0ELi7EEENS9_ILi0ELi8EEENS9_ILi0ELi9EEEEEEvEENS8_IINS9_ILi1ELi9EEENS9_ILi1ELi8EEENS9_ILi1ELi5EEENS3_20pin_in_out_ad_pullupILi1ELi4ELi5EEEEEENS_28seven_segments_table_defaultIvEEE17set_decimal_valueEjjb
	.weak	_ZN5hwcpp21seven_segment_displayINS_23callback_implementationINS_12lpc1114_baseILi4096ELi32768ELi48000000EE8timer_64ENS_37callback_administration_double_linkedEEENS_6invertINS_18port_out_from_pinsIJNS3_17pin_in_out_pullupILi0ELi2EEENS9_ILi0ELi3EEENS3_6pin_ocILi0ELi4EEENSC_ILi0ELi5EEENS9_ILi0ELi6EEENS9_ILi0ELi7EEENS9_ILi0ELi8EEENS9_ILi0ELi9EEEEEEvEENS8_IJNS9_ILi1ELi9EEENS9_ILi1ELi8EEENS9_ILi1ELi5EEENS3_20pin_in_out_ad_pullupILi1ELi4ELi5EEEEEENS_28seven_segments_table_defaultIvEEE17set_decimal_valueEjjb
	.thumb_set _ZN5hwcpp21seven_segment_displayINS_23callback_implementationINS_12lpc1114_baseILi4096ELi32768ELi48000000EE8timer_64ENS_37callback_administration_double_linkedEEENS_6invertINS_18port_out_from_pinsIJNS3_17pin_in_out_pullupILi0ELi2EEENS9_ILi0ELi3EEENS3_6pin_ocILi0ELi4EEENSC_ILi0ELi5EEENS9_ILi0ELi6EEENS9_ILi0ELi7EEENS9_ILi0ELi8EEENS9_ILi0ELi9EEEEEEvEENS8_IJNS9_ILi1ELi9EEENS9_ILi1ELi8EEENS9_ILi1ELi5EEENS3_20pin_in_out_ad_pullupILi1ELi4ELi5EEEEEENS_28seven_segments_table_defaultIvEEE17set_decimal_valueEjjb,_ZN5hwcpp21seven_segment_displayINS_23callback_implementationINS_12lpc1114_baseILi4096ELi32768ELi48000000EE8timer_64ENS_37callback_administration_double_linkedEEENS_6invertINS_18port_out_from_pinsIINS3_17pin_in_out_pullupILi0ELi2EEENS9_ILi0ELi3EEENS3_6pin_ocILi0ELi4EEENSC_ILi0ELi5EEENS9_ILi0ELi6EEENS9_ILi0ELi7EEENS9_ILi0ELi8EEENS9_ILi0ELi9EEEEEEvEENS8_IINS9_ILi1ELi9EEENS9_ILi1ELi8EEENS9_ILi1ELi5EEENS3_20pin_in_out_ad_pullupILi1ELi4ELi5EEEEEENS_28seven_segments_table_defaultIvEEE17set_decimal_valueEjjb
	.section	.text._ZN5hwcpp20add_timing_templatesINS_37callback_administration_double_linkedINS_21timing_implementationINS_12lpc1114_baseILi4096ELi32768ELi48000000EE8timer_64EEEEEE2nsILy1000000ELy18446744073708551616EE4waitEv,"axG",%progbits,_ZN5hwcpp20add_timing_templatesINS_37callback_administration_double_linkedINS_21timing_implementationINS_12lpc1114_baseILi4096ELi32768ELi48000000EE8timer_64EEEEEE2nsILy1000000ELy18446744073708551616EE4waitEv,comdat
	.align	1
	.weak	_ZN5hwcpp20add_timing_templatesINS_37callback_administration_double_linkedINS_21timing_implementationINS_12lpc1114_baseILi4096ELi32768ELi48000000EE8timer_64EEEEEE2nsILy1000000ELy18446744073708551616EE4waitEv
	.code	16
	.thumb_func
	.type	_ZN5hwcpp20add_timing_templatesINS_37callback_administration_double_linkedINS_21timing_implementationINS_12lpc1114_baseILi4096ELi32768ELi48000000EE8timer_64EEEEEE2nsILy1000000ELy18446744073708551616EE4waitEv, %function
_ZN5hwcpp20add_timing_templatesINS_37callback_administration_double_linkedINS_21timing_implementationINS_12lpc1114_baseILi4096ELi32768ELi48000000EE8timer_64EEEEEE2nsILy1000000ELy18446744073708551616EE4waitEv:
	push	{r0, r1, r2, r4, r5, lr}
	ldr	r5, .L31+4
	ldr	r4, .L31
	mov	r0, sp
	bl	_ZN5hwcpp13timing_waiterINS_12lpc1114_baseILi4096ELi32768ELi48000000EE8timer_64EE3nowEv
	ldr	r2, [sp]
	ldr	r3, [sp, #4]
	add	r4, r4, r2
	adc	r5, r5, r3
.L29:
	mov	r0, sp
	bl	_ZN5hwcpp13timing_waiterINS_12lpc1114_baseILi4096ELi32768ELi48000000EE8timer_64EE3nowEv
	ldr	r3, [sp, #4]
	ldr	r2, [sp]
	cmp	r5, r3
	bgt	.L29
	bne	.L26
	cmp	r4, r2
	bhi	.L29
.L26:
	@ sp needed
	pop	{r0, r1, r2, r4, r5, pc}
.L32:
	.align	3
.L31:
	.word	24024
	.word	0
	.size	_ZN5hwcpp20add_timing_templatesINS_37callback_administration_double_linkedINS_21timing_implementationINS_12lpc1114_baseILi4096ELi32768ELi48000000EE8timer_64EEEEEE2nsILy1000000ELy18446744073708551616EE4waitEv, .-_ZN5hwcpp20add_timing_templatesINS_37callback_administration_double_linkedINS_21timing_implementationINS_12lpc1114_baseILi4096ELi32768ELi48000000EE8timer_64EEEEEE2nsILy1000000ELy18446744073708551616EE4waitEv
	.section	.text._ZN5hwcpp11pin_in_fromINS_12lpc1114_baseILi4096ELi32768ELi48000000EE20pin_in_out_ad_pullupILi1ELi0ELi1EEEvE4initEv,"axG",%progbits,_ZN5hwcpp11pin_in_fromINS_12lpc1114_baseILi4096ELi32768ELi48000000EE20pin_in_out_ad_pullupILi1ELi0ELi1EEEvE4initEv,comdat
	.align	1
	.weak	_ZN5hwcpp11pin_in_fromINS_12lpc1114_baseILi4096ELi32768ELi48000000EE20pin_in_out_ad_pullupILi1ELi0ELi1EEEvE4initEv
	.code	16
	.thumb_func
	.type	_ZN5hwcpp11pin_in_fromINS_12lpc1114_baseILi4096ELi32768ELi48000000EE20pin_in_out_ad_pullupILi1ELi0ELi1EEEvE4initEv, %function
_ZN5hwcpp11pin_in_fromINS_12lpc1114_baseILi4096ELi32768ELi48000000EE20pin_in_out_ad_pullupILi1ELi0ELi1EEEvE4initEv:
	ldr	r3, .L34
	mov	r2, #128
	ldr	r1, [r3, #124]
	lsl	r2, r2, #9
	orr	r2, r1
	str	r2, [r3, #124]
	ldr	r3, .L34+4
	mov	r1, #7
	ldr	r2, [r3]
	@ sp needed
	bic	r2, r1
	mov	r1, #129
	orr	r2, r1
	str	r2, [r3]
	ldr	r3, .L34+8
	mov	r1, #1
	ldr	r2, [r3]
	bic	r2, r1
	str	r2, [r3]
	bx	lr
.L35:
	.align	2
.L34:
	.word	1074036740
	.word	1074020472
	.word	1342275584
	.size	_ZN5hwcpp11pin_in_fromINS_12lpc1114_baseILi4096ELi32768ELi48000000EE20pin_in_out_ad_pullupILi1ELi0ELi1EEEvE4initEv, .-_ZN5hwcpp11pin_in_fromINS_12lpc1114_baseILi4096ELi32768ELi48000000EE20pin_in_out_ad_pullupILi1ELi0ELi1EEEvE4initEv
	.section	.text._ZN5hwcpp12pin_out_fromINS_12lpc1114_baseILi4096ELi32768ELi48000000EE17pin_in_out_pullupILi0ELi10EEEvE4initEv,"axG",%progbits,_ZN5hwcpp12pin_out_fromINS_12lpc1114_baseILi4096ELi32768ELi48000000EE17pin_in_out_pullupILi0ELi10EEEvE4initEv,comdat
	.align	1
	.weak	_ZN5hwcpp12pin_out_fromINS_12lpc1114_baseILi4096ELi32768ELi48000000EE17pin_in_out_pullupILi0ELi10EEEvE4initEv
	.code	16
	.thumb_func
	.type	_ZN5hwcpp12pin_out_fromINS_12lpc1114_baseILi4096ELi32768ELi48000000EE17pin_in_out_pullupILi0ELi10EEEvE4initEv, %function
_ZN5hwcpp12pin_out_fromINS_12lpc1114_baseILi4096ELi32768ELi48000000EE17pin_in_out_pullupILi0ELi10EEEvE4initEv:
	ldr	r3, .L37
	mov	r2, #128
	ldr	r1, [r3, #124]
	lsl	r2, r2, #9
	orr	r2, r1
	str	r2, [r3, #124]
	ldr	r3, .L37+4
	mov	r1, #7
	ldr	r2, [r3]
	@ sp needed
	bic	r2, r1
	mov	r1, #1
	orr	r2, r1
	str	r2, [r3]
	ldr	r3, .L37+8
	mov	r2, #128
	ldr	r1, [r3]
	lsl	r2, r2, #3
	orr	r2, r1
	str	r2, [r3]
	bx	lr
.L38:
	.align	2
.L37:
	.word	1074036740
	.word	1074020456
	.word	1342210048
	.size	_ZN5hwcpp12pin_out_fromINS_12lpc1114_baseILi4096ELi32768ELi48000000EE17pin_in_out_pullupILi0ELi10EEEvE4initEv, .-_ZN5hwcpp12pin_out_fromINS_12lpc1114_baseILi4096ELi32768ELi48000000EE17pin_in_out_pullupILi0ELi10EEEvE4initEv
	.section	.text._ZN5hwcpp18port_out_from_pinsIINS_12lpc1114_baseILi4096ELi32768ELi48000000EE17pin_in_out_pullupILi1ELi9EEENS3_ILi1ELi8EEENS3_ILi1ELi5EEENS2_20pin_in_out_ad_pullupILi1ELi4ELi5EEEEE3setEj,"axG",%progbits,_ZN5hwcpp18port_out_from_pinsIINS_12lpc1114_baseILi4096ELi32768ELi48000000EE17pin_in_out_pullupILi1ELi9EEENS3_ILi1ELi8EEENS3_ILi1ELi5EEENS2_20pin_in_out_ad_pullupILi1ELi4ELi5EEEEE3setEj,comdat
	.align	1
	.weak	_ZN5hwcpp18port_out_from_pinsIINS_12lpc1114_baseILi4096ELi32768ELi48000000EE17pin_in_out_pullupILi1ELi9EEENS3_ILi1ELi8EEENS3_ILi1ELi5EEENS2_20pin_in_out_ad_pullupILi1ELi4ELi5EEEEE3setEj
	.code	16
	.thumb_func
	.type	_ZN5hwcpp18port_out_from_pinsIINS_12lpc1114_baseILi4096ELi32768ELi48000000EE17pin_in_out_pullupILi1ELi9EEENS3_ILi1ELi8EEENS3_ILi1ELi5EEENS2_20pin_in_out_ad_pullupILi1ELi4ELi5EEEEE3setEj, %function
_ZN5hwcpp18port_out_from_pinsIINS_12lpc1114_baseILi4096ELi32768ELi48000000EE17pin_in_out_pullupILi1ELi9EEENS3_ILi1ELi8EEENS3_ILi1ELi5EEENS2_20pin_in_out_ad_pullupILi1ELi4ELi5EEEEE3setEj:
	mov	r3, #1
	mov	r1, r0
	and	r1, r3
	ldr	r2, .L40
	neg	r1, r1
	str	r1, [r2]
	lsr	r1, r0, #1
	and	r1, r3
	ldr	r2, .L40+4
	neg	r1, r1
	str	r1, [r2]
	lsr	r1, r0, #2
	and	r1, r3
	ldr	r2, .L40+8
	neg	r1, r1
	lsr	r0, r0, #3
	str	r1, [r2]
	and	r3, r0
	ldr	r2, .L40+12
	neg	r3, r3
	str	r3, [r2]
	@ sp needed
	bx	lr
.L41:
	.align	2
.L40:
	.word	1342244864
	.word	1342243840
	.word	1342242944
	.word	1342242880
	.size	_ZN5hwcpp18port_out_from_pinsIINS_12lpc1114_baseILi4096ELi32768ELi48000000EE17pin_in_out_pullupILi1ELi9EEENS3_ILi1ELi8EEENS3_ILi1ELi5EEENS2_20pin_in_out_ad_pullupILi1ELi4ELi5EEEEE3setEj, .-_ZN5hwcpp18port_out_from_pinsIINS_12lpc1114_baseILi4096ELi32768ELi48000000EE17pin_in_out_pullupILi1ELi9EEENS3_ILi1ELi8EEENS3_ILi1ELi5EEENS2_20pin_in_out_ad_pullupILi1ELi4ELi5EEEEE3setEj
	.weak	_ZN5hwcpp18port_out_from_pinsIJNS_12lpc1114_baseILi4096ELi32768ELi48000000EE17pin_in_out_pullupILi1ELi9EEENS3_ILi1ELi8EEENS3_ILi1ELi5EEENS2_20pin_in_out_ad_pullupILi1ELi4ELi5EEEEE3setEj
	.thumb_set _ZN5hwcpp18port_out_from_pinsIJNS_12lpc1114_baseILi4096ELi32768ELi48000000EE17pin_in_out_pullupILi1ELi9EEENS3_ILi1ELi8EEENS3_ILi1ELi5EEENS2_20pin_in_out_ad_pullupILi1ELi4ELi5EEEEE3setEj,_ZN5hwcpp18port_out_from_pinsIINS_12lpc1114_baseILi4096ELi32768ELi48000000EE17pin_in_out_pullupILi1ELi9EEENS3_ILi1ELi8EEENS3_ILi1ELi5EEENS2_20pin_in_out_ad_pullupILi1ELi4ELi5EEEEE3setEj
	.section	.text._ZN5hwcpp18port_out_from_pinsIINS_12lpc1114_baseILi4096ELi32768ELi48000000EE17pin_in_out_pullupILi1ELi9EEENS3_ILi1ELi8EEENS3_ILi1ELi5EEENS2_20pin_in_out_ad_pullupILi1ELi4ELi5EEEEE4initEv,"axG",%progbits,_ZN5hwcpp18port_out_from_pinsIINS_12lpc1114_baseILi4096ELi32768ELi48000000EE17pin_in_out_pullupILi1ELi9EEENS3_ILi1ELi8EEENS3_ILi1ELi5EEENS2_20pin_in_out_ad_pullupILi1ELi4ELi5EEEEE4initEv,comdat
	.align	1
	.weak	_ZN5hwcpp18port_out_from_pinsIINS_12lpc1114_baseILi4096ELi32768ELi48000000EE17pin_in_out_pullupILi1ELi9EEENS3_ILi1ELi8EEENS3_ILi1ELi5EEENS2_20pin_in_out_ad_pullupILi1ELi4ELi5EEEEE4initEv
	.code	16
	.thumb_func
	.type	_ZN5hwcpp18port_out_from_pinsIINS_12lpc1114_baseILi4096ELi32768ELi48000000EE17pin_in_out_pullupILi1ELi9EEENS3_ILi1ELi8EEENS3_ILi1ELi5EEENS2_20pin_in_out_ad_pullupILi1ELi4ELi5EEEEE4initEv, %function
_ZN5hwcpp18port_out_from_pinsIINS_12lpc1114_baseILi4096ELi32768ELi48000000EE17pin_in_out_pullupILi1ELi9EEENS3_ILi1ELi8EEENS3_ILi1ELi5EEENS2_20pin_in_out_ad_pullupILi1ELi4ELi5EEEEE4initEv:
	ldr	r2, .L43
	mov	r0, #128
	ldr	r3, [r2, #124]
	lsl	r0, r0, #9
	orr	r3, r0
	push	{r4, r5, lr}
	str	r3, [r2, #124]
	ldr	r3, .L43+4
	mov	r1, #7
	ldr	r4, [r3]
	@ sp needed
	bic	r4, r1
	str	r4, [r3]
	ldr	r3, .L43+8
	mov	r4, #128
	ldr	r5, [r3]
	lsl	r4, r4, #2
	orr	r4, r5
	str	r4, [r3]
	ldr	r4, [r2, #124]
	orr	r4, r0
	str	r4, [r2, #124]
	ldr	r4, .L43+12
	ldr	r5, [r4]
	bic	r5, r1
	str	r5, [r4]
	ldr	r5, [r3]
	mov	r4, #128
	lsl	r4, r4, #1
	orr	r4, r5
	str	r4, [r3]
	ldr	r4, [r2, #124]
	orr	r4, r0
	str	r4, [r2, #124]
	ldr	r4, .L43+16
	ldr	r5, [r4]
	bic	r5, r1
	str	r5, [r4]
	ldr	r4, [r3]
	mov	r5, #32
	orr	r4, r5
	str	r4, [r3]
	ldr	r4, [r2, #124]
	orr	r0, r4
	str	r0, [r2, #124]
	ldr	r2, .L43+20
	ldr	r0, [r2]
	bic	r0, r1
	mov	r1, r0
	mov	r0, #128
	orr	r1, r0
	str	r1, [r2]
	ldr	r2, [r3]
	mov	r1, #16
	orr	r2, r1
	str	r2, [r3]
	pop	{r4, r5, pc}
.L44:
	.align	2
.L43:
	.word	1074036740
	.word	1074020408
	.word	1342275584
	.word	1074020372
	.word	1074020512
	.word	1074020500
	.size	_ZN5hwcpp18port_out_from_pinsIINS_12lpc1114_baseILi4096ELi32768ELi48000000EE17pin_in_out_pullupILi1ELi9EEENS3_ILi1ELi8EEENS3_ILi1ELi5EEENS2_20pin_in_out_ad_pullupILi1ELi4ELi5EEEEE4initEv, .-_ZN5hwcpp18port_out_from_pinsIINS_12lpc1114_baseILi4096ELi32768ELi48000000EE17pin_in_out_pullupILi1ELi9EEENS3_ILi1ELi8EEENS3_ILi1ELi5EEENS2_20pin_in_out_ad_pullupILi1ELi4ELi5EEEEE4initEv
	.weak	_ZN5hwcpp18port_out_from_pinsIJNS_12lpc1114_baseILi4096ELi32768ELi48000000EE17pin_in_out_pullupILi1ELi9EEENS3_ILi1ELi8EEENS3_ILi1ELi5EEENS2_20pin_in_out_ad_pullupILi1ELi4ELi5EEEEE4initEv
	.thumb_set _ZN5hwcpp18port_out_from_pinsIJNS_12lpc1114_baseILi4096ELi32768ELi48000000EE17pin_in_out_pullupILi1ELi9EEENS3_ILi1ELi8EEENS3_ILi1ELi5EEENS2_20pin_in_out_ad_pullupILi1ELi4ELi5EEEEE4initEv,_ZN5hwcpp18port_out_from_pinsIINS_12lpc1114_baseILi4096ELi32768ELi48000000EE17pin_in_out_pullupILi1ELi9EEENS3_ILi1ELi8EEENS3_ILi1ELi5EEENS2_20pin_in_out_ad_pullupILi1ELi4ELi5EEEEE4initEv
	.section	.text._ZN5hwcpp12lpc1114_baseILi4096ELi32768ELi48000000EE16initialize_clockEv,"axG",%progbits,_ZN5hwcpp12lpc1114_baseILi4096ELi32768ELi48000000EE16initialize_clockEv,comdat
	.align	1
	.weak	_ZN5hwcpp12lpc1114_baseILi4096ELi32768ELi48000000EE16initialize_clockEv
	.code	16
	.thumb_func
	.type	_ZN5hwcpp12lpc1114_baseILi4096ELi32768ELi48000000EE16initialize_clockEv, %function
_ZN5hwcpp12lpc1114_baseILi4096ELi32768ELi48000000EE16initialize_clockEv:
	ldr	r3, .L49
	ldrb	r2, [r3]
	cmp	r2, #0
	bne	.L45
	mov	r2, #1
	strb	r2, [r3]
	ldr	r3, .L49+4
	mov	r2, #142
	lsl	r2, r2, #2
	ldr	r0, [r3, r2]
	mov	r1, #128
	orr	r0, r1
	str	r0, [r3, r2]
	mov	r0, #35
	str	r0, [r3, #8]
	ldr	r0, [r3, r2]
	bic	r0, r1
	str	r0, [r3, r2]
.L48:
	ldr	r0, [r3, #12]
	mov	r1, #1
	ldr	r2, .L49+4
	tst	r0, r1
	beq	.L48
	mov	r3, #3
	str	r3, [r2, #112]
	ldr	r3, [r2, #116]
	bic	r3, r1
	str	r3, [r2, #116]
	ldr	r3, [r2, #116]
	orr	r1, r3
	str	r1, [r2, #116]
.L45:
	@ sp needed
	bx	lr
.L50:
	.align	2
.L49:
	.word	_ZZN5hwcpp12lpc1114_baseILi4096ELi32768ELi48000000EE16initialize_clockEvE4done
	.word	1074036736
	.size	_ZN5hwcpp12lpc1114_baseILi4096ELi32768ELi48000000EE16initialize_clockEv, .-_ZN5hwcpp12lpc1114_baseILi4096ELi32768ELi48000000EE16initialize_clockEv
	.section	.text._ZN5hwcpp12lpc1114_baseILi4096ELi32768ELi48000000EE8timer_644initEv,"axG",%progbits,_ZN5hwcpp12lpc1114_baseILi4096ELi32768ELi48000000EE8timer_644initEv,comdat
	.align	1
	.weak	_ZN5hwcpp12lpc1114_baseILi4096ELi32768ELi48000000EE8timer_644initEv
	.code	16
	.thumb_func
	.type	_ZN5hwcpp12lpc1114_baseILi4096ELi32768ELi48000000EE8timer_644initEv, %function
_ZN5hwcpp12lpc1114_baseILi4096ELi32768ELi48000000EE8timer_644initEv:
	push	{r3, lr}
	bl	_ZN5hwcpp12lpc1114_baseILi4096ELi32768ELi48000000EE16initialize_clockEv
	ldr	r3, .L52
	ldr	r1, .L52+4
	mov	r2, #0
	str	r2, [r3]
	str	r1, [r3, #4]
	str	r2, [r3, #8]
	mov	r2, #1
	str	r2, [r3]
	@ sp needed
	pop	{r3, pc}
.L53:
	.align	2
.L52:
	.word	-536813552
	.word	16777215
	.size	_ZN5hwcpp12lpc1114_baseILi4096ELi32768ELi48000000EE8timer_644initEv, .-_ZN5hwcpp12lpc1114_baseILi4096ELi32768ELi48000000EE8timer_644initEv
	.section	.text._ZN5hwcpp18port_out_from_pinsIINS_12lpc1114_baseILi4096ELi32768ELi48000000EE6pin_ocILi0ELi4EEENS3_ILi0ELi5EEENS2_17pin_in_out_pullupILi0ELi6EEENS6_ILi0ELi7EEENS6_ILi0ELi8EEENS6_ILi0ELi9EEEEE3setEj,"axG",%progbits,_ZN5hwcpp18port_out_from_pinsIINS_12lpc1114_baseILi4096ELi32768ELi48000000EE6pin_ocILi0ELi4EEENS3_ILi0ELi5EEENS2_17pin_in_out_pullupILi0ELi6EEENS6_ILi0ELi7EEENS6_ILi0ELi8EEENS6_ILi0ELi9EEEEE3setEj,comdat
	.align	1
	.weak	_ZN5hwcpp18port_out_from_pinsIINS_12lpc1114_baseILi4096ELi32768ELi48000000EE6pin_ocILi0ELi4EEENS3_ILi0ELi5EEENS2_17pin_in_out_pullupILi0ELi6EEENS6_ILi0ELi7EEENS6_ILi0ELi8EEENS6_ILi0ELi9EEEEE3setEj
	.code	16
	.thumb_func
	.type	_ZN5hwcpp18port_out_from_pinsIINS_12lpc1114_baseILi4096ELi32768ELi48000000EE6pin_ocILi0ELi4EEENS3_ILi0ELi5EEENS2_17pin_in_out_pullupILi0ELi6EEENS6_ILi0ELi7EEENS6_ILi0ELi8EEENS6_ILi0ELi9EEEEE3setEj, %function
_ZN5hwcpp18port_out_from_pinsIINS_12lpc1114_baseILi4096ELi32768ELi48000000EE6pin_ocILi0ELi4EEENS3_ILi0ELi5EEENS2_17pin_in_out_pullupILi0ELi6EEENS6_ILi0ELi7EEENS6_ILi0ELi8EEENS6_ILi0ELi9EEEEE3setEj:
	mov	r2, #1
	push	{r4, lr}
	and	r2, r0
	ldr	r3, .L60
	mov	r1, #16
	cmp	r2, #0
	beq	.L55
	ldr	r2, [r3]
	bic	r2, r1
	str	r2, [r3]
	b	.L56
.L55:
	ldr	r4, [r3]
	orr	r1, r4
	str	r1, [r3]
	ldr	r1, .L60+4
	str	r2, [r1]
.L56:
	lsr	r0, r0, #1
	mov	r2, #1
	and	r2, r0
	mov	r1, #32
	cmp	r2, #0
	beq	.L57
	ldr	r2, [r3]
	bic	r2, r1
	b	.L59
.L57:
	ldr	r4, [r3]
	orr	r1, r4
	str	r1, [r3]
	ldr	r3, .L60+8
.L59:
	str	r2, [r3]
	lsr	r1, r0, #1
	mov	r3, #1
	and	r1, r3
	ldr	r2, .L60+12
	neg	r1, r1
	str	r1, [r2]
	lsr	r1, r0, #2
	and	r1, r3
	ldr	r2, .L60+16
	neg	r1, r1
	str	r1, [r2]
	lsr	r1, r0, #3
	and	r1, r3
	ldr	r2, .L60+20
	neg	r1, r1
	lsr	r0, r0, #4
	str	r1, [r2]
	and	r3, r0
	ldr	r2, .L60+24
	neg	r3, r3
	str	r3, [r2]
	@ sp needed
	pop	{r4, pc}
.L61:
	.align	2
.L60:
	.word	1342210048
	.word	1342177344
	.word	1342177408
	.word	1342177536
	.word	1342177792
	.word	1342178304
	.word	1342179328
	.size	_ZN5hwcpp18port_out_from_pinsIINS_12lpc1114_baseILi4096ELi32768ELi48000000EE6pin_ocILi0ELi4EEENS3_ILi0ELi5EEENS2_17pin_in_out_pullupILi0ELi6EEENS6_ILi0ELi7EEENS6_ILi0ELi8EEENS6_ILi0ELi9EEEEE3setEj, .-_ZN5hwcpp18port_out_from_pinsIINS_12lpc1114_baseILi4096ELi32768ELi48000000EE6pin_ocILi0ELi4EEENS3_ILi0ELi5EEENS2_17pin_in_out_pullupILi0ELi6EEENS6_ILi0ELi7EEENS6_ILi0ELi8EEENS6_ILi0ELi9EEEEE3setEj
	.weak	_ZN5hwcpp18port_out_from_pinsIJNS_12lpc1114_baseILi4096ELi32768ELi48000000EE6pin_ocILi0ELi4EEENS3_ILi0ELi5EEENS2_17pin_in_out_pullupILi0ELi6EEENS6_ILi0ELi7EEENS6_ILi0ELi8EEENS6_ILi0ELi9EEEEE3setEj
	.thumb_set _ZN5hwcpp18port_out_from_pinsIJNS_12lpc1114_baseILi4096ELi32768ELi48000000EE6pin_ocILi0ELi4EEENS3_ILi0ELi5EEENS2_17pin_in_out_pullupILi0ELi6EEENS6_ILi0ELi7EEENS6_ILi0ELi8EEENS6_ILi0ELi9EEEEE3setEj,_ZN5hwcpp18port_out_from_pinsIINS_12lpc1114_baseILi4096ELi32768ELi48000000EE6pin_ocILi0ELi4EEENS3_ILi0ELi5EEENS2_17pin_in_out_pullupILi0ELi6EEENS6_ILi0ELi7EEENS6_ILi0ELi8EEENS6_ILi0ELi9EEEEE3setEj
	.section	.text._ZN5hwcpp6invertINS_18port_out_from_pinsIINS_12lpc1114_baseILi4096ELi32768ELi48000000EE17pin_in_out_pullupILi0ELi2EEENS4_ILi0ELi3EEENS3_6pin_ocILi0ELi4EEENS7_ILi0ELi5EEENS4_ILi0ELi6EEENS4_ILi0ELi7EEENS4_ILi0ELi8EEENS4_ILi0ELi9EEEEEEvE3setEj,"axG",%progbits,_ZN5hwcpp6invertINS_18port_out_from_pinsIINS_12lpc1114_baseILi4096ELi32768ELi48000000EE17pin_in_out_pullupILi0ELi2EEENS4_ILi0ELi3EEENS3_6pin_ocILi0ELi4EEENS7_ILi0ELi5EEENS4_ILi0ELi6EEENS4_ILi0ELi7EEENS4_ILi0ELi8EEENS4_ILi0ELi9EEEEEEvE3setEj,comdat
	.align	1
	.weak	_ZN5hwcpp6invertINS_18port_out_from_pinsIINS_12lpc1114_baseILi4096ELi32768ELi48000000EE17pin_in_out_pullupILi0ELi2EEENS4_ILi0ELi3EEENS3_6pin_ocILi0ELi4EEENS7_ILi0ELi5EEENS4_ILi0ELi6EEENS4_ILi0ELi7EEENS4_ILi0ELi8EEENS4_ILi0ELi9EEEEEEvE3setEj
	.code	16
	.thumb_func
	.type	_ZN5hwcpp6invertINS_18port_out_from_pinsIINS_12lpc1114_baseILi4096ELi32768ELi48000000EE17pin_in_out_pullupILi0ELi2EEENS4_ILi0ELi3EEENS3_6pin_ocILi0ELi4EEENS7_ILi0ELi5EEENS4_ILi0ELi6EEENS4_ILi0ELi7EEENS4_ILi0ELi8EEENS4_ILi0ELi9EEEEEEvE3setEj, %function
_ZN5hwcpp6invertINS_18port_out_from_pinsIINS_12lpc1114_baseILi4096ELi32768ELi48000000EE17pin_in_out_pullupILi0ELi2EEENS4_ILi0ELi3EEENS3_6pin_ocILi0ELi4EEENS7_ILi0ELi5EEENS4_ILi0ELi6EEENS4_ILi0ELi7EEENS4_ILi0ELi8EEENS4_ILi0ELi9EEEEEEvE3setEj:
	push	{r3, lr}
	mov	r3, #255
	eor	r0, r3
	mov	r1, r0
	mov	r3, #1
	and	r1, r3
	ldr	r2, .L63
	neg	r1, r1
	str	r1, [r2]
	lsr	r2, r0, #1
	and	r3, r2
	ldr	r2, .L63+4
	neg	r3, r3
	str	r3, [r2]
	lsr	r0, r0, #2
	bl	_ZN5hwcpp18port_out_from_pinsIINS_12lpc1114_baseILi4096ELi32768ELi48000000EE6pin_ocILi0ELi4EEENS3_ILi0ELi5EEENS2_17pin_in_out_pullupILi0ELi6EEENS6_ILi0ELi7EEENS6_ILi0ELi8EEENS6_ILi0ELi9EEEEE3setEj
	@ sp needed
	pop	{r3, pc}
.L64:
	.align	2
.L63:
	.word	1342177296
	.word	1342177312
	.size	_ZN5hwcpp6invertINS_18port_out_from_pinsIINS_12lpc1114_baseILi4096ELi32768ELi48000000EE17pin_in_out_pullupILi0ELi2EEENS4_ILi0ELi3EEENS3_6pin_ocILi0ELi4EEENS7_ILi0ELi5EEENS4_ILi0ELi6EEENS4_ILi0ELi7EEENS4_ILi0ELi8EEENS4_ILi0ELi9EEEEEEvE3setEj, .-_ZN5hwcpp6invertINS_18port_out_from_pinsIINS_12lpc1114_baseILi4096ELi32768ELi48000000EE17pin_in_out_pullupILi0ELi2EEENS4_ILi0ELi3EEENS3_6pin_ocILi0ELi4EEENS7_ILi0ELi5EEENS4_ILi0ELi6EEENS4_ILi0ELi7EEENS4_ILi0ELi8EEENS4_ILi0ELi9EEEEEEvE3setEj
	.weak	_ZN5hwcpp6invertINS_18port_out_from_pinsIJNS_12lpc1114_baseILi4096ELi32768ELi48000000EE17pin_in_out_pullupILi0ELi2EEENS4_ILi0ELi3EEENS3_6pin_ocILi0ELi4EEENS7_ILi0ELi5EEENS4_ILi0ELi6EEENS4_ILi0ELi7EEENS4_ILi0ELi8EEENS4_ILi0ELi9EEEEEEvE3setEj
	.thumb_set _ZN5hwcpp6invertINS_18port_out_from_pinsIJNS_12lpc1114_baseILi4096ELi32768ELi48000000EE17pin_in_out_pullupILi0ELi2EEENS4_ILi0ELi3EEENS3_6pin_ocILi0ELi4EEENS7_ILi0ELi5EEENS4_ILi0ELi6EEENS4_ILi0ELi7EEENS4_ILi0ELi8EEENS4_ILi0ELi9EEEEEEvE3setEj,_ZN5hwcpp6invertINS_18port_out_from_pinsIINS_12lpc1114_baseILi4096ELi32768ELi48000000EE17pin_in_out_pullupILi0ELi2EEENS4_ILi0ELi3EEENS3_6pin_ocILi0ELi4EEENS7_ILi0ELi5EEENS4_ILi0ELi6EEENS4_ILi0ELi7EEENS4_ILi0ELi8EEENS4_ILi0ELi9EEEEEEvE3setEj
	.section	.text._ZN5hwcpp21seven_segment_displayINS_23callback_implementationINS_12lpc1114_baseILi4096ELi32768ELi48000000EE8timer_64ENS_37callback_administration_double_linkedEEENS_6invertINS_18port_out_from_pinsIINS3_17pin_in_out_pullupILi0ELi2EEENS9_ILi0ELi3EEENS3_6pin_ocILi0ELi4EEENSC_ILi0ELi5EEENS9_ILi0ELi6EEENS9_ILi0ELi7EEENS9_ILi0ELi8EEENS9_ILi0ELi9EEEEEEvEENS8_IINS9_ILi1ELi9EEENS9_ILi1ELi8EEENS9_ILi1ELi5EEENS3_20pin_in_out_ad_pullupILi1ELi4ELi5EEEEEENS_28seven_segments_table_defaultIvEEE3muxEv,"axG",%progbits,_ZN5hwcpp21seven_segment_displayINS_23callback_implementationINS_12lpc1114_baseILi4096ELi32768ELi48000000EE8timer_64ENS_37callback_administration_double_linkedEEENS_6invertINS_18port_out_from_pinsIINS3_17pin_in_out_pullupILi0ELi2EEENS9_ILi0ELi3EEENS3_6pin_ocILi0ELi4EEENSC_ILi0ELi5EEENS9_ILi0ELi6EEENS9_ILi0ELi7EEENS9_ILi0ELi8EEENS9_ILi0ELi9EEEEEEvEENS8_IINS9_ILi1ELi9EEENS9_ILi1ELi8EEENS9_ILi1ELi5EEENS3_20pin_in_out_ad_pullupILi1ELi4ELi5EEEEEENS_28seven_segments_table_defaultIvEEE3muxEv,comdat
	.align	1
	.weak	_ZN5hwcpp21seven_segment_displayINS_23callback_implementationINS_12lpc1114_baseILi4096ELi32768ELi48000000EE8timer_64ENS_37callback_administration_double_linkedEEENS_6invertINS_18port_out_from_pinsIINS3_17pin_in_out_pullupILi0ELi2EEENS9_ILi0ELi3EEENS3_6pin_ocILi0ELi4EEENSC_ILi0ELi5EEENS9_ILi0ELi6EEENS9_ILi0ELi7EEENS9_ILi0ELi8EEENS9_ILi0ELi9EEEEEEvEENS8_IINS9_ILi1ELi9EEENS9_ILi1ELi8EEENS9_ILi1ELi5EEENS3_20pin_in_out_ad_pullupILi1ELi4ELi5EEEEEENS_28seven_segments_table_defaultIvEEE3muxEv
	.code	16
	.thumb_func
	.type	_ZN5hwcpp21seven_segment_displayINS_23callback_implementationINS_12lpc1114_baseILi4096ELi32768ELi48000000EE8timer_64ENS_37callback_administration_double_linkedEEENS_6invertINS_18port_out_from_pinsIINS3_17pin_in_out_pullupILi0ELi2EEENS9_ILi0ELi3EEENS3_6pin_ocILi0ELi4EEENSC_ILi0ELi5EEENS9_ILi0ELi6EEENS9_ILi0ELi7EEENS9_ILi0ELi8EEENS9_ILi0ELi9EEEEEEvEENS8_IINS9_ILi1ELi9EEENS9_ILi1ELi8EEENS9_ILi1ELi5EEENS3_20pin_in_out_ad_pullupILi1ELi4ELi5EEEEEENS_28seven_segments_table_defaultIvEEE3muxEv, %function
_ZN5hwcpp21seven_segment_displayINS_23callback_implementationINS_12lpc1114_baseILi4096ELi32768ELi48000000EE8timer_64ENS_37callback_administration_double_linkedEEENS_6invertINS_18port_out_from_pinsIINS3_17pin_in_out_pullupILi0ELi2EEENS9_ILi0ELi3EEENS3_6pin_ocILi0ELi4EEENSC_ILi0ELi5EEENS9_ILi0ELi6EEENS9_ILi0ELi7EEENS9_ILi0ELi8EEENS9_ILi0ELi9EEEEEEvEENS8_IINS9_ILi1ELi9EEENS9_ILi1ELi8EEENS9_ILi1ELi5EEENS3_20pin_in_out_ad_pullupILi1ELi4ELi5EEEEEENS_28seven_segments_table_defaultIvEEE3muxEv:
	push	{r4, lr}
	ldr	r4, .L69
	ldr	r3, [r4]
	add	r3, r3, #1
	cmp	r3, #3
	bls	.L68
	mov	r3, #0
.L68:
	mov	r0, #0
	str	r3, [r4]
	bl	_ZN5hwcpp18port_out_from_pinsIINS_12lpc1114_baseILi4096ELi32768ELi48000000EE17pin_in_out_pullupILi1ELi9EEENS3_ILi1ELi8EEENS3_ILi1ELi5EEENS2_20pin_in_out_ad_pullupILi1ELi4ELi5EEEEE3setEj
	ldr	r2, [r4]
	ldr	r3, .L69+4
	@ sp needed
	ldrb	r0, [r3, r2]
	bl	_ZN5hwcpp6invertINS_18port_out_from_pinsIINS_12lpc1114_baseILi4096ELi32768ELi48000000EE17pin_in_out_pullupILi0ELi2EEENS4_ILi0ELi3EEENS3_6pin_ocILi0ELi4EEENS7_ILi0ELi5EEENS4_ILi0ELi6EEENS4_ILi0ELi7EEENS4_ILi0ELi8EEENS4_ILi0ELi9EEEEEEvE3setEj
	ldr	r3, [r4]
	mov	r0, #1
	lsl	r0, r0, r3
	uxtb	r0, r0
	bl	_ZN5hwcpp18port_out_from_pinsIINS_12lpc1114_baseILi4096ELi32768ELi48000000EE17pin_in_out_pullupILi1ELi9EEENS3_ILi1ELi8EEENS3_ILi1ELi5EEENS2_20pin_in_out_ad_pullupILi1ELi4ELi5EEEEE3setEj
	pop	{r4, pc}
.L70:
	.align	2
.L69:
	.word	_ZN5hwcpp21seven_segment_displayINS_23callback_implementationINS_12lpc1114_baseILi4096ELi32768ELi48000000EE8timer_64ENS_37callback_administration_double_linkedEEENS_6invertINS_18port_out_from_pinsIINS3_17pin_in_out_pullupILi0ELi2EEENS9_ILi0ELi3EEENS3_6pin_ocILi0ELi4EEENSC_ILi0ELi5EEENS9_ILi0ELi6EEENS9_ILi0ELi7EEENS9_ILi0ELi8EEENS9_ILi0ELi9EEEEEEvEENS8_IINS9_ILi1ELi9EEENS9_ILi1ELi8EEENS9_ILi1ELi5EEENS3_20pin_in_out_ad_pullupILi1ELi4ELi5EEEEEENS_28seven_segments_table_defaultIvEEE13current_digitE
	.word	_ZN5hwcpp21seven_segment_displayINS_23callback_implementationINS_12lpc1114_baseILi4096ELi32768ELi48000000EE8timer_64ENS_37callback_administration_double_linkedEEENS_6invertINS_18port_out_from_pinsIINS3_17pin_in_out_pullupILi0ELi2EEENS9_ILi0ELi3EEENS3_6pin_ocILi0ELi4EEENSC_ILi0ELi5EEENS9_ILi0ELi6EEENS9_ILi0ELi7EEENS9_ILi0ELi8EEENS9_ILi0ELi9EEEEEEvEENS8_IINS9_ILi1ELi9EEENS9_ILi1ELi8EEENS9_ILi1ELi5EEENS3_20pin_in_out_ad_pullupILi1ELi4ELi5EEEEEENS_28seven_segments_table_defaultIvEEE14segment_valuesE
	.size	_ZN5hwcpp21seven_segment_displayINS_23callback_implementationINS_12lpc1114_baseILi4096ELi32768ELi48000000EE8timer_64ENS_37callback_administration_double_linkedEEENS_6invertINS_18port_out_from_pinsIINS3_17pin_in_out_pullupILi0ELi2EEENS9_ILi0ELi3EEENS3_6pin_ocILi0ELi4EEENSC_ILi0ELi5EEENS9_ILi0ELi6EEENS9_ILi0ELi7EEENS9_ILi0ELi8EEENS9_ILi0ELi9EEEEEEvEENS8_IINS9_ILi1ELi9EEENS9_ILi1ELi8EEENS9_ILi1ELi5EEENS3_20pin_in_out_ad_pullupILi1ELi4ELi5EEEEEENS_28seven_segments_table_defaultIvEEE3muxEv, .-_ZN5hwcpp21seven_segment_displayINS_23callback_implementationINS_12lpc1114_baseILi4096ELi32768ELi48000000EE8timer_64ENS_37callback_administration_double_linkedEEENS_6invertINS_18port_out_from_pinsIINS3_17pin_in_out_pullupILi0ELi2EEENS9_ILi0ELi3EEENS3_6pin_ocILi0ELi4EEENSC_ILi0ELi5EEENS9_ILi0ELi6EEENS9_ILi0ELi7EEENS9_ILi0ELi8EEENS9_ILi0ELi9EEEEEEvEENS8_IINS9_ILi1ELi9EEENS9_ILi1ELi8EEENS9_ILi1ELi5EEENS3_20pin_in_out_ad_pullupILi1ELi4ELi5EEEEEENS_28seven_segments_table_defaultIvEEE3muxEv
	.weak	_ZN5hwcpp21seven_segment_displayINS_23callback_implementationINS_12lpc1114_baseILi4096ELi32768ELi48000000EE8timer_64ENS_37callback_administration_double_linkedEEENS_6invertINS_18port_out_from_pinsIJNS3_17pin_in_out_pullupILi0ELi2EEENS9_ILi0ELi3EEENS3_6pin_ocILi0ELi4EEENSC_ILi0ELi5EEENS9_ILi0ELi6EEENS9_ILi0ELi7EEENS9_ILi0ELi8EEENS9_ILi0ELi9EEEEEEvEENS8_IJNS9_ILi1ELi9EEENS9_ILi1ELi8EEENS9_ILi1ELi5EEENS3_20pin_in_out_ad_pullupILi1ELi4ELi5EEEEEENS_28seven_segments_table_defaultIvEEE3muxEv
	.thumb_set _ZN5hwcpp21seven_segment_displayINS_23callback_implementationINS_12lpc1114_baseILi4096ELi32768ELi48000000EE8timer_64ENS_37callback_administration_double_linkedEEENS_6invertINS_18port_out_from_pinsIJNS3_17pin_in_out_pullupILi0ELi2EEENS9_ILi0ELi3EEENS3_6pin_ocILi0ELi4EEENSC_ILi0ELi5EEENS9_ILi0ELi6EEENS9_ILi0ELi7EEENS9_ILi0ELi8EEENS9_ILi0ELi9EEEEEEvEENS8_IJNS9_ILi1ELi9EEENS9_ILi1ELi8EEENS9_ILi1ELi5EEENS3_20pin_in_out_ad_pullupILi1ELi4ELi5EEEEEENS_28seven_segments_table_defaultIvEEE3muxEv,_ZN5hwcpp21seven_segment_displayINS_23callback_implementationINS_12lpc1114_baseILi4096ELi32768ELi48000000EE8timer_64ENS_37callback_administration_double_linkedEEENS_6invertINS_18port_out_from_pinsIINS3_17pin_in_out_pullupILi0ELi2EEENS9_ILi0ELi3EEENS3_6pin_ocILi0ELi4EEENSC_ILi0ELi5EEENS9_ILi0ELi6EEENS9_ILi0ELi7EEENS9_ILi0ELi8EEENS9_ILi0ELi9EEEEEEvEENS8_IINS9_ILi1ELi9EEENS9_ILi1ELi8EEENS9_ILi1ELi5EEENS3_20pin_in_out_ad_pullupILi1ELi4ELi5EEEEEENS_28seven_segments_table_defaultIvEEE3muxEv
	.section	.text._ZN5hwcpp21seven_segment_displayINS_23callback_implementationINS_12lpc1114_baseILi4096ELi32768ELi48000000EE8timer_64ENS_37callback_administration_double_linkedEEENS_6invertINS_18port_out_from_pinsIINS3_17pin_in_out_pullupILi0ELi2EEENS9_ILi0ELi3EEENS3_6pin_ocILi0ELi4EEENSC_ILi0ELi5EEENS9_ILi0ELi6EEENS9_ILi0ELi7EEENS9_ILi0ELi8EEENS9_ILi0ELi9EEEEEEvEENS8_IINS9_ILi1ELi9EEENS9_ILi1ELi8EEENS9_ILi1ELi5EEENS3_20pin_in_out_ad_pullupILi1ELi4ELi5EEEEEENS_28seven_segments_table_defaultIvEEE12multiplexing8functionEv,"axG",%progbits,_ZN5hwcpp21seven_segment_displayINS_23callback_implementationINS_12lpc1114_baseILi4096ELi32768ELi48000000EE8timer_64ENS_37callback_administration_double_linkedEEENS_6invertINS_18port_out_from_pinsIINS3_17pin_in_out_pullupILi0ELi2EEENS9_ILi0ELi3EEENS3_6pin_ocILi0ELi4EEENSC_ILi0ELi5EEENS9_ILi0ELi6EEENS9_ILi0ELi7EEENS9_ILi0ELi8EEENS9_ILi0ELi9EEEEEEvEENS8_IINS9_ILi1ELi9EEENS9_ILi1ELi8EEENS9_ILi1ELi5EEENS3_20pin_in_out_ad_pullupILi1ELi4ELi5EEEEEENS_28seven_segments_table_defaultIvEEE12multiplexing8functionEv,comdat
	.align	1
	.weak	_ZN5hwcpp21seven_segment_displayINS_23callback_implementationINS_12lpc1114_baseILi4096ELi32768ELi48000000EE8timer_64ENS_37callback_administration_double_linkedEEENS_6invertINS_18port_out_from_pinsIINS3_17pin_in_out_pullupILi0ELi2EEENS9_ILi0ELi3EEENS3_6pin_ocILi0ELi4EEENSC_ILi0ELi5EEENS9_ILi0ELi6EEENS9_ILi0ELi7EEENS9_ILi0ELi8EEENS9_ILi0ELi9EEEEEEvEENS8_IINS9_ILi1ELi9EEENS9_ILi1ELi8EEENS9_ILi1ELi5EEENS3_20pin_in_out_ad_pullupILi1ELi4ELi5EEEEEENS_28seven_segments_table_defaultIvEEE12multiplexing8functionEv
	.code	16
	.thumb_func
	.type	_ZN5hwcpp21seven_segment_displayINS_23callback_implementationINS_12lpc1114_baseILi4096ELi32768ELi48000000EE8timer_64ENS_37callback_administration_double_linkedEEENS_6invertINS_18port_out_from_pinsIINS3_17pin_in_out_pullupILi0ELi2EEENS9_ILi0ELi3EEENS3_6pin_ocILi0ELi4EEENSC_ILi0ELi5EEENS9_ILi0ELi6EEENS9_ILi0ELi7EEENS9_ILi0ELi8EEENS9_ILi0ELi9EEEEEEvEENS8_IINS9_ILi1ELi9EEENS9_ILi1ELi8EEENS9_ILi1ELi5EEENS3_20pin_in_out_ad_pullupILi1ELi4ELi5EEEEEENS_28seven_segments_table_defaultIvEEE12multiplexing8functionEv, %function
_ZN5hwcpp21seven_segment_displayINS_23callback_implementationINS_12lpc1114_baseILi4096ELi32768ELi48000000EE8timer_64ENS_37callback_administration_double_linkedEEENS_6invertINS_18port_out_from_pinsIINS3_17pin_in_out_pullupILi0ELi2EEENS9_ILi0ELi3EEENS3_6pin_ocILi0ELi4EEENSC_ILi0ELi5EEENS9_ILi0ELi6EEENS9_ILi0ELi7EEENS9_ILi0ELi8EEENS9_ILi0ELi9EEEEEEvEENS8_IINS9_ILi1ELi9EEENS9_ILi1ELi8EEENS9_ILi1ELi5EEENS3_20pin_in_out_ad_pullupILi1ELi4ELi5EEEEEENS_28seven_segments_table_defaultIvEEE12multiplexing8functionEv:
	push	{r4, lr}
	ldr	r4, .L75
	ldr	r3, [r4]
	add	r3, r3, #1
	cmp	r3, #3
	bls	.L74
	mov	r3, #0
.L74:
	mov	r0, #0
	str	r3, [r4]
	bl	_ZN5hwcpp18port_out_from_pinsIINS_12lpc1114_baseILi4096ELi32768ELi48000000EE17pin_in_out_pullupILi1ELi9EEENS3_ILi1ELi8EEENS3_ILi1ELi5EEENS2_20pin_in_out_ad_pullupILi1ELi4ELi5EEEEE3setEj
	ldr	r2, [r4]
	ldr	r3, .L75+4
	@ sp needed
	ldrb	r0, [r3, r2]
	bl	_ZN5hwcpp6invertINS_18port_out_from_pinsIINS_12lpc1114_baseILi4096ELi32768ELi48000000EE17pin_in_out_pullupILi0ELi2EEENS4_ILi0ELi3EEENS3_6pin_ocILi0ELi4EEENS7_ILi0ELi5EEENS4_ILi0ELi6EEENS4_ILi0ELi7EEENS4_ILi0ELi8EEENS4_ILi0ELi9EEEEEEvE3setEj
	ldr	r3, [r4]
	mov	r0, #1
	lsl	r0, r0, r3
	uxtb	r0, r0
	bl	_ZN5hwcpp18port_out_from_pinsIINS_12lpc1114_baseILi4096ELi32768ELi48000000EE17pin_in_out_pullupILi1ELi9EEENS3_ILi1ELi8EEENS3_ILi1ELi5EEENS2_20pin_in_out_ad_pullupILi1ELi4ELi5EEEEE3setEj
	pop	{r4, pc}
.L76:
	.align	2
.L75:
	.word	_ZN5hwcpp21seven_segment_displayINS_23callback_implementationINS_12lpc1114_baseILi4096ELi32768ELi48000000EE8timer_64ENS_37callback_administration_double_linkedEEENS_6invertINS_18port_out_from_pinsIINS3_17pin_in_out_pullupILi0ELi2EEENS9_ILi0ELi3EEENS3_6pin_ocILi0ELi4EEENSC_ILi0ELi5EEENS9_ILi0ELi6EEENS9_ILi0ELi7EEENS9_ILi0ELi8EEENS9_ILi0ELi9EEEEEEvEENS8_IINS9_ILi1ELi9EEENS9_ILi1ELi8EEENS9_ILi1ELi5EEENS3_20pin_in_out_ad_pullupILi1ELi4ELi5EEEEEENS_28seven_segments_table_defaultIvEEE13current_digitE
	.word	_ZN5hwcpp21seven_segment_displayINS_23callback_implementationINS_12lpc1114_baseILi4096ELi32768ELi48000000EE8timer_64ENS_37callback_administration_double_linkedEEENS_6invertINS_18port_out_from_pinsIINS3_17pin_in_out_pullupILi0ELi2EEENS9_ILi0ELi3EEENS3_6pin_ocILi0ELi4EEENSC_ILi0ELi5EEENS9_ILi0ELi6EEENS9_ILi0ELi7EEENS9_ILi0ELi8EEENS9_ILi0ELi9EEEEEEvEENS8_IINS9_ILi1ELi9EEENS9_ILi1ELi8EEENS9_ILi1ELi5EEENS3_20pin_in_out_ad_pullupILi1ELi4ELi5EEEEEENS_28seven_segments_table_defaultIvEEE14segment_valuesE
	.size	_ZN5hwcpp21seven_segment_displayINS_23callback_implementationINS_12lpc1114_baseILi4096ELi32768ELi48000000EE8timer_64ENS_37callback_administration_double_linkedEEENS_6invertINS_18port_out_from_pinsIINS3_17pin_in_out_pullupILi0ELi2EEENS9_ILi0ELi3EEENS3_6pin_ocILi0ELi4EEENSC_ILi0ELi5EEENS9_ILi0ELi6EEENS9_ILi0ELi7EEENS9_ILi0ELi8EEENS9_ILi0ELi9EEEEEEvEENS8_IINS9_ILi1ELi9EEENS9_ILi1ELi8EEENS9_ILi1ELi5EEENS3_20pin_in_out_ad_pullupILi1ELi4ELi5EEEEEENS_28seven_segments_table_defaultIvEEE12multiplexing8functionEv, .-_ZN5hwcpp21seven_segment_displayINS_23callback_implementationINS_12lpc1114_baseILi4096ELi32768ELi48000000EE8timer_64ENS_37callback_administration_double_linkedEEENS_6invertINS_18port_out_from_pinsIINS3_17pin_in_out_pullupILi0ELi2EEENS9_ILi0ELi3EEENS3_6pin_ocILi0ELi4EEENSC_ILi0ELi5EEENS9_ILi0ELi6EEENS9_ILi0ELi7EEENS9_ILi0ELi8EEENS9_ILi0ELi9EEEEEEvEENS8_IINS9_ILi1ELi9EEENS9_ILi1ELi8EEENS9_ILi1ELi5EEENS3_20pin_in_out_ad_pullupILi1ELi4ELi5EEEEEENS_28seven_segments_table_defaultIvEEE12multiplexing8functionEv
	.weak	_ZN5hwcpp21seven_segment_displayINS_23callback_implementationINS_12lpc1114_baseILi4096ELi32768ELi48000000EE8timer_64ENS_37callback_administration_double_linkedEEENS_6invertINS_18port_out_from_pinsIJNS3_17pin_in_out_pullupILi0ELi2EEENS9_ILi0ELi3EEENS3_6pin_ocILi0ELi4EEENSC_ILi0ELi5EEENS9_ILi0ELi6EEENS9_ILi0ELi7EEENS9_ILi0ELi8EEENS9_ILi0ELi9EEEEEEvEENS8_IJNS9_ILi1ELi9EEENS9_ILi1ELi8EEENS9_ILi1ELi5EEENS3_20pin_in_out_ad_pullupILi1ELi4ELi5EEEEEENS_28seven_segments_table_defaultIvEEE12multiplexing8functionEv
	.thumb_set _ZN5hwcpp21seven_segment_displayINS_23callback_implementationINS_12lpc1114_baseILi4096ELi32768ELi48000000EE8timer_64ENS_37callback_administration_double_linkedEEENS_6invertINS_18port_out_from_pinsIJNS3_17pin_in_out_pullupILi0ELi2EEENS9_ILi0ELi3EEENS3_6pin_ocILi0ELi4EEENSC_ILi0ELi5EEENS9_ILi0ELi6EEENS9_ILi0ELi7EEENS9_ILi0ELi8EEENS9_ILi0ELi9EEEEEEvEENS8_IJNS9_ILi1ELi9EEENS9_ILi1ELi8EEENS9_ILi1ELi5EEENS3_20pin_in_out_ad_pullupILi1ELi4ELi5EEEEEENS_28seven_segments_table_defaultIvEEE12multiplexing8functionEv,_ZN5hwcpp21seven_segment_displayINS_23callback_implementationINS_12lpc1114_baseILi4096ELi32768ELi48000000EE8timer_64ENS_37callback_administration_double_linkedEEENS_6invertINS_18port_out_from_pinsIINS3_17pin_in_out_pullupILi0ELi2EEENS9_ILi0ELi3EEENS3_6pin_ocILi0ELi4EEENSC_ILi0ELi5EEENS9_ILi0ELi6EEENS9_ILi0ELi7EEENS9_ILi0ELi8EEENS9_ILi0ELi9EEEEEEvEENS8_IINS9_ILi1ELi9EEENS9_ILi1ELi8EEENS9_ILi1ELi5EEENS3_20pin_in_out_ad_pullupILi1ELi4ELi5EEEEEENS_28seven_segments_table_defaultIvEEE12multiplexing8functionEv
	.section	.text._ZN5hwcpp18port_out_from_pinsIINS_12lpc1114_baseILi4096ELi32768ELi48000000EE17pin_in_out_pullupILi0ELi7EEENS3_ILi0ELi8EEENS3_ILi0ELi9EEEEE4initEv,"axG",%progbits,_ZN5hwcpp18port_out_from_pinsIINS_12lpc1114_baseILi4096ELi32768ELi48000000EE17pin_in_out_pullupILi0ELi7EEENS3_ILi0ELi8EEENS3_ILi0ELi9EEEEE4initEv,comdat
	.align	1
	.weak	_ZN5hwcpp18port_out_from_pinsIINS_12lpc1114_baseILi4096ELi32768ELi48000000EE17pin_in_out_pullupILi0ELi7EEENS3_ILi0ELi8EEENS3_ILi0ELi9EEEEE4initEv
	.code	16
	.thumb_func
	.type	_ZN5hwcpp18port_out_from_pinsIINS_12lpc1114_baseILi4096ELi32768ELi48000000EE17pin_in_out_pullupILi0ELi7EEENS3_ILi0ELi8EEENS3_ILi0ELi9EEEEE4initEv, %function
_ZN5hwcpp18port_out_from_pinsIINS_12lpc1114_baseILi4096ELi32768ELi48000000EE17pin_in_out_pullupILi0ELi7EEENS3_ILi0ELi8EEENS3_ILi0ELi9EEEEE4initEv:
	ldr	r2, .L78
	mov	r0, #128
	ldr	r3, [r2, #124]
	lsl	r0, r0, #9
	orr	r3, r0
	push	{r4, r5, lr}
	str	r3, [r2, #124]
	ldr	r3, .L78+4
	mov	r1, #7
	ldr	r4, [r3]
	mov	r5, #128
	bic	r4, r1
	str	r4, [r3]
	ldr	r3, .L78+8
	@ sp needed
	ldr	r4, [r3]
	orr	r4, r5
	str	r4, [r3]
	ldr	r4, [r2, #124]
	orr	r4, r0
	str	r4, [r2, #124]
	ldr	r4, .L78+12
	ldr	r5, [r4]
	bic	r5, r1
	str	r5, [r4]
	ldr	r5, [r3]
	mov	r4, #128
	lsl	r4, r4, #1
	orr	r4, r5
	str	r4, [r3]
	ldr	r4, [r2, #124]
	orr	r0, r4
	str	r0, [r2, #124]
	ldr	r2, .L78+16
	ldr	r0, [r2]
	bic	r0, r1
	str	r0, [r2]
	ldr	r1, [r3]
	mov	r2, #128
	lsl	r2, r2, #2
	orr	r2, r1
	str	r2, [r3]
	pop	{r4, r5, pc}
.L79:
	.align	2
.L78:
	.word	1074036740
	.word	1074020432
	.word	1342210048
	.word	1074020448
	.word	1074020452
	.size	_ZN5hwcpp18port_out_from_pinsIINS_12lpc1114_baseILi4096ELi32768ELi48000000EE17pin_in_out_pullupILi0ELi7EEENS3_ILi0ELi8EEENS3_ILi0ELi9EEEEE4initEv, .-_ZN5hwcpp18port_out_from_pinsIINS_12lpc1114_baseILi4096ELi32768ELi48000000EE17pin_in_out_pullupILi0ELi7EEENS3_ILi0ELi8EEENS3_ILi0ELi9EEEEE4initEv
	.weak	_ZN5hwcpp18port_out_from_pinsIJNS_12lpc1114_baseILi4096ELi32768ELi48000000EE17pin_in_out_pullupILi0ELi7EEENS3_ILi0ELi8EEENS3_ILi0ELi9EEEEE4initEv
	.thumb_set _ZN5hwcpp18port_out_from_pinsIJNS_12lpc1114_baseILi4096ELi32768ELi48000000EE17pin_in_out_pullupILi0ELi7EEENS3_ILi0ELi8EEENS3_ILi0ELi9EEEEE4initEv,_ZN5hwcpp18port_out_from_pinsIINS_12lpc1114_baseILi4096ELi32768ELi48000000EE17pin_in_out_pullupILi0ELi7EEENS3_ILi0ELi8EEENS3_ILi0ELi9EEEEE4initEv
	.section	.text._ZN5hwcpp18port_out_from_pinsIINS_12lpc1114_baseILi4096ELi32768ELi48000000EE17pin_in_out_pullupILi0ELi3EEENS2_6pin_ocILi0ELi4EEENS5_ILi0ELi5EEENS3_ILi0ELi6EEENS3_ILi0ELi7EEENS3_ILi0ELi8EEENS3_ILi0ELi9EEEEE4initEv,"axG",%progbits,_ZN5hwcpp18port_out_from_pinsIINS_12lpc1114_baseILi4096ELi32768ELi48000000EE17pin_in_out_pullupILi0ELi3EEENS2_6pin_ocILi0ELi4EEENS5_ILi0ELi5EEENS3_ILi0ELi6EEENS3_ILi0ELi7EEENS3_ILi0ELi8EEENS3_ILi0ELi9EEEEE4initEv,comdat
	.align	1
	.weak	_ZN5hwcpp18port_out_from_pinsIINS_12lpc1114_baseILi4096ELi32768ELi48000000EE17pin_in_out_pullupILi0ELi3EEENS2_6pin_ocILi0ELi4EEENS5_ILi0ELi5EEENS3_ILi0ELi6EEENS3_ILi0ELi7EEENS3_ILi0ELi8EEENS3_ILi0ELi9EEEEE4initEv
	.code	16
	.thumb_func
	.type	_ZN5hwcpp18port_out_from_pinsIINS_12lpc1114_baseILi4096ELi32768ELi48000000EE17pin_in_out_pullupILi0ELi3EEENS2_6pin_ocILi0ELi4EEENS5_ILi0ELi5EEENS3_ILi0ELi6EEENS3_ILi0ELi7EEENS3_ILi0ELi8EEENS3_ILi0ELi9EEEEE4initEv, %function
_ZN5hwcpp18port_out_from_pinsIINS_12lpc1114_baseILi4096ELi32768ELi48000000EE17pin_in_out_pullupILi0ELi3EEENS2_6pin_ocILi0ELi4EEENS5_ILi0ELi5EEENS3_ILi0ELi6EEENS3_ILi0ELi7EEENS3_ILi0ELi8EEENS3_ILi0ELi9EEEEE4initEv:
	ldr	r2, .L81
	push	{r3, r4, r5, lr}
	mov	r0, #128
	ldr	r3, [r2, #124]
	lsl	r0, r0, #9
	orr	r3, r0
	str	r3, [r2, #124]
	ldr	r3, .L81+4
	mov	r1, #7
	ldr	r4, [r3]
	mov	r5, #8
	bic	r4, r1
	str	r4, [r3]
	ldr	r3, .L81+8
	@ sp needed
	ldr	r4, [r3]
	orr	r4, r5
	str	r4, [r3]
	ldr	r4, [r2, #124]
	orr	r4, r0
	str	r4, [r2, #124]
	ldr	r4, .L81+12
	ldr	r5, [r4]
	bic	r5, r1
	str	r5, [r4]
	ldr	r4, [r3]
	mov	r5, #16
	orr	r4, r5
	str	r4, [r3]
	ldr	r4, [r2, #124]
	orr	r4, r0
	str	r4, [r2, #124]
	ldr	r4, .L81+16
	ldr	r5, [r4]
	bic	r5, r1
	str	r5, [r4]
	ldr	r4, [r3]
	mov	r5, #32
	orr	r4, r5
	str	r4, [r3]
	ldr	r4, [r2, #124]
	orr	r0, r4
	str	r0, [r2, #124]
	ldr	r2, .L81+20
	ldr	r0, [r2]
	bic	r0, r1
	str	r0, [r2]
	ldr	r2, [r3]
	mov	r1, #64
	orr	r2, r1
	str	r2, [r3]
	bl	_ZN5hwcpp18port_out_from_pinsIINS_12lpc1114_baseILi4096ELi32768ELi48000000EE17pin_in_out_pullupILi0ELi7EEENS3_ILi0ELi8EEENS3_ILi0ELi9EEEEE4initEv
	pop	{r3, r4, r5, pc}
.L82:
	.align	2
.L81:
	.word	1074036740
	.word	1074020396
	.word	1342210048
	.word	1074020400
	.word	1074020404
	.word	1074020428
	.size	_ZN5hwcpp18port_out_from_pinsIINS_12lpc1114_baseILi4096ELi32768ELi48000000EE17pin_in_out_pullupILi0ELi3EEENS2_6pin_ocILi0ELi4EEENS5_ILi0ELi5EEENS3_ILi0ELi6EEENS3_ILi0ELi7EEENS3_ILi0ELi8EEENS3_ILi0ELi9EEEEE4initEv, .-_ZN5hwcpp18port_out_from_pinsIINS_12lpc1114_baseILi4096ELi32768ELi48000000EE17pin_in_out_pullupILi0ELi3EEENS2_6pin_ocILi0ELi4EEENS5_ILi0ELi5EEENS3_ILi0ELi6EEENS3_ILi0ELi7EEENS3_ILi0ELi8EEENS3_ILi0ELi9EEEEE4initEv
	.weak	_ZN5hwcpp18port_out_from_pinsIJNS_12lpc1114_baseILi4096ELi32768ELi48000000EE17pin_in_out_pullupILi0ELi3EEENS2_6pin_ocILi0ELi4EEENS5_ILi0ELi5EEENS3_ILi0ELi6EEENS3_ILi0ELi7EEENS3_ILi0ELi8EEENS3_ILi0ELi9EEEEE4initEv
	.thumb_set _ZN5hwcpp18port_out_from_pinsIJNS_12lpc1114_baseILi4096ELi32768ELi48000000EE17pin_in_out_pullupILi0ELi3EEENS2_6pin_ocILi0ELi4EEENS5_ILi0ELi5EEENS3_ILi0ELi6EEENS3_ILi0ELi7EEENS3_ILi0ELi8EEENS3_ILi0ELi9EEEEE4initEv,_ZN5hwcpp18port_out_from_pinsIINS_12lpc1114_baseILi4096ELi32768ELi48000000EE17pin_in_out_pullupILi0ELi3EEENS2_6pin_ocILi0ELi4EEENS5_ILi0ELi5EEENS3_ILi0ELi6EEENS3_ILi0ELi7EEENS3_ILi0ELi8EEENS3_ILi0ELi9EEEEE4initEv
	.section	.text._ZN5hwcpp21seven_segment_displayINS_23callback_implementationINS_12lpc1114_baseILi4096ELi32768ELi48000000EE8timer_64ENS_37callback_administration_double_linkedEEENS_6invertINS_18port_out_from_pinsIINS3_17pin_in_out_pullupILi0ELi2EEENS9_ILi0ELi3EEENS3_6pin_ocILi0ELi4EEENSC_ILi0ELi5EEENS9_ILi0ELi6EEENS9_ILi0ELi7EEENS9_ILi0ELi8EEENS9_ILi0ELi9EEEEEEvEENS8_IINS9_ILi1ELi9EEENS9_ILi1ELi8EEENS9_ILi1ELi5EEENS3_20pin_in_out_ad_pullupILi1ELi4ELi5EEEEEENS_28seven_segments_table_defaultIvEEE4initEv,"axG",%progbits,_ZN5hwcpp21seven_segment_displayINS_23callback_implementationINS_12lpc1114_baseILi4096ELi32768ELi48000000EE8timer_64ENS_37callback_administration_double_linkedEEENS_6invertINS_18port_out_from_pinsIINS3_17pin_in_out_pullupILi0ELi2EEENS9_ILi0ELi3EEENS3_6pin_ocILi0ELi4EEENSC_ILi0ELi5EEENS9_ILi0ELi6EEENS9_ILi0ELi7EEENS9_ILi0ELi8EEENS9_ILi0ELi9EEEEEEvEENS8_IINS9_ILi1ELi9EEENS9_ILi1ELi8EEENS9_ILi1ELi5EEENS3_20pin_in_out_ad_pullupILi1ELi4ELi5EEEEEENS_28seven_segments_table_defaultIvEEE4initEv,comdat
	.align	1
	.weak	_ZN5hwcpp21seven_segment_displayINS_23callback_implementationINS_12lpc1114_baseILi4096ELi32768ELi48000000EE8timer_64ENS_37callback_administration_double_linkedEEENS_6invertINS_18port_out_from_pinsIINS3_17pin_in_out_pullupILi0ELi2EEENS9_ILi0ELi3EEENS3_6pin_ocILi0ELi4EEENSC_ILi0ELi5EEENS9_ILi0ELi6EEENS9_ILi0ELi7EEENS9_ILi0ELi8EEENS9_ILi0ELi9EEEEEEvEENS8_IINS9_ILi1ELi9EEENS9_ILi1ELi8EEENS9_ILi1ELi5EEENS3_20pin_in_out_ad_pullupILi1ELi4ELi5EEEEEENS_28seven_segments_table_defaultIvEEE4initEv
	.code	16
	.thumb_func
	.type	_ZN5hwcpp21seven_segment_displayINS_23callback_implementationINS_12lpc1114_baseILi4096ELi32768ELi48000000EE8timer_64ENS_37callback_administration_double_linkedEEENS_6invertINS_18port_out_from_pinsIINS3_17pin_in_out_pullupILi0ELi2EEENS9_ILi0ELi3EEENS3_6pin_ocILi0ELi4EEENSC_ILi0ELi5EEENS9_ILi0ELi6EEENS9_ILi0ELi7EEENS9_ILi0ELi8EEENS9_ILi0ELi9EEEEEEvEENS8_IINS9_ILi1ELi9EEENS9_ILi1ELi8EEENS9_ILi1ELi5EEENS3_20pin_in_out_ad_pullupILi1ELi4ELi5EEEEEENS_28seven_segments_table_defaultIvEEE4initEv, %function
_ZN5hwcpp21seven_segment_displayINS_23callback_implementationINS_12lpc1114_baseILi4096ELi32768ELi48000000EE8timer_64ENS_37callback_administration_double_linkedEEENS_6invertINS_18port_out_from_pinsIINS3_17pin_in_out_pullupILi0ELi2EEENS9_ILi0ELi3EEENS3_6pin_ocILi0ELi4EEENSC_ILi0ELi5EEENS9_ILi0ELi6EEENS9_ILi0ELi7EEENS9_ILi0ELi8EEENS9_ILi0ELi9EEEEEEvEENS8_IINS9_ILi1ELi9EEENS9_ILi1ELi8EEENS9_ILi1ELi5EEENS3_20pin_in_out_ad_pullupILi1ELi4ELi5EEEEEENS_28seven_segments_table_defaultIvEEE4initEv:
	push	{r0, r1, r2, r4, r5, r6, r7, lr}
	bl	_ZN5hwcpp12lpc1114_baseILi4096ELi32768ELi48000000EE8timer_644initEv
	bl	_ZN5hwcpp18port_out_from_pinsIINS_12lpc1114_baseILi4096ELi32768ELi48000000EE17pin_in_out_pullupILi1ELi9EEENS3_ILi1ELi8EEENS3_ILi1ELi5EEENS2_20pin_in_out_ad_pullupILi1ELi4ELi5EEEEE4initEv
	ldr	r3, .L86+8
	mov	r2, #128
	ldr	r1, [r3, #124]
	lsl	r2, r2, #9
	orr	r2, r1
	str	r2, [r3, #124]
	ldr	r3, .L86+12
	mov	r1, #7
	ldr	r2, [r3]
	mov	r7, #1
	bic	r2, r1
	str	r2, [r3]
	ldr	r3, .L86+16
	mov	r1, #4
	ldr	r2, [r3]
	orr	r2, r1
	str	r2, [r3]
	bl	_ZN5hwcpp18port_out_from_pinsIINS_12lpc1114_baseILi4096ELi32768ELi48000000EE17pin_in_out_pullupILi0ELi3EEENS2_6pin_ocILi0ELi4EEENS5_ILi0ELi5EEENS3_ILi0ELi6EEENS3_ILi0ELi7EEENS3_ILi0ELi8EEENS3_ILi0ELi9EEEEE4initEv
	ldr	r3, .L86+20
	mov	r2, #0
	str	r2, [r3]
	ldr	r3, .L86+24
	ldr	r6, .L86+28
	ldr	r2, [r3]
	tst	r2, r7
	bne	.L84
	ldr	r3, .L86+32
	ldr	r5, .L86+4
	ldr	r4, .L86
	str	r3, [r6]
	str	r4, [r6, #24]
	str	r5, [r6, #28]
	str	r6, [r6, #4]
	str	r6, [r6, #8]
	mov	r0, sp
	bl	_ZN5hwcpp13timing_waiterINS_12lpc1114_baseILi4096ELi32768ELi48000000EE8timer_64EE3nowEv
	ldr	r1, [sp]
	ldr	r2, [sp, #4]
	add	r4, r4, r1
	adc	r5, r5, r2
	ldr	r2, .L86+36
	str	r4, [r6, #16]
	str	r5, [r6, #20]
	ldr	r1, [r2]
	ldr	r3, .L86+40
	tst	r1, r7
	bne	.L85
	ldr	r1, .L86+44
	str	r3, [r3, #4]
	str	r1, [r3]
	str	r3, [r3, #8]
	str	r7, [r2]
.L85:
	ldr	r1, [r6, #8]
	ldr	r2, [r6, #4]
	mov	r0, r6
	str	r1, [r2, #8]
	ldr	r1, [r6, #8]
	str	r2, [r1, #4]
	ldr	r2, [r3, #4]
	str	r3, [r6, #8]
	str	r6, [r3, #4]
	ldr	r3, .L86+48
	str	r2, [r6, #4]
	str	r6, [r2, #8]
	ldr	r2, .L86+24
	str	r3, [r6]
	mov	r3, #1
	str	r3, [r2]
	ldr	r1, .L86+52
	ldr	r2, .L86+56
	bl	__aeabi_atexit
.L84:
	mov	r0, r6
	bl	_ZN5hwcpp21seven_segment_displayINS_23callback_implementationINS_12lpc1114_baseILi4096ELi32768ELi48000000EE8timer_64ENS_37callback_administration_double_linkedEEENS_6invertINS_18port_out_from_pinsIINS3_17pin_in_out_pullupILi0ELi2EEENS9_ILi0ELi3EEENS3_6pin_ocILi0ELi4EEENSC_ILi0ELi5EEENS9_ILi0ELi6EEENS9_ILi0ELi7EEENS9_ILi0ELi8EEENS9_ILi0ELi9EEEEEEvEENS8_IINS9_ILi1ELi9EEENS9_ILi1ELi8EEENS9_ILi1ELi5EEENS3_20pin_in_out_ad_pullupILi1ELi4ELi5EEEEEENS_28seven_segments_table_defaultIvEEE12multiplexing8functionEv
	@ sp needed
	pop	{r0, r1, r2, r4, r5, r6, r7, pc}
.L87:
	.align	3
.L86:
	.word	240024000
	.word	0
	.word	1074036740
	.word	1074020380
	.word	1342210048
	.word	_ZN5hwcpp21seven_segment_displayINS_23callback_implementationINS_12lpc1114_baseILi4096ELi32768ELi48000000EE8timer_64ENS_37callback_administration_double_linkedEEENS_6invertINS_18port_out_from_pinsIINS3_17pin_in_out_pullupILi0ELi2EEENS9_ILi0ELi3EEENS3_6pin_ocILi0ELi4EEENSC_ILi0ELi5EEENS9_ILi0ELi6EEENS9_ILi0ELi7EEENS9_ILi0ELi8EEENS9_ILi0ELi9EEEEEEvEENS8_IINS9_ILi1ELi9EEENS9_ILi1ELi8EEENS9_ILi1ELi5EEENS3_20pin_in_out_ad_pullupILi1ELi4ELi5EEEEEENS_28seven_segments_table_defaultIvEEE13current_digitE
	.word	_ZGVZN5hwcpp21seven_segment_displayINS_23callback_implementationINS_12lpc1114_baseILi4096ELi32768ELi48000000EE8timer_64ENS_37callback_administration_double_linkedEEENS_6invertINS_18port_out_from_pinsIINS3_17pin_in_out_pullupILi0ELi2EEENS9_ILi0ELi3EEENS3_6pin_ocILi0ELi4EEENSC_ILi0ELi5EEENS9_ILi0ELi6EEENS9_ILi0ELi7EEENS9_ILi0ELi8EEENS9_ILi0ELi9EEEEEEvEENS8_IINS9_ILi1ELi9EEENS9_ILi1ELi8EEENS9_ILi1ELi5EEENS3_20pin_in_out_ad_pullupILi1ELi4ELi5EEEEEENS_28seven_segments_table_defaultIvEEE4initEvE8instance
	.word	_ZZN5hwcpp21seven_segment_displayINS_23callback_implementationINS_12lpc1114_baseILi4096ELi32768ELi48000000EE8timer_64ENS_37callback_administration_double_linkedEEENS_6invertINS_18port_out_from_pinsIINS3_17pin_in_out_pullupILi0ELi2EEENS9_ILi0ELi3EEENS3_6pin_ocILi0ELi4EEENSC_ILi0ELi5EEENS9_ILi0ELi6EEENS9_ILi0ELi7EEENS9_ILi0ELi8EEENS9_ILi0ELi9EEEEEEvEENS8_IINS9_ILi1ELi9EEENS9_ILi1ELi8EEENS9_ILi1ELi5EEENS3_20pin_in_out_ad_pullupILi1ELi4ELi5EEEEEENS_28seven_segments_table_defaultIvEEE4initEvE8instance
	.word	_ZTVN5hwcpp37callback_administration_double_linkedINS_21timing_implementationINS_12lpc1114_baseILi4096ELi32768ELi48000000EE8timer_64EEEE5clockIvvEE+8
	.word	_ZGVZN5hwcpp37callback_administration_double_linkedINS_21timing_implementationINS_12lpc1114_baseILi4096ELi32768ELi48000000EE8timer_64EEEE5_node8root_getEvE5_root
	.word	_ZZN5hwcpp37callback_administration_double_linkedINS_21timing_implementationINS_12lpc1114_baseILi4096ELi32768ELi48000000EE8timer_64EEEE5_node8root_getEvE5_root
	.word	_ZTVN5hwcpp37callback_administration_double_linkedINS_21timing_implementationINS_12lpc1114_baseILi4096ELi32768ELi48000000EE8timer_64EEEE5_nodeE+8
	.word	_ZTVN5hwcpp21seven_segment_displayINS_23callback_implementationINS_12lpc1114_baseILi4096ELi32768ELi48000000EE8timer_64ENS_37callback_administration_double_linkedEEENS_6invertINS_18port_out_from_pinsIINS3_17pin_in_out_pullupILi0ELi2EEENS9_ILi0ELi3EEENS3_6pin_ocILi0ELi4EEENSC_ILi0ELi5EEENS9_ILi0ELi6EEENS9_ILi0ELi7EEENS9_ILi0ELi8EEENS9_ILi0ELi9EEEEEEvEENS8_IINS9_ILi1ELi9EEENS9_ILi1ELi8EEENS9_ILi1ELi5EEENS3_20pin_in_out_ad_pullupILi1ELi4ELi5EEEEEENS_28seven_segments_table_defaultIvEEE12multiplexingE+8
	.word	_ZN5hwcpp21seven_segment_displayINS_23callback_implementationINS_12lpc1114_baseILi4096ELi32768ELi48000000EE8timer_64ENS_37callback_administration_double_linkedEEENS_6invertINS_18port_out_from_pinsIINS3_17pin_in_out_pullupILi0ELi2EEENS9_ILi0ELi3EEENS3_6pin_ocILi0ELi4EEENSC_ILi0ELi5EEENS9_ILi0ELi6EEENS9_ILi0ELi7EEENS9_ILi0ELi8EEENS9_ILi0ELi9EEEEEEvEENS8_IINS9_ILi1ELi9EEENS9_ILi1ELi8EEENS9_ILi1ELi5EEENS3_20pin_in_out_ad_pullupILi1ELi4ELi5EEEEEENS_28seven_segments_table_defaultIvEEE12multiplexingD1Ev
	.word	__dso_handle
	.size	_ZN5hwcpp21seven_segment_displayINS_23callback_implementationINS_12lpc1114_baseILi4096ELi32768ELi48000000EE8timer_64ENS_37callback_administration_double_linkedEEENS_6invertINS_18port_out_from_pinsIINS3_17pin_in_out_pullupILi0ELi2EEENS9_ILi0ELi3EEENS3_6pin_ocILi0ELi4EEENSC_ILi0ELi5EEENS9_ILi0ELi6EEENS9_ILi0ELi7EEENS9_ILi0ELi8EEENS9_ILi0ELi9EEEEEEvEENS8_IINS9_ILi1ELi9EEENS9_ILi1ELi8EEENS9_ILi1ELi5EEENS3_20pin_in_out_ad_pullupILi1ELi4ELi5EEEEEENS_28seven_segments_table_defaultIvEEE4initEv, .-_ZN5hwcpp21seven_segment_displayINS_23callback_implementationINS_12lpc1114_baseILi4096ELi32768ELi48000000EE8timer_64ENS_37callback_administration_double_linkedEEENS_6invertINS_18port_out_from_pinsIINS3_17pin_in_out_pullupILi0ELi2EEENS9_ILi0ELi3EEENS3_6pin_ocILi0ELi4EEENSC_ILi0ELi5EEENS9_ILi0ELi6EEENS9_ILi0ELi7EEENS9_ILi0ELi8EEENS9_ILi0ELi9EEEEEEvEENS8_IINS9_ILi1ELi9EEENS9_ILi1ELi8EEENS9_ILi1ELi5EEENS3_20pin_in_out_ad_pullupILi1ELi4ELi5EEEEEENS_28seven_segments_table_defaultIvEEE4initEv
	.weak	_ZN5hwcpp21seven_segment_displayINS_23callback_implementationINS_12lpc1114_baseILi4096ELi32768ELi48000000EE8timer_64ENS_37callback_administration_double_linkedEEENS_6invertINS_18port_out_from_pinsIJNS3_17pin_in_out_pullupILi0ELi2EEENS9_ILi0ELi3EEENS3_6pin_ocILi0ELi4EEENSC_ILi0ELi5EEENS9_ILi0ELi6EEENS9_ILi0ELi7EEENS9_ILi0ELi8EEENS9_ILi0ELi9EEEEEEvEENS8_IJNS9_ILi1ELi9EEENS9_ILi1ELi8EEENS9_ILi1ELi5EEENS3_20pin_in_out_ad_pullupILi1ELi4ELi5EEEEEENS_28seven_segments_table_defaultIvEEE4initEv
	.thumb_set _ZN5hwcpp21seven_segment_displayINS_23callback_implementationINS_12lpc1114_baseILi4096ELi32768ELi48000000EE8timer_64ENS_37callback_administration_double_linkedEEENS_6invertINS_18port_out_from_pinsIJNS3_17pin_in_out_pullupILi0ELi2EEENS9_ILi0ELi3EEENS3_6pin_ocILi0ELi4EEENSC_ILi0ELi5EEENS9_ILi0ELi6EEENS9_ILi0ELi7EEENS9_ILi0ELi8EEENS9_ILi0ELi9EEEEEEvEENS8_IJNS9_ILi1ELi9EEENS9_ILi1ELi8EEENS9_ILi1ELi5EEENS3_20pin_in_out_ad_pullupILi1ELi4ELi5EEEEEENS_28seven_segments_table_defaultIvEEE4initEv,_ZN5hwcpp21seven_segment_displayINS_23callback_implementationINS_12lpc1114_baseILi4096ELi32768ELi48000000EE8timer_64ENS_37callback_administration_double_linkedEEENS_6invertINS_18port_out_from_pinsIINS3_17pin_in_out_pullupILi0ELi2EEENS9_ILi0ELi3EEENS3_6pin_ocILi0ELi4EEENSC_ILi0ELi5EEENS9_ILi0ELi6EEENS9_ILi0ELi7EEENS9_ILi0ELi8EEENS9_ILi0ELi9EEEEEEvEENS8_IINS9_ILi1ELi9EEENS9_ILi1ELi8EEENS9_ILi1ELi5EEENS3_20pin_in_out_ad_pullupILi1ELi4ELi5EEEEEENS_28seven_segments_table_defaultIvEEE4initEv
	.section	.text._ZN5hwcpp5db104ILj48000000EE4initEv,"axG",%progbits,_ZN5hwcpp5db104ILj48000000EE4initEv,comdat
	.align	1
	.weak	_ZN5hwcpp5db104ILj48000000EE4initEv
	.code	16
	.thumb_func
	.type	_ZN5hwcpp5db104ILj48000000EE4initEv, %function
_ZN5hwcpp5db104ILj48000000EE4initEv:
	push	{r3, r4, r5, r6, r7, lr}
	ldr	r4, .L89
	bl	_ZN5hwcpp11pin_in_fromINS_12lpc1114_baseILi4096ELi32768ELi48000000EE20pin_in_out_ad_pullupILi1ELi0ELi1EEEvE4initEv
	mov	r7, #128
	ldr	r3, [r4, #124]
	lsl	r7, r7, #9
	orr	r3, r7
	str	r3, [r4, #124]
	ldr	r3, .L89+4
	mov	r6, #7
	ldr	r2, [r3]
	mov	r1, #129
	bic	r2, r6
	ldr	r5, .L89+8
	orr	r2, r1
	str	r2, [r3]
	ldr	r3, [r5]
	mov	r2, #2
	bic	r3, r2
	str	r3, [r5]
	ldr	r3, [r4, #124]
	@ sp needed
	orr	r3, r7
	str	r3, [r4, #124]
	ldr	r3, .L89+12
	ldr	r2, [r3]
	bic	r2, r6
	orr	r2, r1
	str	r2, [r3]
	ldr	r3, [r5]
	mov	r2, #4
	bic	r3, r2
	str	r3, [r5]
	bl	_ZN5hwcpp12pin_out_fromINS_12lpc1114_baseILi4096ELi32768ELi48000000EE17pin_in_out_pullupILi0ELi10EEEvE4initEv
	ldr	r3, [r4, #124]
	mov	r1, #129
	orr	r3, r7
	str	r3, [r4, #124]
	ldr	r3, .L89+16
	ldr	r2, [r3]
	bic	r2, r6
	orr	r2, r1
	str	r2, [r3]
	ldr	r3, .L89+20
	mov	r2, #128
	ldr	r1, [r3]
	lsl	r2, r2, #4
	orr	r2, r1
	str	r2, [r3]
	ldr	r3, [r4, #124]
	mov	r1, #129
	orr	r7, r3
	ldr	r3, .L89+24
	str	r7, [r4, #124]
	ldr	r2, [r3]
	bic	r2, r6
	orr	r2, r1
	str	r2, [r3]
	ldr	r3, [r5]
	mov	r2, #8
	orr	r3, r2
	str	r3, [r5]
	bl	_ZN5hwcpp21seven_segment_displayINS_23callback_implementationINS_12lpc1114_baseILi4096ELi32768ELi48000000EE8timer_64ENS_37callback_administration_double_linkedEEENS_6invertINS_18port_out_from_pinsIINS3_17pin_in_out_pullupILi0ELi2EEENS9_ILi0ELi3EEENS3_6pin_ocILi0ELi4EEENSC_ILi0ELi5EEENS9_ILi0ELi6EEENS9_ILi0ELi7EEENS9_ILi0ELi8EEENS9_ILi0ELi9EEEEEEvEENS8_IINS9_ILi1ELi9EEENS9_ILi1ELi8EEENS9_ILi1ELi5EEENS3_20pin_in_out_ad_pullupILi1ELi4ELi5EEEEEENS_28seven_segments_table_defaultIvEEE4initEv
	bl	_ZN5hwcpp12lpc1114_baseILi4096ELi32768ELi48000000EE8timer_644initEv
	pop	{r3, r4, r5, r6, r7, pc}
.L90:
	.align	2
.L89:
	.word	1074036740
	.word	1074020476
	.word	1342275584
	.word	1074020480
	.word	1074020468
	.word	1342210048
	.word	1074020496
	.size	_ZN5hwcpp5db104ILj48000000EE4initEv, .-_ZN5hwcpp5db104ILj48000000EE4initEv
	.global	__aeabi_idivmod
	.global	__aeabi_idiv
	.section	.text.startup.main,"ax",%progbits
	.align	1
	.global	main
	.code	16
	.thumb_func
	.type	main, %function
main:
	push	{r4, r5, r6, r7, lr}
	sub	sp, sp, #20
	bl	_ZN5hwcpp5db104ILj48000000EE4initEv
	bl	_ZN5hwcpp11pin_in_fromINS_12lpc1114_baseILi4096ELi32768ELi48000000EE20pin_in_out_ad_pullupILi1ELi0ELi1EEEvE4initEv
	bl	_ZN5hwcpp12pin_out_fromINS_12lpc1114_baseILi4096ELi32768ELi48000000EE17pin_in_out_pullupILi0ELi10EEEvE4initEv
.L100:
	add	r0, sp, #8
	bl	_ZN5hwcpp13timing_waiterINS_12lpc1114_baseILi4096ELi32768ELi48000000EE8timer_64EE3nowEv
	ldr	r4, [sp, #8]
	ldr	r5, [sp, #12]
	mov	r0, #250
	mov	r2, #1
	lsl	r0, r0, #3
	mov	r1, #4
	bl	_ZN5hwcpp21seven_segment_displayINS_23callback_implementationINS_12lpc1114_baseILi4096ELi32768ELi48000000EE8timer_64ENS_37callback_administration_double_linkedEEENS_6invertINS_18port_out_from_pinsIINS3_17pin_in_out_pullupILi0ELi2EEENS9_ILi0ELi3EEENS3_6pin_ocILi0ELi4EEENSC_ILi0ELi5EEENS9_ILi0ELi6EEENS9_ILi0ELi7EEENS9_ILi0ELi8EEENS9_ILi0ELi9EEEEEEvEENS8_IINS9_ILi1ELi9EEENS9_ILi1ELi8EEENS9_ILi1ELi5EEENS3_20pin_in_out_ad_pullupILi1ELi4ELi5EEEEEENS_28seven_segments_table_defaultIvEEE17set_decimal_valueEjjb
	bl	_ZN5hwcpp21seven_segment_displayINS_23callback_implementationINS_12lpc1114_baseILi4096ELi32768ELi48000000EE8timer_64ENS_37callback_administration_double_linkedEEENS_6invertINS_18port_out_from_pinsIINS3_17pin_in_out_pullupILi0ELi2EEENS9_ILi0ELi3EEENS3_6pin_ocILi0ELi4EEENSC_ILi0ELi5EEENS9_ILi0ELi6EEENS9_ILi0ELi7EEENS9_ILi0ELi8EEENS9_ILi0ELi9EEEEEEvEENS8_IINS9_ILi1ELi9EEENS9_ILi1ELi8EEENS9_ILi1ELi5EEENS3_20pin_in_out_ad_pullupILi1ELi4ELi5EEEEEENS_28seven_segments_table_defaultIvEEE3muxEv
	bl	_ZN5hwcpp20add_timing_templatesINS_37callback_administration_double_linkedINS_21timing_implementationINS_12lpc1114_baseILi4096ELi32768ELi48000000EE8timer_64EEEEEE2nsILy1000000ELy18446744073708551616EE4waitEv
	ldr	r3, .L103+8
	mov	r2, #0
	str	r2, [r3]
	ldr	r2, .L103+12
	mov	r7, #1
	ldr	r2, [r2]
	mov	r6, #250
	bic	r7, r2
	str	r7, [sp, #4]
	lsl	r6, r6, #3
.L92:
	ldr	r3, [sp, #4]
	cmp	r3, #0
	beq	.L100
	mov	r0, r6
	mov	r1, #4
	mov	r2, #1
	bl	_ZN5hwcpp21seven_segment_displayINS_23callback_implementationINS_12lpc1114_baseILi4096ELi32768ELi48000000EE8timer_64ENS_37callback_administration_double_linkedEEENS_6invertINS_18port_out_from_pinsIINS3_17pin_in_out_pullupILi0ELi2EEENS9_ILi0ELi3EEENS3_6pin_ocILi0ELi4EEENSC_ILi0ELi5EEENS9_ILi0ELi6EEENS9_ILi0ELi7EEENS9_ILi0ELi8EEENS9_ILi0ELi9EEEEEEvEENS8_IINS9_ILi1ELi9EEENS9_ILi1ELi8EEENS9_ILi1ELi5EEENS3_20pin_in_out_ad_pullupILi1ELi4ELi5EEEEEENS_28seven_segments_table_defaultIvEEE17set_decimal_valueEjjb
	mov	r7, #50
.L94:
	sub	r7, r7, #1
	bl	_ZN5hwcpp21seven_segment_displayINS_23callback_implementationINS_12lpc1114_baseILi4096ELi32768ELi48000000EE8timer_64ENS_37callback_administration_double_linkedEEENS_6invertINS_18port_out_from_pinsIINS3_17pin_in_out_pullupILi0ELi2EEENS9_ILi0ELi3EEENS3_6pin_ocILi0ELi4EEENSC_ILi0ELi5EEENS9_ILi0ELi6EEENS9_ILi0ELi7EEENS9_ILi0ELi8EEENS9_ILi0ELi9EEEEEEvEENS8_IINS9_ILi1ELi9EEENS9_ILi1ELi8EEENS9_ILi1ELi5EEENS3_20pin_in_out_ad_pullupILi1ELi4ELi5EEEEEENS_28seven_segments_table_defaultIvEEE3muxEv
	bl	_ZN5hwcpp20add_timing_templatesINS_37callback_administration_double_linkedINS_21timing_implementationINS_12lpc1114_baseILi4096ELi32768ELi48000000EE8timer_64EEEEEE2nsILy1000000ELy18446744073708551616EE4waitEv
	cmp	r7, #0
	bne	.L94
	add	r0, sp, #8
	bl	_ZN5hwcpp13timing_waiterINS_12lpc1114_baseILi4096ELi32768ELi48000000EE8timer_64EE3nowEv
	ldr	r3, [sp, #12]
	ldr	r2, [sp, #8]
	cmp	r3, r5
	bgt	.L102
	bne	.L95
	cmp	r2, r4
	bls	.L95
.L102:
	sub	r6, r6, #1
	mov	r0, r6
	mov	r1, #100
	ldr	r3, .L103+4
	ldr	r2, .L103
	add	r4, r4, r2
	adc	r5, r5, r3
	bl	__aeabi_idivmod
	cmp	r1, #99
	bne	.L95
	mov	r0, r6
	mov	r1, #100
	bl	__aeabi_idiv
	mov	r6, #100
	mul	r6, r0
	add	r6, r6, #59
.L95:
	cmp	r6, #0
	bne	.L92
	mov	r3, #1
	ldr	r2, .L103+8
	neg	r3, r3
	mov	r7, #250
	str	r3, [r2]
	lsl	r7, r7, #1
.L98:
	sub	r7, r7, #1
	bl	_ZN5hwcpp21seven_segment_displayINS_23callback_implementationINS_12lpc1114_baseILi4096ELi32768ELi48000000EE8timer_64ENS_37callback_administration_double_linkedEEENS_6invertINS_18port_out_from_pinsIINS3_17pin_in_out_pullupILi0ELi2EEENS9_ILi0ELi3EEENS3_6pin_ocILi0ELi4EEENSC_ILi0ELi5EEENS9_ILi0ELi6EEENS9_ILi0ELi7EEENS9_ILi0ELi8EEENS9_ILi0ELi9EEEEEEvEENS8_IINS9_ILi1ELi9EEENS9_ILi1ELi8EEENS9_ILi1ELi5EEENS3_20pin_in_out_ad_pullupILi1ELi4ELi5EEEEEENS_28seven_segments_table_defaultIvEEE3muxEv
	bl	_ZN5hwcpp20add_timing_templatesINS_37callback_administration_double_linkedINS_21timing_implementationINS_12lpc1114_baseILi4096ELi32768ELi48000000EE8timer_64EEEEEE2nsILy1000000ELy18446744073708551616EE4waitEv
	cmp	r7, #0
	bne	.L98
	str	r7, [sp, #4]
	b	.L92
.L104:
	.align	3
.L103:
	.word	24000000
	.word	0
	.word	1342181376
	.word	1342259196
	.size	main, .-main
	.weak	_ZZN5hwcpp12lpc1114_baseILi4096ELi32768ELi48000000EE8timer_643nowEvE4high
	.section	.bss._ZZN5hwcpp12lpc1114_baseILi4096ELi32768ELi48000000EE8timer_643nowEvE4high,"awG",%nobits,_ZZN5hwcpp12lpc1114_baseILi4096ELi32768ELi48000000EE8timer_643nowEvE4high,comdat
	.align	3
	.type	_ZZN5hwcpp12lpc1114_baseILi4096ELi32768ELi48000000EE8timer_643nowEvE4high, %object
	.size	_ZZN5hwcpp12lpc1114_baseILi4096ELi32768ELi48000000EE8timer_643nowEvE4high, 8
_ZZN5hwcpp12lpc1114_baseILi4096ELi32768ELi48000000EE8timer_643nowEvE4high:
	.space	8
	.weak	_ZZN5hwcpp12lpc1114_baseILi4096ELi32768ELi48000000EE8timer_643nowEvE8last_low
	.section	.bss._ZZN5hwcpp12lpc1114_baseILi4096ELi32768ELi48000000EE8timer_643nowEvE8last_low,"awG",%nobits,_ZZN5hwcpp12lpc1114_baseILi4096ELi32768ELi48000000EE8timer_643nowEvE8last_low,comdat
	.align	2
	.type	_ZZN5hwcpp12lpc1114_baseILi4096ELi32768ELi48000000EE8timer_643nowEvE8last_low, %object
	.size	_ZZN5hwcpp12lpc1114_baseILi4096ELi32768ELi48000000EE8timer_643nowEvE8last_low, 4
_ZZN5hwcpp12lpc1114_baseILi4096ELi32768ELi48000000EE8timer_643nowEvE8last_low:
	.space	4
	.weak	_ZZN5hwcpp12lpc1114_baseILi4096ELi32768ELi48000000EE16initialize_clockEvE4done
	.section	.bss._ZZN5hwcpp12lpc1114_baseILi4096ELi32768ELi48000000EE16initialize_clockEvE4done,"awG",%nobits,_ZZN5hwcpp12lpc1114_baseILi4096ELi32768ELi48000000EE16initialize_clockEvE4done,comdat
	.type	_ZZN5hwcpp12lpc1114_baseILi4096ELi32768ELi48000000EE16initialize_clockEvE4done, %object
	.size	_ZZN5hwcpp12lpc1114_baseILi4096ELi32768ELi48000000EE16initialize_clockEvE4done, 1
_ZZN5hwcpp12lpc1114_baseILi4096ELi32768ELi48000000EE16initialize_clockEvE4done:
	.space	1
	.weak	_ZZN5hwcpp37callback_administration_double_linkedINS_21timing_implementationINS_12lpc1114_baseILi4096ELi32768ELi48000000EE8timer_64EEEE5_node8root_getEvE5_root
	.section	.bss._ZZN5hwcpp37callback_administration_double_linkedINS_21timing_implementationINS_12lpc1114_baseILi4096ELi32768ELi48000000EE8timer_64EEEE5_node8root_getEvE5_root,"awG",%nobits,_ZZN5hwcpp37callback_administration_double_linkedINS_21timing_implementationINS_12lpc1114_baseILi4096ELi32768ELi48000000EE8timer_64EEEE5_node8root_getEvE5_root,comdat
	.align	3
	.type	_ZZN5hwcpp37callback_administration_double_linkedINS_21timing_implementationINS_12lpc1114_baseILi4096ELi32768ELi48000000EE8timer_64EEEE5_node8root_getEvE5_root, %object
	.size	_ZZN5hwcpp37callback_administration_double_linkedINS_21timing_implementationINS_12lpc1114_baseILi4096ELi32768ELi48000000EE8timer_64EEEE5_node8root_getEvE5_root, 24
_ZZN5hwcpp37callback_administration_double_linkedINS_21timing_implementationINS_12lpc1114_baseILi4096ELi32768ELi48000000EE8timer_64EEEE5_node8root_getEvE5_root:
	.space	24
	.weak	_ZZN5hwcpp21seven_segment_displayINS_23callback_implementationINS_12lpc1114_baseILi4096ELi32768ELi48000000EE8timer_64ENS_37callback_administration_double_linkedEEENS_6invertINS_18port_out_from_pinsIINS3_17pin_in_out_pullupILi0ELi2EEENS9_ILi0ELi3EEENS3_6pin_ocILi0ELi4EEENSC_ILi0ELi5EEENS9_ILi0ELi6EEENS9_ILi0ELi7EEENS9_ILi0ELi8EEENS9_ILi0ELi9EEEEEEvEENS8_IINS9_ILi1ELi9EEENS9_ILi1ELi8EEENS9_ILi1ELi5EEENS3_20pin_in_out_ad_pullupILi1ELi4ELi5EEEEEENS_28seven_segments_table_defaultIvEEE4initEvE8instance
	.section	.bss._ZZN5hwcpp21seven_segment_displayINS_23callback_implementationINS_12lpc1114_baseILi4096ELi32768ELi48000000EE8timer_64ENS_37callback_administration_double_linkedEEENS_6invertINS_18port_out_from_pinsIINS3_17pin_in_out_pullupILi0ELi2EEENS9_ILi0ELi3EEENS3_6pin_ocILi0ELi4EEENSC_ILi0ELi5EEENS9_ILi0ELi6EEENS9_ILi0ELi7EEENS9_ILi0ELi8EEENS9_ILi0ELi9EEEEEEvEENS8_IINS9_ILi1ELi9EEENS9_ILi1ELi8EEENS9_ILi1ELi5EEENS3_20pin_in_out_ad_pullupILi1ELi4ELi5EEEEEENS_28seven_segments_table_defaultIvEEE4initEvE8instance,"awG",%nobits,_ZZN5hwcpp21seven_segment_displayINS_23callback_implementationINS_12lpc1114_baseILi4096ELi32768ELi48000000EE8timer_64ENS_37callback_administration_double_linkedEEENS_6invertINS_18port_out_from_pinsIINS3_17pin_in_out_pullupILi0ELi2EEENS9_ILi0ELi3EEENS3_6pin_ocILi0ELi4EEENSC_ILi0ELi5EEENS9_ILi0ELi6EEENS9_ILi0ELi7EEENS9_ILi0ELi8EEENS9_ILi0ELi9EEEEEEvEENS8_IINS9_ILi1ELi9EEENS9_ILi1ELi8EEENS9_ILi1ELi5EEENS3_20pin_in_out_ad_pullupILi1ELi4ELi5EEEEEENS_28seven_segments_table_defaultIvEEE4initEvE8instance,comdat
	.align	3
	.type	_ZZN5hwcpp21seven_segment_displayINS_23callback_implementationINS_12lpc1114_baseILi4096ELi32768ELi48000000EE8timer_64ENS_37callback_administration_double_linkedEEENS_6invertINS_18port_out_from_pinsIINS3_17pin_in_out_pullupILi0ELi2EEENS9_ILi0ELi3EEENS3_6pin_ocILi0ELi4EEENSC_ILi0ELi5EEENS9_ILi0ELi6EEENS9_ILi0ELi7EEENS9_ILi0ELi8EEENS9_ILi0ELi9EEEEEEvEENS8_IINS9_ILi1ELi9EEENS9_ILi1ELi8EEENS9_ILi1ELi5EEENS3_20pin_in_out_ad_pullupILi1ELi4ELi5EEEEEENS_28seven_segments_table_defaultIvEEE4initEvE8instance, %object
	.size	_ZZN5hwcpp21seven_segment_displayINS_23callback_implementationINS_12lpc1114_baseILi4096ELi32768ELi48000000EE8timer_64ENS_37callback_administration_double_linkedEEENS_6invertINS_18port_out_from_pinsIINS3_17pin_in_out_pullupILi0ELi2EEENS9_ILi0ELi3EEENS3_6pin_ocILi0ELi4EEENSC_ILi0ELi5EEENS9_ILi0ELi6EEENS9_ILi0ELi7EEENS9_ILi0ELi8EEENS9_ILi0ELi9EEEEEEvEENS8_IINS9_ILi1ELi9EEENS9_ILi1ELi8EEENS9_ILi1ELi5EEENS3_20pin_in_out_ad_pullupILi1ELi4ELi5EEEEEENS_28seven_segments_table_defaultIvEEE4initEvE8instance, 32
_ZZN5hwcpp21seven_segment_displayINS_23callback_implementationINS_12lpc1114_baseILi4096ELi32768ELi48000000EE8timer_64ENS_37callback_administration_double_linkedEEENS_6invertINS_18port_out_from_pinsIINS3_17pin_in_out_pullupILi0ELi2EEENS9_ILi0ELi3EEENS3_6pin_ocILi0ELi4EEENSC_ILi0ELi5EEENS9_ILi0ELi6EEENS9_ILi0ELi7EEENS9_ILi0ELi8EEENS9_ILi0ELi9EEEEEEvEENS8_IINS9_ILi1ELi9EEENS9_ILi1ELi8EEENS9_ILi1ELi5EEENS3_20pin_in_out_ad_pullupILi1ELi4ELi5EEEEEENS_28seven_segments_table_defaultIvEEE4initEvE8instance:
	.space	32
	.weak	_ZN5hwcpp28seven_segments_table_defaultIvE9translateE
	.section	.rodata._ZN5hwcpp28seven_segments_table_defaultIvE9translateE,"aG",%progbits,_ZN5hwcpp28seven_segments_table_defaultIvE9translateE,comdat
	.type	_ZN5hwcpp28seven_segments_table_defaultIvE9translateE, %object
	.size	_ZN5hwcpp28seven_segments_table_defaultIvE9translateE, 16
_ZN5hwcpp28seven_segments_table_defaultIvE9translateE:
	.byte	63
	.byte	6
	.byte	91
	.byte	79
	.byte	102
	.byte	109
	.byte	125
	.byte	7
	.byte	127
	.byte	111
	.byte	119
	.byte	124
	.byte	57
	.byte	94
	.byte	121
	.byte	113
	.weak	_ZN5hwcpp21seven_segment_displayINS_23callback_implementationINS_12lpc1114_baseILi4096ELi32768ELi48000000EE8timer_64ENS_37callback_administration_double_linkedEEENS_6invertINS_18port_out_from_pinsIINS3_17pin_in_out_pullupILi0ELi2EEENS9_ILi0ELi3EEENS3_6pin_ocILi0ELi4EEENSC_ILi0ELi5EEENS9_ILi0ELi6EEENS9_ILi0ELi7EEENS9_ILi0ELi8EEENS9_ILi0ELi9EEEEEEvEENS8_IINS9_ILi1ELi9EEENS9_ILi1ELi8EEENS9_ILi1ELi5EEENS3_20pin_in_out_ad_pullupILi1ELi4ELi5EEEEEENS_28seven_segments_table_defaultIvEEE13current_digitE
	.section	.bss._ZN5hwcpp21seven_segment_displayINS_23callback_implementationINS_12lpc1114_baseILi4096ELi32768ELi48000000EE8timer_64ENS_37callback_administration_double_linkedEEENS_6invertINS_18port_out_from_pinsIINS3_17pin_in_out_pullupILi0ELi2EEENS9_ILi0ELi3EEENS3_6pin_ocILi0ELi4EEENSC_ILi0ELi5EEENS9_ILi0ELi6EEENS9_ILi0ELi7EEENS9_ILi0ELi8EEENS9_ILi0ELi9EEEEEEvEENS8_IINS9_ILi1ELi9EEENS9_ILi1ELi8EEENS9_ILi1ELi5EEENS3_20pin_in_out_ad_pullupILi1ELi4ELi5EEEEEENS_28seven_segments_table_defaultIvEEE13current_digitE,"awG",%nobits,_ZN5hwcpp21seven_segment_displayINS_23callback_implementationINS_12lpc1114_baseILi4096ELi32768ELi48000000EE8timer_64ENS_37callback_administration_double_linkedEEENS_6invertINS_18port_out_from_pinsIINS3_17pin_in_out_pullupILi0ELi2EEENS9_ILi0ELi3EEENS3_6pin_ocILi0ELi4EEENSC_ILi0ELi5EEENS9_ILi0ELi6EEENS9_ILi0ELi7EEENS9_ILi0ELi8EEENS9_ILi0ELi9EEEEEEvEENS8_IINS9_ILi1ELi9EEENS9_ILi1ELi8EEENS9_ILi1ELi5EEENS3_20pin_in_out_ad_pullupILi1ELi4ELi5EEEEEENS_28seven_segments_table_defaultIvEEE13current_digitE,comdat
	.align	2
	.type	_ZN5hwcpp21seven_segment_displayINS_23callback_implementationINS_12lpc1114_baseILi4096ELi32768ELi48000000EE8timer_64ENS_37callback_administration_double_linkedEEENS_6invertINS_18port_out_from_pinsIINS3_17pin_in_out_pullupILi0ELi2EEENS9_ILi0ELi3EEENS3_6pin_ocILi0ELi4EEENSC_ILi0ELi5EEENS9_ILi0ELi6EEENS9_ILi0ELi7EEENS9_ILi0ELi8EEENS9_ILi0ELi9EEEEEEvEENS8_IINS9_ILi1ELi9EEENS9_ILi1ELi8EEENS9_ILi1ELi5EEENS3_20pin_in_out_ad_pullupILi1ELi4ELi5EEEEEENS_28seven_segments_table_defaultIvEEE13current_digitE, %object
	.size	_ZN5hwcpp21seven_segment_displayINS_23callback_implementationINS_12lpc1114_baseILi4096ELi32768ELi48000000EE8timer_64ENS_37callback_administration_double_linkedEEENS_6invertINS_18port_out_from_pinsIINS3_17pin_in_out_pullupILi0ELi2EEENS9_ILi0ELi3EEENS3_6pin_ocILi0ELi4EEENSC_ILi0ELi5EEENS9_ILi0ELi6EEENS9_ILi0ELi7EEENS9_ILi0ELi8EEENS9_ILi0ELi9EEEEEEvEENS8_IINS9_ILi1ELi9EEENS9_ILi1ELi8EEENS9_ILi1ELi5EEENS3_20pin_in_out_ad_pullupILi1ELi4ELi5EEEEEENS_28seven_segments_table_defaultIvEEE13current_digitE, 4
_ZN5hwcpp21seven_segment_displayINS_23callback_implementationINS_12lpc1114_baseILi4096ELi32768ELi48000000EE8timer_64ENS_37callback_administration_double_linkedEEENS_6invertINS_18port_out_from_pinsIINS3_17pin_in_out_pullupILi0ELi2EEENS9_ILi0ELi3EEENS3_6pin_ocILi0ELi4EEENSC_ILi0ELi5EEENS9_ILi0ELi6EEENS9_ILi0ELi7EEENS9_ILi0ELi8EEENS9_ILi0ELi9EEEEEEvEENS8_IINS9_ILi1ELi9EEENS9_ILi1ELi8EEENS9_ILi1ELi5EEENS3_20pin_in_out_ad_pullupILi1ELi4ELi5EEEEEENS_28seven_segments_table_defaultIvEEE13current_digitE:
	.space	4
	.weak	_ZN5hwcpp21seven_segment_displayINS_23callback_implementationINS_12lpc1114_baseILi4096ELi32768ELi48000000EE8timer_64ENS_37callback_administration_double_linkedEEENS_6invertINS_18port_out_from_pinsIJNS3_17pin_in_out_pullupILi0ELi2EEENS9_ILi0ELi3EEENS3_6pin_ocILi0ELi4EEENSC_ILi0ELi5EEENS9_ILi0ELi6EEENS9_ILi0ELi7EEENS9_ILi0ELi8EEENS9_ILi0ELi9EEEEEEvEENS8_IJNS9_ILi1ELi9EEENS9_ILi1ELi8EEENS9_ILi1ELi5EEENS3_20pin_in_out_ad_pullupILi1ELi4ELi5EEEEEENS_28seven_segments_table_defaultIvEEE13current_digitE
	.set	_ZN5hwcpp21seven_segment_displayINS_23callback_implementationINS_12lpc1114_baseILi4096ELi32768ELi48000000EE8timer_64ENS_37callback_administration_double_linkedEEENS_6invertINS_18port_out_from_pinsIJNS3_17pin_in_out_pullupILi0ELi2EEENS9_ILi0ELi3EEENS3_6pin_ocILi0ELi4EEENSC_ILi0ELi5EEENS9_ILi0ELi6EEENS9_ILi0ELi7EEENS9_ILi0ELi8EEENS9_ILi0ELi9EEEEEEvEENS8_IJNS9_ILi1ELi9EEENS9_ILi1ELi8EEENS9_ILi1ELi5EEENS3_20pin_in_out_ad_pullupILi1ELi4ELi5EEEEEENS_28seven_segments_table_defaultIvEEE13current_digitE,_ZN5hwcpp21seven_segment_displayINS_23callback_implementationINS_12lpc1114_baseILi4096ELi32768ELi48000000EE8timer_64ENS_37callback_administration_double_linkedEEENS_6invertINS_18port_out_from_pinsIINS3_17pin_in_out_pullupILi0ELi2EEENS9_ILi0ELi3EEENS3_6pin_ocILi0ELi4EEENSC_ILi0ELi5EEENS9_ILi0ELi6EEENS9_ILi0ELi7EEENS9_ILi0ELi8EEENS9_ILi0ELi9EEEEEEvEENS8_IINS9_ILi1ELi9EEENS9_ILi1ELi8EEENS9_ILi1ELi5EEENS3_20pin_in_out_ad_pullupILi1ELi4ELi5EEEEEENS_28seven_segments_table_defaultIvEEE13current_digitE
	.weak	_ZN5hwcpp21seven_segment_displayINS_23callback_implementationINS_12lpc1114_baseILi4096ELi32768ELi48000000EE8timer_64ENS_37callback_administration_double_linkedEEENS_6invertINS_18port_out_from_pinsIINS3_17pin_in_out_pullupILi0ELi2EEENS9_ILi0ELi3EEENS3_6pin_ocILi0ELi4EEENSC_ILi0ELi5EEENS9_ILi0ELi6EEENS9_ILi0ELi7EEENS9_ILi0ELi8EEENS9_ILi0ELi9EEEEEEvEENS8_IINS9_ILi1ELi9EEENS9_ILi1ELi8EEENS9_ILi1ELi5EEENS3_20pin_in_out_ad_pullupILi1ELi4ELi5EEEEEENS_28seven_segments_table_defaultIvEEE14segment_valuesE
	.section	.bss._ZN5hwcpp21seven_segment_displayINS_23callback_implementationINS_12lpc1114_baseILi4096ELi32768ELi48000000EE8timer_64ENS_37callback_administration_double_linkedEEENS_6invertINS_18port_out_from_pinsIINS3_17pin_in_out_pullupILi0ELi2EEENS9_ILi0ELi3EEENS3_6pin_ocILi0ELi4EEENSC_ILi0ELi5EEENS9_ILi0ELi6EEENS9_ILi0ELi7EEENS9_ILi0ELi8EEENS9_ILi0ELi9EEEEEEvEENS8_IINS9_ILi1ELi9EEENS9_ILi1ELi8EEENS9_ILi1ELi5EEENS3_20pin_in_out_ad_pullupILi1ELi4ELi5EEEEEENS_28seven_segments_table_defaultIvEEE14segment_valuesE,"awG",%nobits,_ZN5hwcpp21seven_segment_displayINS_23callback_implementationINS_12lpc1114_baseILi4096ELi32768ELi48000000EE8timer_64ENS_37callback_administration_double_linkedEEENS_6invertINS_18port_out_from_pinsIINS3_17pin_in_out_pullupILi0ELi2EEENS9_ILi0ELi3EEENS3_6pin_ocILi0ELi4EEENSC_ILi0ELi5EEENS9_ILi0ELi6EEENS9_ILi0ELi7EEENS9_ILi0ELi8EEENS9_ILi0ELi9EEEEEEvEENS8_IINS9_ILi1ELi9EEENS9_ILi1ELi8EEENS9_ILi1ELi5EEENS3_20pin_in_out_ad_pullupILi1ELi4ELi5EEEEEENS_28seven_segments_table_defaultIvEEE14segment_valuesE,comdat
	.type	_ZN5hwcpp21seven_segment_displayINS_23callback_implementationINS_12lpc1114_baseILi4096ELi32768ELi48000000EE8timer_64ENS_37callback_administration_double_linkedEEENS_6invertINS_18port_out_from_pinsIINS3_17pin_in_out_pullupILi0ELi2EEENS9_ILi0ELi3EEENS3_6pin_ocILi0ELi4EEENSC_ILi0ELi5EEENS9_ILi0ELi6EEENS9_ILi0ELi7EEENS9_ILi0ELi8EEENS9_ILi0ELi9EEEEEEvEENS8_IINS9_ILi1ELi9EEENS9_ILi1ELi8EEENS9_ILi1ELi5EEENS3_20pin_in_out_ad_pullupILi1ELi4ELi5EEEEEENS_28seven_segments_table_defaultIvEEE14segment_valuesE, %object
	.size	_ZN5hwcpp21seven_segment_displayINS_23callback_implementationINS_12lpc1114_baseILi4096ELi32768ELi48000000EE8timer_64ENS_37callback_administration_double_linkedEEENS_6invertINS_18port_out_from_pinsIINS3_17pin_in_out_pullupILi0ELi2EEENS9_ILi0ELi3EEENS3_6pin_ocILi0ELi4EEENSC_ILi0ELi5EEENS9_ILi0ELi6EEENS9_ILi0ELi7EEENS9_ILi0ELi8EEENS9_ILi0ELi9EEEEEEvEENS8_IINS9_ILi1ELi9EEENS9_ILi1ELi8EEENS9_ILi1ELi5EEENS3_20pin_in_out_ad_pullupILi1ELi4ELi5EEEEEENS_28seven_segments_table_defaultIvEEE14segment_valuesE, 8
_ZN5hwcpp21seven_segment_displayINS_23callback_implementationINS_12lpc1114_baseILi4096ELi32768ELi48000000EE8timer_64ENS_37callback_administration_double_linkedEEENS_6invertINS_18port_out_from_pinsIINS3_17pin_in_out_pullupILi0ELi2EEENS9_ILi0ELi3EEENS3_6pin_ocILi0ELi4EEENSC_ILi0ELi5EEENS9_ILi0ELi6EEENS9_ILi0ELi7EEENS9_ILi0ELi8EEENS9_ILi0ELi9EEEEEEvEENS8_IINS9_ILi1ELi9EEENS9_ILi1ELi8EEENS9_ILi1ELi5EEENS3_20pin_in_out_ad_pullupILi1ELi4ELi5EEEEEENS_28seven_segments_table_defaultIvEEE14segment_valuesE:
	.space	8
	.weak	_ZN5hwcpp21seven_segment_displayINS_23callback_implementationINS_12lpc1114_baseILi4096ELi32768ELi48000000EE8timer_64ENS_37callback_administration_double_linkedEEENS_6invertINS_18port_out_from_pinsIJNS3_17pin_in_out_pullupILi0ELi2EEENS9_ILi0ELi3EEENS3_6pin_ocILi0ELi4EEENSC_ILi0ELi5EEENS9_ILi0ELi6EEENS9_ILi0ELi7EEENS9_ILi0ELi8EEENS9_ILi0ELi9EEEEEEvEENS8_IJNS9_ILi1ELi9EEENS9_ILi1ELi8EEENS9_ILi1ELi5EEENS3_20pin_in_out_ad_pullupILi1ELi4ELi5EEEEEENS_28seven_segments_table_defaultIvEEE14segment_valuesE
	.set	_ZN5hwcpp21seven_segment_displayINS_23callback_implementationINS_12lpc1114_baseILi4096ELi32768ELi48000000EE8timer_64ENS_37callback_administration_double_linkedEEENS_6invertINS_18port_out_from_pinsIJNS3_17pin_in_out_pullupILi0ELi2EEENS9_ILi0ELi3EEENS3_6pin_ocILi0ELi4EEENSC_ILi0ELi5EEENS9_ILi0ELi6EEENS9_ILi0ELi7EEENS9_ILi0ELi8EEENS9_ILi0ELi9EEEEEEvEENS8_IJNS9_ILi1ELi9EEENS9_ILi1ELi8EEENS9_ILi1ELi5EEENS3_20pin_in_out_ad_pullupILi1ELi4ELi5EEEEEENS_28seven_segments_table_defaultIvEEE14segment_valuesE,_ZN5hwcpp21seven_segment_displayINS_23callback_implementationINS_12lpc1114_baseILi4096ELi32768ELi48000000EE8timer_64ENS_37callback_administration_double_linkedEEENS_6invertINS_18port_out_from_pinsIINS3_17pin_in_out_pullupILi0ELi2EEENS9_ILi0ELi3EEENS3_6pin_ocILi0ELi4EEENSC_ILi0ELi5EEENS9_ILi0ELi6EEENS9_ILi0ELi7EEENS9_ILi0ELi8EEENS9_ILi0ELi9EEEEEEvEENS8_IINS9_ILi1ELi9EEENS9_ILi1ELi8EEENS9_ILi1ELi5EEENS3_20pin_in_out_ad_pullupILi1ELi4ELi5EEEEEENS_28seven_segments_table_defaultIvEEE14segment_valuesE
	.weak	_ZTVN5hwcpp37callback_administration_double_linkedINS_21timing_implementationINS_12lpc1114_baseILi4096ELi32768ELi48000000EE8timer_64EEEE5_nodeE
	.section	.rodata._ZTVN5hwcpp37callback_administration_double_linkedINS_21timing_implementationINS_12lpc1114_baseILi4096ELi32768ELi48000000EE8timer_64EEEE5_nodeE,"aG",%progbits,_ZTVN5hwcpp37callback_administration_double_linkedINS_21timing_implementationINS_12lpc1114_baseILi4096ELi32768ELi48000000EE8timer_64EEEE5_nodeE,comdat
	.align	3
	.type	_ZTVN5hwcpp37callback_administration_double_linkedINS_21timing_implementationINS_12lpc1114_baseILi4096ELi32768ELi48000000EE8timer_64EEEE5_nodeE, %object
	.size	_ZTVN5hwcpp37callback_administration_double_linkedINS_21timing_implementationINS_12lpc1114_baseILi4096ELi32768ELi48000000EE8timer_64EEEE5_nodeE, 12
_ZTVN5hwcpp37callback_administration_double_linkedINS_21timing_implementationINS_12lpc1114_baseILi4096ELi32768ELi48000000EE8timer_64EEEE5_nodeE:
	.word	0
	.word	0
	.word	_ZN5hwcpp37callback_administration_double_linkedINS_21timing_implementationINS_12lpc1114_baseILi4096ELi32768ELi48000000EE8timer_64EEEE5_node5visitENS_15moment_durationIxLx24EE6momentE
	.weak	_ZTVN5hwcpp37callback_administration_double_linkedINS_21timing_implementationINS_12lpc1114_baseILi4096ELi32768ELi48000000EE8timer_64EEEE4nodeE
	.section	.rodata._ZTVN5hwcpp37callback_administration_double_linkedINS_21timing_implementationINS_12lpc1114_baseILi4096ELi32768ELi48000000EE8timer_64EEEE4nodeE,"aG",%progbits,_ZTVN5hwcpp37callback_administration_double_linkedINS_21timing_implementationINS_12lpc1114_baseILi4096ELi32768ELi48000000EE8timer_64EEEE4nodeE,comdat
	.align	3
	.type	_ZTVN5hwcpp37callback_administration_double_linkedINS_21timing_implementationINS_12lpc1114_baseILi4096ELi32768ELi48000000EE8timer_64EEEE4nodeE, %object
	.size	_ZTVN5hwcpp37callback_administration_double_linkedINS_21timing_implementationINS_12lpc1114_baseILi4096ELi32768ELi48000000EE8timer_64EEEE4nodeE, 16
_ZTVN5hwcpp37callback_administration_double_linkedINS_21timing_implementationINS_12lpc1114_baseILi4096ELi32768ELi48000000EE8timer_64EEEE4nodeE:
	.word	0
	.word	0
	.word	_ZN5hwcpp37callback_administration_double_linkedINS_21timing_implementationINS_12lpc1114_baseILi4096ELi32768ELi48000000EE8timer_64EEEE5_node5visitENS_15moment_durationIxLx24EE6momentE
	.word	_ZN5hwcpp37callback_administration_double_linkedINS_21timing_implementationINS_12lpc1114_baseILi4096ELi32768ELi48000000EE8timer_64EEEE4node8functionEv
	.weak	_ZTVN5hwcpp37callback_administration_double_linkedINS_21timing_implementationINS_12lpc1114_baseILi4096ELi32768ELi48000000EE8timer_64EEEE5clockIvvEE
	.section	.rodata._ZTVN5hwcpp37callback_administration_double_linkedINS_21timing_implementationINS_12lpc1114_baseILi4096ELi32768ELi48000000EE8timer_64EEEE5clockIvvEE,"aG",%progbits,_ZTVN5hwcpp37callback_administration_double_linkedINS_21timing_implementationINS_12lpc1114_baseILi4096ELi32768ELi48000000EE8timer_64EEEE5clockIvvEE,comdat
	.align	3
	.type	_ZTVN5hwcpp37callback_administration_double_linkedINS_21timing_implementationINS_12lpc1114_baseILi4096ELi32768ELi48000000EE8timer_64EEEE5clockIvvEE, %object
	.size	_ZTVN5hwcpp37callback_administration_double_linkedINS_21timing_implementationINS_12lpc1114_baseILi4096ELi32768ELi48000000EE8timer_64EEEE5clockIvvEE, 16
_ZTVN5hwcpp37callback_administration_double_linkedINS_21timing_implementationINS_12lpc1114_baseILi4096ELi32768ELi48000000EE8timer_64EEEE5clockIvvEE:
	.word	0
	.word	0
	.word	_ZN5hwcpp37callback_administration_double_linkedINS_21timing_implementationINS_12lpc1114_baseILi4096ELi32768ELi48000000EE8timer_64EEEE5clockIvvE5visitENS_15moment_durationIxLx24EE6momentE
	.word	_ZN5hwcpp37callback_administration_double_linkedINS_21timing_implementationINS_12lpc1114_baseILi4096ELi32768ELi48000000EE8timer_64EEEE4node8functionEv
	.weak	_ZTVN5hwcpp37callback_administration_double_linkedINS_21timing_implementationINS_12lpc1114_baseILi4096ELi32768ELi48000000EE8timer_64EEEE5clockINS_20add_timing_templatesIS6_E2msILy10ELy18446744073709551615EEEvEE
	.section	.rodata._ZTVN5hwcpp37callback_administration_double_linkedINS_21timing_implementationINS_12lpc1114_baseILi4096ELi32768ELi48000000EE8timer_64EEEE5clockINS_20add_timing_templatesIS6_E2msILy10ELy18446744073709551615EEEvEE,"aG",%progbits,_ZTVN5hwcpp37callback_administration_double_linkedINS_21timing_implementationINS_12lpc1114_baseILi4096ELi32768ELi48000000EE8timer_64EEEE5clockINS_20add_timing_templatesIS6_E2msILy10ELy18446744073709551615EEEvEE,comdat
	.align	3
	.type	_ZTVN5hwcpp37callback_administration_double_linkedINS_21timing_implementationINS_12lpc1114_baseILi4096ELi32768ELi48000000EE8timer_64EEEE5clockINS_20add_timing_templatesIS6_E2msILy10ELy18446744073709551615EEEvEE, %object
	.size	_ZTVN5hwcpp37callback_administration_double_linkedINS_21timing_implementationINS_12lpc1114_baseILi4096ELi32768ELi48000000EE8timer_64EEEE5clockINS_20add_timing_templatesIS6_E2msILy10ELy18446744073709551615EEEvEE, 16
_ZTVN5hwcpp37callback_administration_double_linkedINS_21timing_implementationINS_12lpc1114_baseILi4096ELi32768ELi48000000EE8timer_64EEEE5clockINS_20add_timing_templatesIS6_E2msILy10ELy18446744073709551615EEEvEE:
	.word	0
	.word	0
	.word	_ZN5hwcpp37callback_administration_double_linkedINS_21timing_implementationINS_12lpc1114_baseILi4096ELi32768ELi48000000EE8timer_64EEEE5clockIvvE5visitENS_15moment_durationIxLx24EE6momentE
	.word	_ZN5hwcpp37callback_administration_double_linkedINS_21timing_implementationINS_12lpc1114_baseILi4096ELi32768ELi48000000EE8timer_64EEEE4node8functionEv
	.weak	_ZTVN5hwcpp21seven_segment_displayINS_23callback_implementationINS_12lpc1114_baseILi4096ELi32768ELi48000000EE8timer_64ENS_37callback_administration_double_linkedEEENS_6invertINS_18port_out_from_pinsIINS3_17pin_in_out_pullupILi0ELi2EEENS9_ILi0ELi3EEENS3_6pin_ocILi0ELi4EEENSC_ILi0ELi5EEENS9_ILi0ELi6EEENS9_ILi0ELi7EEENS9_ILi0ELi8EEENS9_ILi0ELi9EEEEEEvEENS8_IINS9_ILi1ELi9EEENS9_ILi1ELi8EEENS9_ILi1ELi5EEENS3_20pin_in_out_ad_pullupILi1ELi4ELi5EEEEEENS_28seven_segments_table_defaultIvEEE12multiplexingE
	.section	.rodata._ZTVN5hwcpp21seven_segment_displayINS_23callback_implementationINS_12lpc1114_baseILi4096ELi32768ELi48000000EE8timer_64ENS_37callback_administration_double_linkedEEENS_6invertINS_18port_out_from_pinsIINS3_17pin_in_out_pullupILi0ELi2EEENS9_ILi0ELi3EEENS3_6pin_ocILi0ELi4EEENSC_ILi0ELi5EEENS9_ILi0ELi6EEENS9_ILi0ELi7EEENS9_ILi0ELi8EEENS9_ILi0ELi9EEEEEEvEENS8_IINS9_ILi1ELi9EEENS9_ILi1ELi8EEENS9_ILi1ELi5EEENS3_20pin_in_out_ad_pullupILi1ELi4ELi5EEEEEENS_28seven_segments_table_defaultIvEEE12multiplexingE,"aG",%progbits,_ZTVN5hwcpp21seven_segment_displayINS_23callback_implementationINS_12lpc1114_baseILi4096ELi32768ELi48000000EE8timer_64ENS_37callback_administration_double_linkedEEENS_6invertINS_18port_out_from_pinsIINS3_17pin_in_out_pullupILi0ELi2EEENS9_ILi0ELi3EEENS3_6pin_ocILi0ELi4EEENSC_ILi0ELi5EEENS9_ILi0ELi6EEENS9_ILi0ELi7EEENS9_ILi0ELi8EEENS9_ILi0ELi9EEEEEEvEENS8_IINS9_ILi1ELi9EEENS9_ILi1ELi8EEENS9_ILi1ELi5EEENS3_20pin_in_out_ad_pullupILi1ELi4ELi5EEEEEENS_28seven_segments_table_defaultIvEEE12multiplexingE,comdat
	.align	3
	.type	_ZTVN5hwcpp21seven_segment_displayINS_23callback_implementationINS_12lpc1114_baseILi4096ELi32768ELi48000000EE8timer_64ENS_37callback_administration_double_linkedEEENS_6invertINS_18port_out_from_pinsIINS3_17pin_in_out_pullupILi0ELi2EEENS9_ILi0ELi3EEENS3_6pin_ocILi0ELi4EEENSC_ILi0ELi5EEENS9_ILi0ELi6EEENS9_ILi0ELi7EEENS9_ILi0ELi8EEENS9_ILi0ELi9EEEEEEvEENS8_IINS9_ILi1ELi9EEENS9_ILi1ELi8EEENS9_ILi1ELi5EEENS3_20pin_in_out_ad_pullupILi1ELi4ELi5EEEEEENS_28seven_segments_table_defaultIvEEE12multiplexingE, %object
	.size	_ZTVN5hwcpp21seven_segment_displayINS_23callback_implementationINS_12lpc1114_baseILi4096ELi32768ELi48000000EE8timer_64ENS_37callback_administration_double_linkedEEENS_6invertINS_18port_out_from_pinsIINS3_17pin_in_out_pullupILi0ELi2EEENS9_ILi0ELi3EEENS3_6pin_ocILi0ELi4EEENSC_ILi0ELi5EEENS9_ILi0ELi6EEENS9_ILi0ELi7EEENS9_ILi0ELi8EEENS9_ILi0ELi9EEEEEEvEENS8_IINS9_ILi1ELi9EEENS9_ILi1ELi8EEENS9_ILi1ELi5EEENS3_20pin_in_out_ad_pullupILi1ELi4ELi5EEEEEENS_28seven_segments_table_defaultIvEEE12multiplexingE, 16
_ZTVN5hwcpp21seven_segment_displayINS_23callback_implementationINS_12lpc1114_baseILi4096ELi32768ELi48000000EE8timer_64ENS_37callback_administration_double_linkedEEENS_6invertINS_18port_out_from_pinsIINS3_17pin_in_out_pullupILi0ELi2EEENS9_ILi0ELi3EEENS3_6pin_ocILi0ELi4EEENSC_ILi0ELi5EEENS9_ILi0ELi6EEENS9_ILi0ELi7EEENS9_ILi0ELi8EEENS9_ILi0ELi9EEEEEEvEENS8_IINS9_ILi1ELi9EEENS9_ILi1ELi8EEENS9_ILi1ELi5EEENS3_20pin_in_out_ad_pullupILi1ELi4ELi5EEEEEENS_28seven_segments_table_defaultIvEEE12multiplexingE:
	.word	0
	.word	0
	.word	_ZN5hwcpp37callback_administration_double_linkedINS_21timing_implementationINS_12lpc1114_baseILi4096ELi32768ELi48000000EE8timer_64EEEE5clockIvvE5visitENS_15moment_durationIxLx24EE6momentE
	.word	_ZN5hwcpp21seven_segment_displayINS_23callback_implementationINS_12lpc1114_baseILi4096ELi32768ELi48000000EE8timer_64ENS_37callback_administration_double_linkedEEENS_6invertINS_18port_out_from_pinsIINS3_17pin_in_out_pullupILi0ELi2EEENS9_ILi0ELi3EEENS3_6pin_ocILi0ELi4EEENSC_ILi0ELi5EEENS9_ILi0ELi6EEENS9_ILi0ELi7EEENS9_ILi0ELi8EEENS9_ILi0ELi9EEEEEEvEENS8_IINS9_ILi1ELi9EEENS9_ILi1ELi8EEENS9_ILi1ELi5EEENS3_20pin_in_out_ad_pullupILi1ELi4ELi5EEEEEENS_28seven_segments_table_defaultIvEEE12multiplexing8functionEv
	.weak	_ZGVZN5hwcpp37callback_administration_double_linkedINS_21timing_implementationINS_12lpc1114_baseILi4096ELi32768ELi48000000EE8timer_64EEEE5_node8root_getEvE5_root
	.section	.bss._ZGVZN5hwcpp37callback_administration_double_linkedINS_21timing_implementationINS_12lpc1114_baseILi4096ELi32768ELi48000000EE8timer_64EEEE5_node8root_getEvE5_root,"awG",%nobits,_ZGVZN5hwcpp37callback_administration_double_linkedINS_21timing_implementationINS_12lpc1114_baseILi4096ELi32768ELi48000000EE8timer_64EEEE5_node8root_getEvE5_root,comdat
	.align	2
	.type	_ZGVZN5hwcpp37callback_administration_double_linkedINS_21timing_implementationINS_12lpc1114_baseILi4096ELi32768ELi48000000EE8timer_64EEEE5_node8root_getEvE5_root, %object
	.size	_ZGVZN5hwcpp37callback_administration_double_linkedINS_21timing_implementationINS_12lpc1114_baseILi4096ELi32768ELi48000000EE8timer_64EEEE5_node8root_getEvE5_root, 4
_ZGVZN5hwcpp37callback_administration_double_linkedINS_21timing_implementationINS_12lpc1114_baseILi4096ELi32768ELi48000000EE8timer_64EEEE5_node8root_getEvE5_root:
	.space	4
	.weak	_ZGVZN5hwcpp21seven_segment_displayINS_23callback_implementationINS_12lpc1114_baseILi4096ELi32768ELi48000000EE8timer_64ENS_37callback_administration_double_linkedEEENS_6invertINS_18port_out_from_pinsIINS3_17pin_in_out_pullupILi0ELi2EEENS9_ILi0ELi3EEENS3_6pin_ocILi0ELi4EEENSC_ILi0ELi5EEENS9_ILi0ELi6EEENS9_ILi0ELi7EEENS9_ILi0ELi8EEENS9_ILi0ELi9EEEEEEvEENS8_IINS9_ILi1ELi9EEENS9_ILi1ELi8EEENS9_ILi1ELi5EEENS3_20pin_in_out_ad_pullupILi1ELi4ELi5EEEEEENS_28seven_segments_table_defaultIvEEE4initEvE8instance
	.section	.bss._ZGVZN5hwcpp21seven_segment_displayINS_23callback_implementationINS_12lpc1114_baseILi4096ELi32768ELi48000000EE8timer_64ENS_37callback_administration_double_linkedEEENS_6invertINS_18port_out_from_pinsIINS3_17pin_in_out_pullupILi0ELi2EEENS9_ILi0ELi3EEENS3_6pin_ocILi0ELi4EEENSC_ILi0ELi5EEENS9_ILi0ELi6EEENS9_ILi0ELi7EEENS9_ILi0ELi8EEENS9_ILi0ELi9EEEEEEvEENS8_IINS9_ILi1ELi9EEENS9_ILi1ELi8EEENS9_ILi1ELi5EEENS3_20pin_in_out_ad_pullupILi1ELi4ELi5EEEEEENS_28seven_segments_table_defaultIvEEE4initEvE8instance,"awG",%nobits,_ZGVZN5hwcpp21seven_segment_displayINS_23callback_implementationINS_12lpc1114_baseILi4096ELi32768ELi48000000EE8timer_64ENS_37callback_administration_double_linkedEEENS_6invertINS_18port_out_from_pinsIINS3_17pin_in_out_pullupILi0ELi2EEENS9_ILi0ELi3EEENS3_6pin_ocILi0ELi4EEENSC_ILi0ELi5EEENS9_ILi0ELi6EEENS9_ILi0ELi7EEENS9_ILi0ELi8EEENS9_ILi0ELi9EEEEEEvEENS8_IINS9_ILi1ELi9EEENS9_ILi1ELi8EEENS9_ILi1ELi5EEENS3_20pin_in_out_ad_pullupILi1ELi4ELi5EEEEEENS_28seven_segments_table_defaultIvEEE4initEvE8instance,comdat
	.align	2
	.type	_ZGVZN5hwcpp21seven_segment_displayINS_23callback_implementationINS_12lpc1114_baseILi4096ELi32768ELi48000000EE8timer_64ENS_37callback_administration_double_linkedEEENS_6invertINS_18port_out_from_pinsIINS3_17pin_in_out_pullupILi0ELi2EEENS9_ILi0ELi3EEENS3_6pin_ocILi0ELi4EEENSC_ILi0ELi5EEENS9_ILi0ELi6EEENS9_ILi0ELi7EEENS9_ILi0ELi8EEENS9_ILi0ELi9EEEEEEvEENS8_IINS9_ILi1ELi9EEENS9_ILi1ELi8EEENS9_ILi1ELi5EEENS3_20pin_in_out_ad_pullupILi1ELi4ELi5EEEEEENS_28seven_segments_table_defaultIvEEE4initEvE8instance, %object
	.size	_ZGVZN5hwcpp21seven_segment_displayINS_23callback_implementationINS_12lpc1114_baseILi4096ELi32768ELi48000000EE8timer_64ENS_37callback_administration_double_linkedEEENS_6invertINS_18port_out_from_pinsIINS3_17pin_in_out_pullupILi0ELi2EEENS9_ILi0ELi3EEENS3_6pin_ocILi0ELi4EEENSC_ILi0ELi5EEENS9_ILi0ELi6EEENS9_ILi0ELi7EEENS9_ILi0ELi8EEENS9_ILi0ELi9EEEEEEvEENS8_IINS9_ILi1ELi9EEENS9_ILi1ELi8EEENS9_ILi1ELi5EEENS3_20pin_in_out_ad_pullupILi1ELi4ELi5EEEEEENS_28seven_segments_table_defaultIvEEE4initEvE8instance, 4
_ZGVZN5hwcpp21seven_segment_displayINS_23callback_implementationINS_12lpc1114_baseILi4096ELi32768ELi48000000EE8timer_64ENS_37callback_administration_double_linkedEEENS_6invertINS_18port_out_from_pinsIINS3_17pin_in_out_pullupILi0ELi2EEENS9_ILi0ELi3EEENS3_6pin_ocILi0ELi4EEENSC_ILi0ELi5EEENS9_ILi0ELi6EEENS9_ILi0ELi7EEENS9_ILi0ELi8EEENS9_ILi0ELi9EEEEEEvEENS8_IINS9_ILi1ELi9EEENS9_ILi1ELi8EEENS9_ILi1ELi5EEENS3_20pin_in_out_ad_pullupILi1ELi4ELi5EEEEEENS_28seven_segments_table_defaultIvEEE4initEvE8instance:
	.space	4
	.global	_ZSt4cout
	.section	.data._ZSt4cout,"aw",%progbits
	.align	2
	.type	_ZSt4cout, %object
	.size	_ZSt4cout, 20
_ZSt4cout:
	.word	0
	.word	10
	.byte	32
	.byte	65
	.byte	1
	.byte	0
	.byte	0
	.byte	0
	.space	2
	.word	0
	.hidden	__dso_handle
	.ident	"GCC: (GNU Tools for ARM Embedded Processors) 4.8.3 20131129 (release) [ARM/embedded-4_8-branch revision 205641]"
