
main.elf:     file format elf32-littlearm


Disassembly of section .text:

00000000 <__text_start>:
   0:	10000888 	.word	0x10000888
   4:	00000739 	.word	0x00000739
	...

00000020 <_ZN5hwcpp37callback_administration_double_linkedINS_21timing_implementationINS_12lpc1114_baseILi4096ELi32768ELi48000000EE8timer_64EEEE5clockIvvE5visitENS_15moment_durationIxLx24EE6momentE>:
  20:	b538      	push	{r3, r4, r5, lr}
  22:	6902      	ldr	r2, [r0, #16]
  24:	6943      	ldr	r3, [r0, #20]
  26:	6984      	ldr	r4, [r0, #24]
  28:	69c5      	ldr	r5, [r0, #28]
  2a:	1912      	adds	r2, r2, r4
  2c:	416b      	adcs	r3, r5
  2e:	6102      	str	r2, [r0, #16]
  30:	6143      	str	r3, [r0, #20]
  32:	6803      	ldr	r3, [r0, #0]
  34:	685b      	ldr	r3, [r3, #4]
  36:	4798      	blx	r3
  38:	bd38      	pop	{r3, r4, r5, pc}

0000003a <_ZN5hwcpp37callback_administration_double_linkedINS_21timing_implementationINS_12lpc1114_baseILi4096ELi32768ELi48000000EE8timer_64EEEE4node8functionEv>:
  3a:	4770      	bx	lr

0000003c <_ZN5hwcpp37callback_administration_double_linkedINS_21timing_implementationINS_12lpc1114_baseILi4096ELi32768ELi48000000EE8timer_64EEEE5_node5visitENS_15moment_durationIxLx24EE6momentE>:
  3c:	4770      	bx	lr
	...

00000040 <_ZN5hwcpp21seven_segment_displayINS_23callback_implementationINS_12lpc1114_baseILi4096ELi32768ELi48000000EE8timer_64ENS_37callback_administration_double_linkedEEENS_6invertINS_18port_out_from_pinsIINS3_17pin_in_out_pullupILi0ELi2EEENS9_ILi0ELi3EEENS3_6pin_ocILi0ELi4EEENSC_ILi0ELi5EEENS9_ILi0ELi6EEENS9_ILi0ELi7EEENS9_ILi0ELi8EEENS9_ILi0ELi9EEEEEEvEENS8_IINS9_ILi1ELi9EEENS9_ILi1ELi8EEENS9_ILi1ELi5EEENS3_20pin_in_out_ad_pullupILi1ELi4ELi5EEEEEENS_28seven_segments_table_defaultIvEEE12multiplexingD1Ev>:
  40:	4b04      	ldr	r3, [pc, #16]	; (54 <_ZN5hwcpp21seven_segment_displayINS_23callback_implementationINS_12lpc1114_baseILi4096ELi32768ELi48000000EE8timer_64ENS_37callback_administration_double_linkedEEENS_6invertINS_18port_out_from_pinsIINS3_17pin_in_out_pullupILi0ELi2EEENS9_ILi0ELi3EEENS3_6pin_ocILi0ELi4EEENSC_ILi0ELi5EEENS9_ILi0ELi6EEENS9_ILi0ELi7EEENS9_ILi0ELi8EEENS9_ILi0ELi9EEEEEEvEENS8_IINS9_ILi1ELi9EEENS9_ILi1ELi8EEENS9_ILi1ELi5EEENS3_20pin_in_out_ad_pullupILi1ELi4ELi5EEEEEENS_28seven_segments_table_defaultIvEEE12multiplexingD1Ev+0x14>)
  42:	6882      	ldr	r2, [r0, #8]
  44:	6003      	str	r3, [r0, #0]
  46:	6843      	ldr	r3, [r0, #4]
  48:	609a      	str	r2, [r3, #8]
  4a:	6882      	ldr	r2, [r0, #8]
  4c:	6053      	str	r3, [r2, #4]
  4e:	6040      	str	r0, [r0, #4]
  50:	6080      	str	r0, [r0, #8]
  52:	4770      	bx	lr
  54:	000009f8 	.word	0x000009f8

00000058 <_ZN5hwcpp13timing_waiterINS_12lpc1114_baseILi4096ELi32768ELi48000000EE8timer_64EE3nowEv>:
  58:	4b0f      	ldr	r3, [pc, #60]	; (98 <_ZN5hwcpp13timing_waiterINS_12lpc1114_baseILi4096ELi32768ELi48000000EE8timer_64EE3nowEv+0x40>)
  5a:	b5f0      	push	{r4, r5, r6, r7, lr}
  5c:	689c      	ldr	r4, [r3, #8]
  5e:	4b0f      	ldr	r3, [pc, #60]	; (9c <_ZN5hwcpp13timing_waiterINS_12lpc1114_baseILi4096ELi32768ELi48000000EE8timer_64EE3nowEv+0x44>)
  60:	43e4      	mvns	r4, r4
  62:	681a      	ldr	r2, [r3, #0]
  64:	0224      	lsls	r4, r4, #8
  66:	0a24      	lsrs	r4, r4, #8
  68:	1c1d      	adds	r5, r3, #0
  6a:	490d      	ldr	r1, [pc, #52]	; (a0 <_ZN5hwcpp13timing_waiterINS_12lpc1114_baseILi4096ELi32768ELi48000000EE8timer_64EE3nowEv+0x48>)
  6c:	4294      	cmp	r4, r2
  6e:	d207      	bcs.n	80 <_ZN5hwcpp13timing_waiterINS_12lpc1114_baseILi4096ELi32768ELi48000000EE8timer_64EE3nowEv+0x28>
  70:	680e      	ldr	r6, [r1, #0]
  72:	684f      	ldr	r7, [r1, #4]
  74:	4b07      	ldr	r3, [pc, #28]	; (94 <_ZN5hwcpp13timing_waiterINS_12lpc1114_baseILi4096ELi32768ELi48000000EE8timer_64EE3nowEv+0x3c>)
  76:	4a06      	ldr	r2, [pc, #24]	; (90 <_ZN5hwcpp13timing_waiterINS_12lpc1114_baseILi4096ELi32768ELi48000000EE8timer_64EE3nowEv+0x38>)
  78:	1992      	adds	r2, r2, r6
  7a:	417b      	adcs	r3, r7
  7c:	600a      	str	r2, [r1, #0]
  7e:	604b      	str	r3, [r1, #4]
  80:	680f      	ldr	r7, [r1, #0]
  82:	6849      	ldr	r1, [r1, #4]
  84:	602c      	str	r4, [r5, #0]
  86:	433c      	orrs	r4, r7
  88:	6004      	str	r4, [r0, #0]
  8a:	6041      	str	r1, [r0, #4]
  8c:	bdf0      	pop	{r4, r5, r6, r7, pc}
  8e:	46c0      	nop			; (mov r8, r8)
  90:	01000000 	.word	0x01000000
  94:	00000000 	.word	0x00000000
  98:	e000e010 	.word	0xe000e010
  9c:	10000430 	.word	0x10000430
  a0:	10000428 	.word	0x10000428
  a4:	46c0      	nop			; (mov r8, r8)
  a6:	46c0      	nop			; (mov r8, r8)

000000a8 <_ZN5hwcpp21seven_segment_displayINS_23callback_implementationINS_12lpc1114_baseILi4096ELi32768ELi48000000EE8timer_64ENS_37callback_administration_double_linkedEEENS_6invertINS_18port_out_from_pinsIINS3_17pin_in_out_pullupILi0ELi2EEENS9_ILi0ELi3EEENS3_6pin_ocILi0ELi4EEENSC_ILi0ELi5EEENS9_ILi0ELi6EEENS9_ILi0ELi7EEENS9_ILi0ELi8EEENS9_ILi0ELi9EEEEEEvEENS8_IINS9_ILi1ELi9EEENS9_ILi1ELi8EEENS9_ILi1ELi5EEENS3_20pin_in_out_ad_pullupILi1ELi4ELi5EEEEEENS_28seven_segments_table_defaultIvEEE17set_decimal_valueEjjb>:
  a8:	b5f8      	push	{r3, r4, r5, r6, r7, lr}
  aa:	1c06      	adds	r6, r0, #0
  ac:	1c0d      	adds	r5, r1, #0
  ae:	2400      	movs	r4, #0
  b0:	1c30      	adds	r0, r6, #0
  b2:	210a      	movs	r1, #10
  b4:	f000 fbb6 	bl	824 <__aeabi_uidivmod>
  b8:	1c30      	adds	r0, r6, #0
  ba:	1c0f      	adds	r7, r1, #0
  bc:	210a      	movs	r1, #10
  be:	f000 fb6d 	bl	79c <__aeabi_uidiv>
  c2:	1c02      	adds	r2, r0, #0
  c4:	1c06      	adds	r6, r0, #0
  c6:	433a      	orrs	r2, r7
  c8:	4b0b      	ldr	r3, [pc, #44]	; (f8 <_ZN5hwcpp21seven_segment_displayINS_23callback_implementationINS_12lpc1114_baseILi4096ELi32768ELi48000000EE8timer_64ENS_37callback_administration_double_linkedEEENS_6invertINS_18port_out_from_pinsIINS3_17pin_in_out_pullupILi0ELi2EEENS9_ILi0ELi3EEENS3_6pin_ocILi0ELi4EEENSC_ILi0ELi5EEENS9_ILi0ELi6EEENS9_ILi0ELi7EEENS9_ILi0ELi8EEENS9_ILi0ELi9EEEEEEvEENS8_IINS9_ILi1ELi9EEENS9_ILi1ELi8EEENS9_ILi1ELi5EEENS3_20pin_in_out_ad_pullupILi1ELi4ELi5EEEEEENS_28seven_segments_table_defaultIvEEE17set_decimal_valueEjjb+0x50>)
  ca:	d105      	bne.n	d8 <_ZN5hwcpp21seven_segment_displayINS_23callback_implementationINS_12lpc1114_baseILi4096ELi32768ELi48000000EE8timer_64ENS_37callback_administration_double_linkedEEENS_6invertINS_18port_out_from_pinsIINS3_17pin_in_out_pullupILi0ELi2EEENS9_ILi0ELi3EEENS3_6pin_ocILi0ELi4EEENSC_ILi0ELi5EEENS9_ILi0ELi6EEENS9_ILi0ELi7EEENS9_ILi0ELi8EEENS9_ILi0ELi9EEEEEEvEENS8_IINS9_ILi1ELi9EEENS9_ILi1ELi8EEENS9_ILi1ELi5EEENS3_20pin_in_out_ad_pullupILi1ELi4ELi5EEEEEENS_28seven_segments_table_defaultIvEEE17set_decimal_valueEjjb+0x30>
  cc:	2c00      	cmp	r4, #0
  ce:	d003      	beq.n	d8 <_ZN5hwcpp21seven_segment_displayINS_23callback_implementationINS_12lpc1114_baseILi4096ELi32768ELi48000000EE8timer_64ENS_37callback_administration_double_linkedEEENS_6invertINS_18port_out_from_pinsIINS3_17pin_in_out_pullupILi0ELi2EEENS9_ILi0ELi3EEENS3_6pin_ocILi0ELi4EEENSC_ILi0ELi5EEENS9_ILi0ELi6EEENS9_ILi0ELi7EEENS9_ILi0ELi8EEENS9_ILi0ELi9EEEEEEvEENS8_IINS9_ILi1ELi9EEENS9_ILi1ELi8EEENS9_ILi1ELi5EEENS3_20pin_in_out_ad_pullupILi1ELi4ELi5EEEEEENS_28seven_segments_table_defaultIvEEE17set_decimal_valueEjjb+0x30>
  d0:	2d00      	cmp	r5, #0
  d2:	d101      	bne.n	d8 <_ZN5hwcpp21seven_segment_displayINS_23callback_implementationINS_12lpc1114_baseILi4096ELi32768ELi48000000EE8timer_64ENS_37callback_administration_double_linkedEEENS_6invertINS_18port_out_from_pinsIINS3_17pin_in_out_pullupILi0ELi2EEENS9_ILi0ELi3EEENS3_6pin_ocILi0ELi4EEENSC_ILi0ELi5EEENS9_ILi0ELi6EEENS9_ILi0ELi7EEENS9_ILi0ELi8EEENS9_ILi0ELi9EEEEEEvEENS8_IINS9_ILi1ELi9EEENS9_ILi1ELi8EEENS9_ILi1ELi5EEENS3_20pin_in_out_ad_pullupILi1ELi4ELi5EEEEEENS_28seven_segments_table_defaultIvEEE17set_decimal_valueEjjb+0x30>
  d4:	551d      	strb	r5, [r3, r4]
  d6:	e002      	b.n	de <_ZN5hwcpp21seven_segment_displayINS_23callback_implementationINS_12lpc1114_baseILi4096ELi32768ELi48000000EE8timer_64ENS_37callback_administration_double_linkedEEENS_6invertINS_18port_out_from_pinsIINS3_17pin_in_out_pullupILi0ELi2EEENS9_ILi0ELi3EEENS3_6pin_ocILi0ELi4EEENSC_ILi0ELi5EEENS9_ILi0ELi6EEENS9_ILi0ELi7EEENS9_ILi0ELi8EEENS9_ILi0ELi9EEEEEEvEENS8_IINS9_ILi1ELi9EEENS9_ILi1ELi8EEENS9_ILi1ELi5EEENS3_20pin_in_out_ad_pullupILi1ELi4ELi5EEEEEENS_28seven_segments_table_defaultIvEEE17set_decimal_valueEjjb+0x36>
  d8:	4a08      	ldr	r2, [pc, #32]	; (fc <_ZN5hwcpp21seven_segment_displayINS_23callback_implementationINS_12lpc1114_baseILi4096ELi32768ELi48000000EE8timer_64ENS_37callback_administration_double_linkedEEENS_6invertINS_18port_out_from_pinsIINS3_17pin_in_out_pullupILi0ELi2EEENS9_ILi0ELi3EEENS3_6pin_ocILi0ELi4EEENSC_ILi0ELi5EEENS9_ILi0ELi6EEENS9_ILi0ELi7EEENS9_ILi0ELi8EEENS9_ILi0ELi9EEEEEEvEENS8_IINS9_ILi1ELi9EEENS9_ILi1ELi8EEENS9_ILi1ELi5EEENS3_20pin_in_out_ad_pullupILi1ELi4ELi5EEEEEENS_28seven_segments_table_defaultIvEEE17set_decimal_valueEjjb+0x54>)
  da:	5dd2      	ldrb	r2, [r2, r7]
  dc:	551a      	strb	r2, [r3, r4]
  de:	07ea      	lsls	r2, r5, #31
  e0:	d505      	bpl.n	ee <_ZN5hwcpp21seven_segment_displayINS_23callback_implementationINS_12lpc1114_baseILi4096ELi32768ELi48000000EE8timer_64ENS_37callback_administration_double_linkedEEENS_6invertINS_18port_out_from_pinsIINS3_17pin_in_out_pullupILi0ELi2EEENS9_ILi0ELi3EEENS3_6pin_ocILi0ELi4EEENSC_ILi0ELi5EEENS9_ILi0ELi6EEENS9_ILi0ELi7EEENS9_ILi0ELi8EEENS9_ILi0ELi9EEEEEEvEENS8_IINS9_ILi1ELi9EEENS9_ILi1ELi8EEENS9_ILi1ELi5EEENS3_20pin_in_out_ad_pullupILi1ELi4ELi5EEEEEENS_28seven_segments_table_defaultIvEEE17set_decimal_valueEjjb+0x46>
  e2:	191b      	adds	r3, r3, r4
  e4:	7819      	ldrb	r1, [r3, #0]
  e6:	2280      	movs	r2, #128	; 0x80
  e8:	4252      	negs	r2, r2
  ea:	430a      	orrs	r2, r1
  ec:	701a      	strb	r2, [r3, #0]
  ee:	3401      	adds	r4, #1
  f0:	086d      	lsrs	r5, r5, #1
  f2:	2c04      	cmp	r4, #4
  f4:	d1dc      	bne.n	b0 <_ZN5hwcpp21seven_segment_displayINS_23callback_implementationINS_12lpc1114_baseILi4096ELi32768ELi48000000EE8timer_64ENS_37callback_administration_double_linkedEEENS_6invertINS_18port_out_from_pinsIINS3_17pin_in_out_pullupILi0ELi2EEENS9_ILi0ELi3EEENS3_6pin_ocILi0ELi4EEENSC_ILi0ELi5EEENS9_ILi0ELi6EEENS9_ILi0ELi7EEENS9_ILi0ELi8EEENS9_ILi0ELi9EEEEEEvEENS8_IINS9_ILi1ELi9EEENS9_ILi1ELi8EEENS9_ILi1ELi5EEENS3_20pin_in_out_ad_pullupILi1ELi4ELi5EEEEEENS_28seven_segments_table_defaultIvEEE17set_decimal_valueEjjb+0x8>
  f6:	bdf8      	pop	{r3, r4, r5, r6, r7, pc}
  f8:	10000474 	.word	0x10000474
  fc:	000009d0 	.word	0x000009d0

00000100 <_ZN5hwcpp20add_timing_templatesINS_37callback_administration_double_linkedINS_21timing_implementationINS_12lpc1114_baseILi4096ELi32768ELi48000000EE8timer_64EEEEEE2nsILy1000000ELy18446744073708551616EE4waitEv>:
 100:	b537      	push	{r0, r1, r2, r4, r5, lr}
 102:	4d0c      	ldr	r5, [pc, #48]	; (134 <_ZN5hwcpp20add_timing_templatesINS_37callback_administration_double_linkedINS_21timing_implementationINS_12lpc1114_baseILi4096ELi32768ELi48000000EE8timer_64EEEEEE2nsILy1000000ELy18446744073708551616EE4waitEv+0x34>)
 104:	4c0a      	ldr	r4, [pc, #40]	; (130 <_ZN5hwcpp20add_timing_templatesINS_37callback_administration_double_linkedINS_21timing_implementationINS_12lpc1114_baseILi4096ELi32768ELi48000000EE8timer_64EEEEEE2nsILy1000000ELy18446744073708551616EE4waitEv+0x30>)
 106:	4668      	mov	r0, sp
 108:	f7ff ffa6 	bl	58 <_ZN5hwcpp13timing_waiterINS_12lpc1114_baseILi4096ELi32768ELi48000000EE8timer_64EE3nowEv>
 10c:	9a00      	ldr	r2, [sp, #0]
 10e:	9b01      	ldr	r3, [sp, #4]
 110:	18a4      	adds	r4, r4, r2
 112:	415d      	adcs	r5, r3
 114:	4668      	mov	r0, sp
 116:	f7ff ff9f 	bl	58 <_ZN5hwcpp13timing_waiterINS_12lpc1114_baseILi4096ELi32768ELi48000000EE8timer_64EE3nowEv>
 11a:	9b01      	ldr	r3, [sp, #4]
 11c:	9a00      	ldr	r2, [sp, #0]
 11e:	429d      	cmp	r5, r3
 120:	dcf8      	bgt.n	114 <_ZN5hwcpp20add_timing_templatesINS_37callback_administration_double_linkedINS_21timing_implementationINS_12lpc1114_baseILi4096ELi32768ELi48000000EE8timer_64EEEEEE2nsILy1000000ELy18446744073708551616EE4waitEv+0x14>
 122:	d101      	bne.n	128 <_ZN5hwcpp20add_timing_templatesINS_37callback_administration_double_linkedINS_21timing_implementationINS_12lpc1114_baseILi4096ELi32768ELi48000000EE8timer_64EEEEEE2nsILy1000000ELy18446744073708551616EE4waitEv+0x28>
 124:	4294      	cmp	r4, r2
 126:	d8f5      	bhi.n	114 <_ZN5hwcpp20add_timing_templatesINS_37callback_administration_double_linkedINS_21timing_implementationINS_12lpc1114_baseILi4096ELi32768ELi48000000EE8timer_64EEEEEE2nsILy1000000ELy18446744073708551616EE4waitEv+0x14>
 128:	bd37      	pop	{r0, r1, r2, r4, r5, pc}
 12a:	46c0      	nop			; (mov r8, r8)
 12c:	46c0      	nop			; (mov r8, r8)
 12e:	46c0      	nop			; (mov r8, r8)
 130:	00005dd8 	.word	0x00005dd8
 134:	00000000 	.word	0x00000000

00000138 <_ZN5hwcpp11pin_in_fromINS_12lpc1114_baseILi4096ELi32768ELi48000000EE20pin_in_out_ad_pullupILi1ELi0ELi1EEEvE4initEv>:
 138:	4b09      	ldr	r3, [pc, #36]	; (160 <_ZN5hwcpp11pin_in_fromINS_12lpc1114_baseILi4096ELi32768ELi48000000EE20pin_in_out_ad_pullupILi1ELi0ELi1EEEvE4initEv+0x28>)
 13a:	2280      	movs	r2, #128	; 0x80
 13c:	6fd9      	ldr	r1, [r3, #124]	; 0x7c
 13e:	0252      	lsls	r2, r2, #9
 140:	430a      	orrs	r2, r1
 142:	67da      	str	r2, [r3, #124]	; 0x7c
 144:	4b07      	ldr	r3, [pc, #28]	; (164 <_ZN5hwcpp11pin_in_fromINS_12lpc1114_baseILi4096ELi32768ELi48000000EE20pin_in_out_ad_pullupILi1ELi0ELi1EEEvE4initEv+0x2c>)
 146:	2107      	movs	r1, #7
 148:	681a      	ldr	r2, [r3, #0]
 14a:	438a      	bics	r2, r1
 14c:	2181      	movs	r1, #129	; 0x81
 14e:	430a      	orrs	r2, r1
 150:	601a      	str	r2, [r3, #0]
 152:	4b05      	ldr	r3, [pc, #20]	; (168 <_ZN5hwcpp11pin_in_fromINS_12lpc1114_baseILi4096ELi32768ELi48000000EE20pin_in_out_ad_pullupILi1ELi0ELi1EEEvE4initEv+0x30>)
 154:	2101      	movs	r1, #1
 156:	681a      	ldr	r2, [r3, #0]
 158:	438a      	bics	r2, r1
 15a:	601a      	str	r2, [r3, #0]
 15c:	4770      	bx	lr
 15e:	46c0      	nop			; (mov r8, r8)
 160:	40048004 	.word	0x40048004
 164:	40044078 	.word	0x40044078
 168:	50018000 	.word	0x50018000

0000016c <_ZN5hwcpp12pin_out_fromINS_12lpc1114_baseILi4096ELi32768ELi48000000EE17pin_in_out_pullupILi0ELi10EEEvE4initEv>:
 16c:	4b09      	ldr	r3, [pc, #36]	; (194 <_ZN5hwcpp12pin_out_fromINS_12lpc1114_baseILi4096ELi32768ELi48000000EE17pin_in_out_pullupILi0ELi10EEEvE4initEv+0x28>)
 16e:	2280      	movs	r2, #128	; 0x80
 170:	6fd9      	ldr	r1, [r3, #124]	; 0x7c
 172:	0252      	lsls	r2, r2, #9
 174:	430a      	orrs	r2, r1
 176:	67da      	str	r2, [r3, #124]	; 0x7c
 178:	4b07      	ldr	r3, [pc, #28]	; (198 <_ZN5hwcpp12pin_out_fromINS_12lpc1114_baseILi4096ELi32768ELi48000000EE17pin_in_out_pullupILi0ELi10EEEvE4initEv+0x2c>)
 17a:	2107      	movs	r1, #7
 17c:	681a      	ldr	r2, [r3, #0]
 17e:	438a      	bics	r2, r1
 180:	2101      	movs	r1, #1
 182:	430a      	orrs	r2, r1
 184:	601a      	str	r2, [r3, #0]
 186:	4b05      	ldr	r3, [pc, #20]	; (19c <_ZN5hwcpp12pin_out_fromINS_12lpc1114_baseILi4096ELi32768ELi48000000EE17pin_in_out_pullupILi0ELi10EEEvE4initEv+0x30>)
 188:	2280      	movs	r2, #128	; 0x80
 18a:	6819      	ldr	r1, [r3, #0]
 18c:	00d2      	lsls	r2, r2, #3
 18e:	430a      	orrs	r2, r1
 190:	601a      	str	r2, [r3, #0]
 192:	4770      	bx	lr
 194:	40048004 	.word	0x40048004
 198:	40044068 	.word	0x40044068
 19c:	50008000 	.word	0x50008000

000001a0 <_ZN5hwcpp18port_out_from_pinsIINS_12lpc1114_baseILi4096ELi32768ELi48000000EE17pin_in_out_pullupILi1ELi9EEENS3_ILi1ELi8EEENS3_ILi1ELi5EEENS2_20pin_in_out_ad_pullupILi1ELi4ELi5EEEEE3setEj>:
 1a0:	2301      	movs	r3, #1
 1a2:	1c01      	adds	r1, r0, #0
 1a4:	4019      	ands	r1, r3
 1a6:	4a09      	ldr	r2, [pc, #36]	; (1cc <_ZN5hwcpp18port_out_from_pinsIINS_12lpc1114_baseILi4096ELi32768ELi48000000EE17pin_in_out_pullupILi1ELi9EEENS3_ILi1ELi8EEENS3_ILi1ELi5EEENS2_20pin_in_out_ad_pullupILi1ELi4ELi5EEEEE3setEj+0x2c>)
 1a8:	4249      	negs	r1, r1
 1aa:	6011      	str	r1, [r2, #0]
 1ac:	0841      	lsrs	r1, r0, #1
 1ae:	4019      	ands	r1, r3
 1b0:	4a07      	ldr	r2, [pc, #28]	; (1d0 <_ZN5hwcpp18port_out_from_pinsIINS_12lpc1114_baseILi4096ELi32768ELi48000000EE17pin_in_out_pullupILi1ELi9EEENS3_ILi1ELi8EEENS3_ILi1ELi5EEENS2_20pin_in_out_ad_pullupILi1ELi4ELi5EEEEE3setEj+0x30>)
 1b2:	4249      	negs	r1, r1
 1b4:	6011      	str	r1, [r2, #0]
 1b6:	0881      	lsrs	r1, r0, #2
 1b8:	4019      	ands	r1, r3
 1ba:	4a06      	ldr	r2, [pc, #24]	; (1d4 <_ZN5hwcpp18port_out_from_pinsIINS_12lpc1114_baseILi4096ELi32768ELi48000000EE17pin_in_out_pullupILi1ELi9EEENS3_ILi1ELi8EEENS3_ILi1ELi5EEENS2_20pin_in_out_ad_pullupILi1ELi4ELi5EEEEE3setEj+0x34>)
 1bc:	4249      	negs	r1, r1
 1be:	08c0      	lsrs	r0, r0, #3
 1c0:	6011      	str	r1, [r2, #0]
 1c2:	4003      	ands	r3, r0
 1c4:	4a04      	ldr	r2, [pc, #16]	; (1d8 <_ZN5hwcpp18port_out_from_pinsIINS_12lpc1114_baseILi4096ELi32768ELi48000000EE17pin_in_out_pullupILi1ELi9EEENS3_ILi1ELi8EEENS3_ILi1ELi5EEENS2_20pin_in_out_ad_pullupILi1ELi4ELi5EEEEE3setEj+0x38>)
 1c6:	425b      	negs	r3, r3
 1c8:	6013      	str	r3, [r2, #0]
 1ca:	4770      	bx	lr
 1cc:	50010800 	.word	0x50010800
 1d0:	50010400 	.word	0x50010400
 1d4:	50010080 	.word	0x50010080
 1d8:	50010040 	.word	0x50010040

000001dc <_ZN5hwcpp18port_out_from_pinsIINS_12lpc1114_baseILi4096ELi32768ELi48000000EE17pin_in_out_pullupILi1ELi9EEENS3_ILi1ELi8EEENS3_ILi1ELi5EEENS2_20pin_in_out_ad_pullupILi1ELi4ELi5EEEEE4initEv>:
 1dc:	4a1b      	ldr	r2, [pc, #108]	; (24c <_ZN5hwcpp18port_out_from_pinsIINS_12lpc1114_baseILi4096ELi32768ELi48000000EE17pin_in_out_pullupILi1ELi9EEENS3_ILi1ELi8EEENS3_ILi1ELi5EEENS2_20pin_in_out_ad_pullupILi1ELi4ELi5EEEEE4initEv+0x70>)
 1de:	2080      	movs	r0, #128	; 0x80
 1e0:	6fd3      	ldr	r3, [r2, #124]	; 0x7c
 1e2:	0240      	lsls	r0, r0, #9
 1e4:	4303      	orrs	r3, r0
 1e6:	b530      	push	{r4, r5, lr}
 1e8:	67d3      	str	r3, [r2, #124]	; 0x7c
 1ea:	4b19      	ldr	r3, [pc, #100]	; (250 <_ZN5hwcpp18port_out_from_pinsIINS_12lpc1114_baseILi4096ELi32768ELi48000000EE17pin_in_out_pullupILi1ELi9EEENS3_ILi1ELi8EEENS3_ILi1ELi5EEENS2_20pin_in_out_ad_pullupILi1ELi4ELi5EEEEE4initEv+0x74>)
 1ec:	2107      	movs	r1, #7
 1ee:	681c      	ldr	r4, [r3, #0]
 1f0:	438c      	bics	r4, r1
 1f2:	601c      	str	r4, [r3, #0]
 1f4:	4b17      	ldr	r3, [pc, #92]	; (254 <_ZN5hwcpp18port_out_from_pinsIINS_12lpc1114_baseILi4096ELi32768ELi48000000EE17pin_in_out_pullupILi1ELi9EEENS3_ILi1ELi8EEENS3_ILi1ELi5EEENS2_20pin_in_out_ad_pullupILi1ELi4ELi5EEEEE4initEv+0x78>)
 1f6:	2480      	movs	r4, #128	; 0x80
 1f8:	681d      	ldr	r5, [r3, #0]
 1fa:	00a4      	lsls	r4, r4, #2
 1fc:	432c      	orrs	r4, r5
 1fe:	601c      	str	r4, [r3, #0]
 200:	6fd4      	ldr	r4, [r2, #124]	; 0x7c
 202:	4304      	orrs	r4, r0
 204:	67d4      	str	r4, [r2, #124]	; 0x7c
 206:	4c14      	ldr	r4, [pc, #80]	; (258 <_ZN5hwcpp18port_out_from_pinsIINS_12lpc1114_baseILi4096ELi32768ELi48000000EE17pin_in_out_pullupILi1ELi9EEENS3_ILi1ELi8EEENS3_ILi1ELi5EEENS2_20pin_in_out_ad_pullupILi1ELi4ELi5EEEEE4initEv+0x7c>)
 208:	6825      	ldr	r5, [r4, #0]
 20a:	438d      	bics	r5, r1
 20c:	6025      	str	r5, [r4, #0]
 20e:	681d      	ldr	r5, [r3, #0]
 210:	2480      	movs	r4, #128	; 0x80
 212:	0064      	lsls	r4, r4, #1
 214:	432c      	orrs	r4, r5
 216:	601c      	str	r4, [r3, #0]
 218:	6fd4      	ldr	r4, [r2, #124]	; 0x7c
 21a:	4304      	orrs	r4, r0
 21c:	67d4      	str	r4, [r2, #124]	; 0x7c
 21e:	4c0f      	ldr	r4, [pc, #60]	; (25c <_ZN5hwcpp18port_out_from_pinsIINS_12lpc1114_baseILi4096ELi32768ELi48000000EE17pin_in_out_pullupILi1ELi9EEENS3_ILi1ELi8EEENS3_ILi1ELi5EEENS2_20pin_in_out_ad_pullupILi1ELi4ELi5EEEEE4initEv+0x80>)
 220:	6825      	ldr	r5, [r4, #0]
 222:	438d      	bics	r5, r1
 224:	6025      	str	r5, [r4, #0]
 226:	681c      	ldr	r4, [r3, #0]
 228:	2520      	movs	r5, #32
 22a:	432c      	orrs	r4, r5
 22c:	601c      	str	r4, [r3, #0]
 22e:	6fd4      	ldr	r4, [r2, #124]	; 0x7c
 230:	4320      	orrs	r0, r4
 232:	67d0      	str	r0, [r2, #124]	; 0x7c
 234:	4a0a      	ldr	r2, [pc, #40]	; (260 <_ZN5hwcpp18port_out_from_pinsIINS_12lpc1114_baseILi4096ELi32768ELi48000000EE17pin_in_out_pullupILi1ELi9EEENS3_ILi1ELi8EEENS3_ILi1ELi5EEENS2_20pin_in_out_ad_pullupILi1ELi4ELi5EEEEE4initEv+0x84>)
 236:	6810      	ldr	r0, [r2, #0]
 238:	4388      	bics	r0, r1
 23a:	1c01      	adds	r1, r0, #0
 23c:	2080      	movs	r0, #128	; 0x80
 23e:	4301      	orrs	r1, r0
 240:	6011      	str	r1, [r2, #0]
 242:	681a      	ldr	r2, [r3, #0]
 244:	2110      	movs	r1, #16
 246:	430a      	orrs	r2, r1
 248:	601a      	str	r2, [r3, #0]
 24a:	bd30      	pop	{r4, r5, pc}
 24c:	40048004 	.word	0x40048004
 250:	40044038 	.word	0x40044038
 254:	50018000 	.word	0x50018000
 258:	40044014 	.word	0x40044014
 25c:	400440a0 	.word	0x400440a0
 260:	40044094 	.word	0x40044094

00000264 <_ZN5hwcpp12lpc1114_baseILi4096ELi32768ELi48000000EE16initialize_clockEv>:
 264:	4b0f      	ldr	r3, [pc, #60]	; (2a4 <_ZN5hwcpp12lpc1114_baseILi4096ELi32768ELi48000000EE16initialize_clockEv+0x40>)
 266:	781a      	ldrb	r2, [r3, #0]
 268:	2a00      	cmp	r2, #0
 26a:	d11a      	bne.n	2a2 <_ZN5hwcpp12lpc1114_baseILi4096ELi32768ELi48000000EE16initialize_clockEv+0x3e>
 26c:	2201      	movs	r2, #1
 26e:	701a      	strb	r2, [r3, #0]
 270:	4b0d      	ldr	r3, [pc, #52]	; (2a8 <_ZN5hwcpp12lpc1114_baseILi4096ELi32768ELi48000000EE16initialize_clockEv+0x44>)
 272:	228e      	movs	r2, #142	; 0x8e
 274:	0092      	lsls	r2, r2, #2
 276:	5898      	ldr	r0, [r3, r2]
 278:	2180      	movs	r1, #128	; 0x80
 27a:	4308      	orrs	r0, r1
 27c:	5098      	str	r0, [r3, r2]
 27e:	2023      	movs	r0, #35	; 0x23
 280:	6098      	str	r0, [r3, #8]
 282:	5898      	ldr	r0, [r3, r2]
 284:	4388      	bics	r0, r1
 286:	5098      	str	r0, [r3, r2]
 288:	68d8      	ldr	r0, [r3, #12]
 28a:	2101      	movs	r1, #1
 28c:	4a06      	ldr	r2, [pc, #24]	; (2a8 <_ZN5hwcpp12lpc1114_baseILi4096ELi32768ELi48000000EE16initialize_clockEv+0x44>)
 28e:	4208      	tst	r0, r1
 290:	d0fa      	beq.n	288 <_ZN5hwcpp12lpc1114_baseILi4096ELi32768ELi48000000EE16initialize_clockEv+0x24>
 292:	2303      	movs	r3, #3
 294:	6713      	str	r3, [r2, #112]	; 0x70
 296:	6f53      	ldr	r3, [r2, #116]	; 0x74
 298:	438b      	bics	r3, r1
 29a:	6753      	str	r3, [r2, #116]	; 0x74
 29c:	6f53      	ldr	r3, [r2, #116]	; 0x74
 29e:	4319      	orrs	r1, r3
 2a0:	6751      	str	r1, [r2, #116]	; 0x74
 2a2:	4770      	bx	lr
 2a4:	10000434 	.word	0x10000434
 2a8:	40048000 	.word	0x40048000

000002ac <_ZN5hwcpp12lpc1114_baseILi4096ELi32768ELi48000000EE8timer_644initEv>:
 2ac:	b508      	push	{r3, lr}
 2ae:	f7ff ffd9 	bl	264 <_ZN5hwcpp12lpc1114_baseILi4096ELi32768ELi48000000EE16initialize_clockEv>
 2b2:	4b04      	ldr	r3, [pc, #16]	; (2c4 <_ZN5hwcpp12lpc1114_baseILi4096ELi32768ELi48000000EE8timer_644initEv+0x18>)
 2b4:	4904      	ldr	r1, [pc, #16]	; (2c8 <_ZN5hwcpp12lpc1114_baseILi4096ELi32768ELi48000000EE8timer_644initEv+0x1c>)
 2b6:	2200      	movs	r2, #0
 2b8:	601a      	str	r2, [r3, #0]
 2ba:	6059      	str	r1, [r3, #4]
 2bc:	609a      	str	r2, [r3, #8]
 2be:	2201      	movs	r2, #1
 2c0:	601a      	str	r2, [r3, #0]
 2c2:	bd08      	pop	{r3, pc}
 2c4:	e000e010 	.word	0xe000e010
 2c8:	00ffffff 	.word	0x00ffffff

000002cc <_ZN5hwcpp18port_out_from_pinsIINS_12lpc1114_baseILi4096ELi32768ELi48000000EE6pin_ocILi0ELi4EEENS3_ILi0ELi5EEENS2_17pin_in_out_pullupILi0ELi6EEENS6_ILi0ELi7EEENS6_ILi0ELi8EEENS6_ILi0ELi9EEEEE3setEj>:
 2cc:	2201      	movs	r2, #1
 2ce:	b510      	push	{r4, lr}
 2d0:	4002      	ands	r2, r0
 2d2:	4b18      	ldr	r3, [pc, #96]	; (334 <_ZN5hwcpp18port_out_from_pinsIINS_12lpc1114_baseILi4096ELi32768ELi48000000EE6pin_ocILi0ELi4EEENS3_ILi0ELi5EEENS2_17pin_in_out_pullupILi0ELi6EEENS6_ILi0ELi7EEENS6_ILi0ELi8EEENS6_ILi0ELi9EEEEE3setEj+0x68>)
 2d4:	2110      	movs	r1, #16
 2d6:	2a00      	cmp	r2, #0
 2d8:	d003      	beq.n	2e2 <_ZN5hwcpp18port_out_from_pinsIINS_12lpc1114_baseILi4096ELi32768ELi48000000EE6pin_ocILi0ELi4EEENS3_ILi0ELi5EEENS2_17pin_in_out_pullupILi0ELi6EEENS6_ILi0ELi7EEENS6_ILi0ELi8EEENS6_ILi0ELi9EEEEE3setEj+0x16>
 2da:	681a      	ldr	r2, [r3, #0]
 2dc:	438a      	bics	r2, r1
 2de:	601a      	str	r2, [r3, #0]
 2e0:	e004      	b.n	2ec <_ZN5hwcpp18port_out_from_pinsIINS_12lpc1114_baseILi4096ELi32768ELi48000000EE6pin_ocILi0ELi4EEENS3_ILi0ELi5EEENS2_17pin_in_out_pullupILi0ELi6EEENS6_ILi0ELi7EEENS6_ILi0ELi8EEENS6_ILi0ELi9EEEEE3setEj+0x20>
 2e2:	681c      	ldr	r4, [r3, #0]
 2e4:	4321      	orrs	r1, r4
 2e6:	6019      	str	r1, [r3, #0]
 2e8:	4913      	ldr	r1, [pc, #76]	; (338 <_ZN5hwcpp18port_out_from_pinsIINS_12lpc1114_baseILi4096ELi32768ELi48000000EE6pin_ocILi0ELi4EEENS3_ILi0ELi5EEENS2_17pin_in_out_pullupILi0ELi6EEENS6_ILi0ELi7EEENS6_ILi0ELi8EEENS6_ILi0ELi9EEEEE3setEj+0x6c>)
 2ea:	600a      	str	r2, [r1, #0]
 2ec:	0840      	lsrs	r0, r0, #1
 2ee:	2201      	movs	r2, #1
 2f0:	4002      	ands	r2, r0
 2f2:	2120      	movs	r1, #32
 2f4:	2a00      	cmp	r2, #0
 2f6:	d002      	beq.n	2fe <_ZN5hwcpp18port_out_from_pinsIINS_12lpc1114_baseILi4096ELi32768ELi48000000EE6pin_ocILi0ELi4EEENS3_ILi0ELi5EEENS2_17pin_in_out_pullupILi0ELi6EEENS6_ILi0ELi7EEENS6_ILi0ELi8EEENS6_ILi0ELi9EEEEE3setEj+0x32>
 2f8:	681a      	ldr	r2, [r3, #0]
 2fa:	438a      	bics	r2, r1
 2fc:	e003      	b.n	306 <_ZN5hwcpp18port_out_from_pinsIINS_12lpc1114_baseILi4096ELi32768ELi48000000EE6pin_ocILi0ELi4EEENS3_ILi0ELi5EEENS2_17pin_in_out_pullupILi0ELi6EEENS6_ILi0ELi7EEENS6_ILi0ELi8EEENS6_ILi0ELi9EEEEE3setEj+0x3a>
 2fe:	681c      	ldr	r4, [r3, #0]
 300:	4321      	orrs	r1, r4
 302:	6019      	str	r1, [r3, #0]
 304:	4b0d      	ldr	r3, [pc, #52]	; (33c <_ZN5hwcpp18port_out_from_pinsIINS_12lpc1114_baseILi4096ELi32768ELi48000000EE6pin_ocILi0ELi4EEENS3_ILi0ELi5EEENS2_17pin_in_out_pullupILi0ELi6EEENS6_ILi0ELi7EEENS6_ILi0ELi8EEENS6_ILi0ELi9EEEEE3setEj+0x70>)
 306:	601a      	str	r2, [r3, #0]
 308:	0841      	lsrs	r1, r0, #1
 30a:	2301      	movs	r3, #1
 30c:	4019      	ands	r1, r3
 30e:	4a0c      	ldr	r2, [pc, #48]	; (340 <_ZN5hwcpp18port_out_from_pinsIINS_12lpc1114_baseILi4096ELi32768ELi48000000EE6pin_ocILi0ELi4EEENS3_ILi0ELi5EEENS2_17pin_in_out_pullupILi0ELi6EEENS6_ILi0ELi7EEENS6_ILi0ELi8EEENS6_ILi0ELi9EEEEE3setEj+0x74>)
 310:	4249      	negs	r1, r1
 312:	6011      	str	r1, [r2, #0]
 314:	0881      	lsrs	r1, r0, #2
 316:	4019      	ands	r1, r3
 318:	4a0a      	ldr	r2, [pc, #40]	; (344 <_ZN5hwcpp18port_out_from_pinsIINS_12lpc1114_baseILi4096ELi32768ELi48000000EE6pin_ocILi0ELi4EEENS3_ILi0ELi5EEENS2_17pin_in_out_pullupILi0ELi6EEENS6_ILi0ELi7EEENS6_ILi0ELi8EEENS6_ILi0ELi9EEEEE3setEj+0x78>)
 31a:	4249      	negs	r1, r1
 31c:	6011      	str	r1, [r2, #0]
 31e:	08c1      	lsrs	r1, r0, #3
 320:	4019      	ands	r1, r3
 322:	4a09      	ldr	r2, [pc, #36]	; (348 <_ZN5hwcpp18port_out_from_pinsIINS_12lpc1114_baseILi4096ELi32768ELi48000000EE6pin_ocILi0ELi4EEENS3_ILi0ELi5EEENS2_17pin_in_out_pullupILi0ELi6EEENS6_ILi0ELi7EEENS6_ILi0ELi8EEENS6_ILi0ELi9EEEEE3setEj+0x7c>)
 324:	4249      	negs	r1, r1
 326:	0900      	lsrs	r0, r0, #4
 328:	6011      	str	r1, [r2, #0]
 32a:	4003      	ands	r3, r0
 32c:	4a07      	ldr	r2, [pc, #28]	; (34c <_ZN5hwcpp18port_out_from_pinsIINS_12lpc1114_baseILi4096ELi32768ELi48000000EE6pin_ocILi0ELi4EEENS3_ILi0ELi5EEENS2_17pin_in_out_pullupILi0ELi6EEENS6_ILi0ELi7EEENS6_ILi0ELi8EEENS6_ILi0ELi9EEEEE3setEj+0x80>)
 32e:	425b      	negs	r3, r3
 330:	6013      	str	r3, [r2, #0]
 332:	bd10      	pop	{r4, pc}
 334:	50008000 	.word	0x50008000
 338:	50000040 	.word	0x50000040
 33c:	50000080 	.word	0x50000080
 340:	50000100 	.word	0x50000100
 344:	50000200 	.word	0x50000200
 348:	50000400 	.word	0x50000400
 34c:	50000800 	.word	0x50000800

00000350 <_ZN5hwcpp6invertINS_18port_out_from_pinsIINS_12lpc1114_baseILi4096ELi32768ELi48000000EE17pin_in_out_pullupILi0ELi2EEENS4_ILi0ELi3EEENS3_6pin_ocILi0ELi4EEENS7_ILi0ELi5EEENS4_ILi0ELi6EEENS4_ILi0ELi7EEENS4_ILi0ELi8EEENS4_ILi0ELi9EEEEEEvE3setEj>:
 350:	b508      	push	{r3, lr}
 352:	23ff      	movs	r3, #255	; 0xff
 354:	4058      	eors	r0, r3
 356:	1c01      	adds	r1, r0, #0
 358:	2301      	movs	r3, #1
 35a:	4019      	ands	r1, r3
 35c:	4a05      	ldr	r2, [pc, #20]	; (374 <_ZN5hwcpp6invertINS_18port_out_from_pinsIINS_12lpc1114_baseILi4096ELi32768ELi48000000EE17pin_in_out_pullupILi0ELi2EEENS4_ILi0ELi3EEENS3_6pin_ocILi0ELi4EEENS7_ILi0ELi5EEENS4_ILi0ELi6EEENS4_ILi0ELi7EEENS4_ILi0ELi8EEENS4_ILi0ELi9EEEEEEvE3setEj+0x24>)
 35e:	4249      	negs	r1, r1
 360:	6011      	str	r1, [r2, #0]
 362:	0842      	lsrs	r2, r0, #1
 364:	4013      	ands	r3, r2
 366:	4a04      	ldr	r2, [pc, #16]	; (378 <_ZN5hwcpp6invertINS_18port_out_from_pinsIINS_12lpc1114_baseILi4096ELi32768ELi48000000EE17pin_in_out_pullupILi0ELi2EEENS4_ILi0ELi3EEENS3_6pin_ocILi0ELi4EEENS7_ILi0ELi5EEENS4_ILi0ELi6EEENS4_ILi0ELi7EEENS4_ILi0ELi8EEENS4_ILi0ELi9EEEEEEvE3setEj+0x28>)
 368:	425b      	negs	r3, r3
 36a:	6013      	str	r3, [r2, #0]
 36c:	0880      	lsrs	r0, r0, #2
 36e:	f7ff ffad 	bl	2cc <_ZN5hwcpp18port_out_from_pinsIINS_12lpc1114_baseILi4096ELi32768ELi48000000EE6pin_ocILi0ELi4EEENS3_ILi0ELi5EEENS2_17pin_in_out_pullupILi0ELi6EEENS6_ILi0ELi7EEENS6_ILi0ELi8EEENS6_ILi0ELi9EEEEE3setEj>
 372:	bd08      	pop	{r3, pc}
 374:	50000010 	.word	0x50000010
 378:	50000020 	.word	0x50000020

0000037c <_ZN5hwcpp21seven_segment_displayINS_23callback_implementationINS_12lpc1114_baseILi4096ELi32768ELi48000000EE8timer_64ENS_37callback_administration_double_linkedEEENS_6invertINS_18port_out_from_pinsIINS3_17pin_in_out_pullupILi0ELi2EEENS9_ILi0ELi3EEENS3_6pin_ocILi0ELi4EEENSC_ILi0ELi5EEENS9_ILi0ELi6EEENS9_ILi0ELi7EEENS9_ILi0ELi8EEENS9_ILi0ELi9EEEEEEvEENS8_IINS9_ILi1ELi9EEENS9_ILi1ELi8EEENS9_ILi1ELi5EEENS3_20pin_in_out_ad_pullupILi1ELi4ELi5EEEEEENS_28seven_segments_table_defaultIvEEE3muxEv>:
 37c:	b510      	push	{r4, lr}
 37e:	4c0b      	ldr	r4, [pc, #44]	; (3ac <_ZN5hwcpp21seven_segment_displayINS_23callback_implementationINS_12lpc1114_baseILi4096ELi32768ELi48000000EE8timer_64ENS_37callback_administration_double_linkedEEENS_6invertINS_18port_out_from_pinsIINS3_17pin_in_out_pullupILi0ELi2EEENS9_ILi0ELi3EEENS3_6pin_ocILi0ELi4EEENSC_ILi0ELi5EEENS9_ILi0ELi6EEENS9_ILi0ELi7EEENS9_ILi0ELi8EEENS9_ILi0ELi9EEEEEEvEENS8_IINS9_ILi1ELi9EEENS9_ILi1ELi8EEENS9_ILi1ELi5EEENS3_20pin_in_out_ad_pullupILi1ELi4ELi5EEEEEENS_28seven_segments_table_defaultIvEEE3muxEv+0x30>)
 380:	6823      	ldr	r3, [r4, #0]
 382:	3301      	adds	r3, #1
 384:	2b03      	cmp	r3, #3
 386:	d900      	bls.n	38a <_ZN5hwcpp21seven_segment_displayINS_23callback_implementationINS_12lpc1114_baseILi4096ELi32768ELi48000000EE8timer_64ENS_37callback_administration_double_linkedEEENS_6invertINS_18port_out_from_pinsIINS3_17pin_in_out_pullupILi0ELi2EEENS9_ILi0ELi3EEENS3_6pin_ocILi0ELi4EEENSC_ILi0ELi5EEENS9_ILi0ELi6EEENS9_ILi0ELi7EEENS9_ILi0ELi8EEENS9_ILi0ELi9EEEEEEvEENS8_IINS9_ILi1ELi9EEENS9_ILi1ELi8EEENS9_ILi1ELi5EEENS3_20pin_in_out_ad_pullupILi1ELi4ELi5EEEEEENS_28seven_segments_table_defaultIvEEE3muxEv+0xe>
 388:	2300      	movs	r3, #0
 38a:	2000      	movs	r0, #0
 38c:	6023      	str	r3, [r4, #0]
 38e:	f7ff ff07 	bl	1a0 <_ZN5hwcpp18port_out_from_pinsIINS_12lpc1114_baseILi4096ELi32768ELi48000000EE17pin_in_out_pullupILi1ELi9EEENS3_ILi1ELi8EEENS3_ILi1ELi5EEENS2_20pin_in_out_ad_pullupILi1ELi4ELi5EEEEE3setEj>
 392:	6822      	ldr	r2, [r4, #0]
 394:	4b06      	ldr	r3, [pc, #24]	; (3b0 <_ZN5hwcpp21seven_segment_displayINS_23callback_implementationINS_12lpc1114_baseILi4096ELi32768ELi48000000EE8timer_64ENS_37callback_administration_double_linkedEEENS_6invertINS_18port_out_from_pinsIINS3_17pin_in_out_pullupILi0ELi2EEENS9_ILi0ELi3EEENS3_6pin_ocILi0ELi4EEENSC_ILi0ELi5EEENS9_ILi0ELi6EEENS9_ILi0ELi7EEENS9_ILi0ELi8EEENS9_ILi0ELi9EEEEEEvEENS8_IINS9_ILi1ELi9EEENS9_ILi1ELi8EEENS9_ILi1ELi5EEENS3_20pin_in_out_ad_pullupILi1ELi4ELi5EEEEEENS_28seven_segments_table_defaultIvEEE3muxEv+0x34>)
 396:	5c98      	ldrb	r0, [r3, r2]
 398:	f7ff ffda 	bl	350 <_ZN5hwcpp6invertINS_18port_out_from_pinsIINS_12lpc1114_baseILi4096ELi32768ELi48000000EE17pin_in_out_pullupILi0ELi2EEENS4_ILi0ELi3EEENS3_6pin_ocILi0ELi4EEENS7_ILi0ELi5EEENS4_ILi0ELi6EEENS4_ILi0ELi7EEENS4_ILi0ELi8EEENS4_ILi0ELi9EEEEEEvE3setEj>
 39c:	6823      	ldr	r3, [r4, #0]
 39e:	2001      	movs	r0, #1
 3a0:	4098      	lsls	r0, r3
 3a2:	b2c0      	uxtb	r0, r0
 3a4:	f7ff fefc 	bl	1a0 <_ZN5hwcpp18port_out_from_pinsIINS_12lpc1114_baseILi4096ELi32768ELi48000000EE17pin_in_out_pullupILi1ELi9EEENS3_ILi1ELi8EEENS3_ILi1ELi5EEENS2_20pin_in_out_ad_pullupILi1ELi4ELi5EEEEE3setEj>
 3a8:	bd10      	pop	{r4, pc}
 3aa:	46c0      	nop			; (mov r8, r8)
 3ac:	10000470 	.word	0x10000470
 3b0:	10000474 	.word	0x10000474

000003b4 <_ZN5hwcpp21seven_segment_displayINS_23callback_implementationINS_12lpc1114_baseILi4096ELi32768ELi48000000EE8timer_64ENS_37callback_administration_double_linkedEEENS_6invertINS_18port_out_from_pinsIINS3_17pin_in_out_pullupILi0ELi2EEENS9_ILi0ELi3EEENS3_6pin_ocILi0ELi4EEENSC_ILi0ELi5EEENS9_ILi0ELi6EEENS9_ILi0ELi7EEENS9_ILi0ELi8EEENS9_ILi0ELi9EEEEEEvEENS8_IINS9_ILi1ELi9EEENS9_ILi1ELi8EEENS9_ILi1ELi5EEENS3_20pin_in_out_ad_pullupILi1ELi4ELi5EEEEEENS_28seven_segments_table_defaultIvEEE12multiplexing8functionEv>:
 3b4:	b510      	push	{r4, lr}
 3b6:	4c0b      	ldr	r4, [pc, #44]	; (3e4 <_ZN5hwcpp21seven_segment_displayINS_23callback_implementationINS_12lpc1114_baseILi4096ELi32768ELi48000000EE8timer_64ENS_37callback_administration_double_linkedEEENS_6invertINS_18port_out_from_pinsIINS3_17pin_in_out_pullupILi0ELi2EEENS9_ILi0ELi3EEENS3_6pin_ocILi0ELi4EEENSC_ILi0ELi5EEENS9_ILi0ELi6EEENS9_ILi0ELi7EEENS9_ILi0ELi8EEENS9_ILi0ELi9EEEEEEvEENS8_IINS9_ILi1ELi9EEENS9_ILi1ELi8EEENS9_ILi1ELi5EEENS3_20pin_in_out_ad_pullupILi1ELi4ELi5EEEEEENS_28seven_segments_table_defaultIvEEE12multiplexing8functionEv+0x30>)
 3b8:	6823      	ldr	r3, [r4, #0]
 3ba:	3301      	adds	r3, #1
 3bc:	2b03      	cmp	r3, #3
 3be:	d900      	bls.n	3c2 <_ZN5hwcpp21seven_segment_displayINS_23callback_implementationINS_12lpc1114_baseILi4096ELi32768ELi48000000EE8timer_64ENS_37callback_administration_double_linkedEEENS_6invertINS_18port_out_from_pinsIINS3_17pin_in_out_pullupILi0ELi2EEENS9_ILi0ELi3EEENS3_6pin_ocILi0ELi4EEENSC_ILi0ELi5EEENS9_ILi0ELi6EEENS9_ILi0ELi7EEENS9_ILi0ELi8EEENS9_ILi0ELi9EEEEEEvEENS8_IINS9_ILi1ELi9EEENS9_ILi1ELi8EEENS9_ILi1ELi5EEENS3_20pin_in_out_ad_pullupILi1ELi4ELi5EEEEEENS_28seven_segments_table_defaultIvEEE12multiplexing8functionEv+0xe>
 3c0:	2300      	movs	r3, #0
 3c2:	2000      	movs	r0, #0
 3c4:	6023      	str	r3, [r4, #0]
 3c6:	f7ff feeb 	bl	1a0 <_ZN5hwcpp18port_out_from_pinsIINS_12lpc1114_baseILi4096ELi32768ELi48000000EE17pin_in_out_pullupILi1ELi9EEENS3_ILi1ELi8EEENS3_ILi1ELi5EEENS2_20pin_in_out_ad_pullupILi1ELi4ELi5EEEEE3setEj>
 3ca:	6822      	ldr	r2, [r4, #0]
 3cc:	4b06      	ldr	r3, [pc, #24]	; (3e8 <_ZN5hwcpp21seven_segment_displayINS_23callback_implementationINS_12lpc1114_baseILi4096ELi32768ELi48000000EE8timer_64ENS_37callback_administration_double_linkedEEENS_6invertINS_18port_out_from_pinsIINS3_17pin_in_out_pullupILi0ELi2EEENS9_ILi0ELi3EEENS3_6pin_ocILi0ELi4EEENSC_ILi0ELi5EEENS9_ILi0ELi6EEENS9_ILi0ELi7EEENS9_ILi0ELi8EEENS9_ILi0ELi9EEEEEEvEENS8_IINS9_ILi1ELi9EEENS9_ILi1ELi8EEENS9_ILi1ELi5EEENS3_20pin_in_out_ad_pullupILi1ELi4ELi5EEEEEENS_28seven_segments_table_defaultIvEEE12multiplexing8functionEv+0x34>)
 3ce:	5c98      	ldrb	r0, [r3, r2]
 3d0:	f7ff ffbe 	bl	350 <_ZN5hwcpp6invertINS_18port_out_from_pinsIINS_12lpc1114_baseILi4096ELi32768ELi48000000EE17pin_in_out_pullupILi0ELi2EEENS4_ILi0ELi3EEENS3_6pin_ocILi0ELi4EEENS7_ILi0ELi5EEENS4_ILi0ELi6EEENS4_ILi0ELi7EEENS4_ILi0ELi8EEENS4_ILi0ELi9EEEEEEvE3setEj>
 3d4:	6823      	ldr	r3, [r4, #0]
 3d6:	2001      	movs	r0, #1
 3d8:	4098      	lsls	r0, r3
 3da:	b2c0      	uxtb	r0, r0
 3dc:	f7ff fee0 	bl	1a0 <_ZN5hwcpp18port_out_from_pinsIINS_12lpc1114_baseILi4096ELi32768ELi48000000EE17pin_in_out_pullupILi1ELi9EEENS3_ILi1ELi8EEENS3_ILi1ELi5EEENS2_20pin_in_out_ad_pullupILi1ELi4ELi5EEEEE3setEj>
 3e0:	bd10      	pop	{r4, pc}
 3e2:	46c0      	nop			; (mov r8, r8)
 3e4:	10000470 	.word	0x10000470
 3e8:	10000474 	.word	0x10000474

000003ec <_ZN5hwcpp18port_out_from_pinsIINS_12lpc1114_baseILi4096ELi32768ELi48000000EE17pin_in_out_pullupILi0ELi7EEENS3_ILi0ELi8EEENS3_ILi0ELi9EEEEE4initEv>:
 3ec:	4a14      	ldr	r2, [pc, #80]	; (440 <__main_stack_size+0x40>)
 3ee:	2080      	movs	r0, #128	; 0x80
 3f0:	6fd3      	ldr	r3, [r2, #124]	; 0x7c
 3f2:	0240      	lsls	r0, r0, #9
 3f4:	4303      	orrs	r3, r0
 3f6:	b530      	push	{r4, r5, lr}
 3f8:	67d3      	str	r3, [r2, #124]	; 0x7c
 3fa:	4b12      	ldr	r3, [pc, #72]	; (444 <__main_stack_size+0x44>)
 3fc:	2107      	movs	r1, #7
 3fe:	681c      	ldr	r4, [r3, #0]
 400:	2580      	movs	r5, #128	; 0x80
 402:	438c      	bics	r4, r1
 404:	601c      	str	r4, [r3, #0]
 406:	4b10      	ldr	r3, [pc, #64]	; (448 <__main_stack_size+0x48>)
 408:	681c      	ldr	r4, [r3, #0]
 40a:	432c      	orrs	r4, r5
 40c:	601c      	str	r4, [r3, #0]
 40e:	6fd4      	ldr	r4, [r2, #124]	; 0x7c
 410:	4304      	orrs	r4, r0
 412:	67d4      	str	r4, [r2, #124]	; 0x7c
 414:	4c0d      	ldr	r4, [pc, #52]	; (44c <__main_stack_size+0x4c>)
 416:	6825      	ldr	r5, [r4, #0]
 418:	438d      	bics	r5, r1
 41a:	6025      	str	r5, [r4, #0]
 41c:	681d      	ldr	r5, [r3, #0]
 41e:	2480      	movs	r4, #128	; 0x80
 420:	0064      	lsls	r4, r4, #1
 422:	432c      	orrs	r4, r5
 424:	601c      	str	r4, [r3, #0]
 426:	6fd4      	ldr	r4, [r2, #124]	; 0x7c
 428:	4320      	orrs	r0, r4
 42a:	67d0      	str	r0, [r2, #124]	; 0x7c
 42c:	4a08      	ldr	r2, [pc, #32]	; (450 <__main_stack_size+0x50>)
 42e:	6810      	ldr	r0, [r2, #0]
 430:	4388      	bics	r0, r1
 432:	6010      	str	r0, [r2, #0]
 434:	6819      	ldr	r1, [r3, #0]
 436:	2280      	movs	r2, #128	; 0x80
 438:	0092      	lsls	r2, r2, #2
 43a:	430a      	orrs	r2, r1
 43c:	601a      	str	r2, [r3, #0]
 43e:	bd30      	pop	{r4, r5, pc}
 440:	40048004 	.word	0x40048004
 444:	40044050 	.word	0x40044050
 448:	50008000 	.word	0x50008000
 44c:	40044060 	.word	0x40044060
 450:	40044064 	.word	0x40044064

00000454 <_ZN5hwcpp18port_out_from_pinsIINS_12lpc1114_baseILi4096ELi32768ELi48000000EE17pin_in_out_pullupILi0ELi3EEENS2_6pin_ocILi0ELi4EEENS5_ILi0ELi5EEENS3_ILi0ELi6EEENS3_ILi0ELi7EEENS3_ILi0ELi8EEENS3_ILi0ELi9EEEEE4initEv>:
 454:	4a1a      	ldr	r2, [pc, #104]	; (4c0 <_ZN5hwcpp18port_out_from_pinsIINS_12lpc1114_baseILi4096ELi32768ELi48000000EE17pin_in_out_pullupILi0ELi3EEENS2_6pin_ocILi0ELi4EEENS5_ILi0ELi5EEENS3_ILi0ELi6EEENS3_ILi0ELi7EEENS3_ILi0ELi8EEENS3_ILi0ELi9EEEEE4initEv+0x6c>)
 456:	b538      	push	{r3, r4, r5, lr}
 458:	2080      	movs	r0, #128	; 0x80
 45a:	6fd3      	ldr	r3, [r2, #124]	; 0x7c
 45c:	0240      	lsls	r0, r0, #9
 45e:	4303      	orrs	r3, r0
 460:	67d3      	str	r3, [r2, #124]	; 0x7c
 462:	4b18      	ldr	r3, [pc, #96]	; (4c4 <_ZN5hwcpp18port_out_from_pinsIINS_12lpc1114_baseILi4096ELi32768ELi48000000EE17pin_in_out_pullupILi0ELi3EEENS2_6pin_ocILi0ELi4EEENS5_ILi0ELi5EEENS3_ILi0ELi6EEENS3_ILi0ELi7EEENS3_ILi0ELi8EEENS3_ILi0ELi9EEEEE4initEv+0x70>)
 464:	2107      	movs	r1, #7
 466:	681c      	ldr	r4, [r3, #0]
 468:	2508      	movs	r5, #8
 46a:	438c      	bics	r4, r1
 46c:	601c      	str	r4, [r3, #0]
 46e:	4b16      	ldr	r3, [pc, #88]	; (4c8 <_ZN5hwcpp18port_out_from_pinsIINS_12lpc1114_baseILi4096ELi32768ELi48000000EE17pin_in_out_pullupILi0ELi3EEENS2_6pin_ocILi0ELi4EEENS5_ILi0ELi5EEENS3_ILi0ELi6EEENS3_ILi0ELi7EEENS3_ILi0ELi8EEENS3_ILi0ELi9EEEEE4initEv+0x74>)
 470:	681c      	ldr	r4, [r3, #0]
 472:	432c      	orrs	r4, r5
 474:	601c      	str	r4, [r3, #0]
 476:	6fd4      	ldr	r4, [r2, #124]	; 0x7c
 478:	4304      	orrs	r4, r0
 47a:	67d4      	str	r4, [r2, #124]	; 0x7c
 47c:	4c13      	ldr	r4, [pc, #76]	; (4cc <_ZN5hwcpp18port_out_from_pinsIINS_12lpc1114_baseILi4096ELi32768ELi48000000EE17pin_in_out_pullupILi0ELi3EEENS2_6pin_ocILi0ELi4EEENS5_ILi0ELi5EEENS3_ILi0ELi6EEENS3_ILi0ELi7EEENS3_ILi0ELi8EEENS3_ILi0ELi9EEEEE4initEv+0x78>)
 47e:	6825      	ldr	r5, [r4, #0]
 480:	438d      	bics	r5, r1
 482:	6025      	str	r5, [r4, #0]
 484:	681c      	ldr	r4, [r3, #0]
 486:	2510      	movs	r5, #16
 488:	432c      	orrs	r4, r5
 48a:	601c      	str	r4, [r3, #0]
 48c:	6fd4      	ldr	r4, [r2, #124]	; 0x7c
 48e:	4304      	orrs	r4, r0
 490:	67d4      	str	r4, [r2, #124]	; 0x7c
 492:	4c0f      	ldr	r4, [pc, #60]	; (4d0 <_ZN5hwcpp18port_out_from_pinsIINS_12lpc1114_baseILi4096ELi32768ELi48000000EE17pin_in_out_pullupILi0ELi3EEENS2_6pin_ocILi0ELi4EEENS5_ILi0ELi5EEENS3_ILi0ELi6EEENS3_ILi0ELi7EEENS3_ILi0ELi8EEENS3_ILi0ELi9EEEEE4initEv+0x7c>)
 494:	6825      	ldr	r5, [r4, #0]
 496:	438d      	bics	r5, r1
 498:	6025      	str	r5, [r4, #0]
 49a:	681c      	ldr	r4, [r3, #0]
 49c:	2520      	movs	r5, #32
 49e:	432c      	orrs	r4, r5
 4a0:	601c      	str	r4, [r3, #0]
 4a2:	6fd4      	ldr	r4, [r2, #124]	; 0x7c
 4a4:	4320      	orrs	r0, r4
 4a6:	67d0      	str	r0, [r2, #124]	; 0x7c
 4a8:	4a0a      	ldr	r2, [pc, #40]	; (4d4 <_ZN5hwcpp18port_out_from_pinsIINS_12lpc1114_baseILi4096ELi32768ELi48000000EE17pin_in_out_pullupILi0ELi3EEENS2_6pin_ocILi0ELi4EEENS5_ILi0ELi5EEENS3_ILi0ELi6EEENS3_ILi0ELi7EEENS3_ILi0ELi8EEENS3_ILi0ELi9EEEEE4initEv+0x80>)
 4aa:	6810      	ldr	r0, [r2, #0]
 4ac:	4388      	bics	r0, r1
 4ae:	6010      	str	r0, [r2, #0]
 4b0:	681a      	ldr	r2, [r3, #0]
 4b2:	2140      	movs	r1, #64	; 0x40
 4b4:	430a      	orrs	r2, r1
 4b6:	601a      	str	r2, [r3, #0]
 4b8:	f7ff ff98 	bl	3ec <_ZN5hwcpp18port_out_from_pinsIINS_12lpc1114_baseILi4096ELi32768ELi48000000EE17pin_in_out_pullupILi0ELi7EEENS3_ILi0ELi8EEENS3_ILi0ELi9EEEEE4initEv>
 4bc:	bd38      	pop	{r3, r4, r5, pc}
 4be:	46c0      	nop			; (mov r8, r8)
 4c0:	40048004 	.word	0x40048004
 4c4:	4004402c 	.word	0x4004402c
 4c8:	50008000 	.word	0x50008000
 4cc:	40044030 	.word	0x40044030
 4d0:	40044034 	.word	0x40044034
 4d4:	4004404c 	.word	0x4004404c

000004d8 <_ZN5hwcpp21seven_segment_displayINS_23callback_implementationINS_12lpc1114_baseILi4096ELi32768ELi48000000EE8timer_64ENS_37callback_administration_double_linkedEEENS_6invertINS_18port_out_from_pinsIINS3_17pin_in_out_pullupILi0ELi2EEENS9_ILi0ELi3EEENS3_6pin_ocILi0ELi4EEENSC_ILi0ELi5EEENS9_ILi0ELi6EEENS9_ILi0ELi7EEENS9_ILi0ELi8EEENS9_ILi0ELi9EEEEEEvEENS8_IINS9_ILi1ELi9EEENS9_ILi1ELi8EEENS9_ILi1ELi5EEENS3_20pin_in_out_ad_pullupILi1ELi4ELi5EEEEEENS_28seven_segments_table_defaultIvEEE4initEv>:
 4d8:	b5f7      	push	{r0, r1, r2, r4, r5, r6, r7, lr}
 4da:	f7ff fee7 	bl	2ac <_ZN5hwcpp12lpc1114_baseILi4096ELi32768ELi48000000EE8timer_644initEv>
 4de:	f7ff fe7d 	bl	1dc <_ZN5hwcpp18port_out_from_pinsIINS_12lpc1114_baseILi4096ELi32768ELi48000000EE17pin_in_out_pullupILi1ELi9EEENS3_ILi1ELi8EEENS3_ILi1ELi5EEENS2_20pin_in_out_ad_pullupILi1ELi4ELi5EEEEE4initEv>
 4e2:	4b29      	ldr	r3, [pc, #164]	; (588 <_ZN5hwcpp21seven_segment_displayINS_23callback_implementationINS_12lpc1114_baseILi4096ELi32768ELi48000000EE8timer_64ENS_37callback_administration_double_linkedEEENS_6invertINS_18port_out_from_pinsIINS3_17pin_in_out_pullupILi0ELi2EEENS9_ILi0ELi3EEENS3_6pin_ocILi0ELi4EEENSC_ILi0ELi5EEENS9_ILi0ELi6EEENS9_ILi0ELi7EEENS9_ILi0ELi8EEENS9_ILi0ELi9EEEEEEvEENS8_IINS9_ILi1ELi9EEENS9_ILi1ELi8EEENS9_ILi1ELi5EEENS3_20pin_in_out_ad_pullupILi1ELi4ELi5EEEEEENS_28seven_segments_table_defaultIvEEE4initEv+0xb0>)
 4e4:	2280      	movs	r2, #128	; 0x80
 4e6:	6fd9      	ldr	r1, [r3, #124]	; 0x7c
 4e8:	0252      	lsls	r2, r2, #9
 4ea:	430a      	orrs	r2, r1
 4ec:	67da      	str	r2, [r3, #124]	; 0x7c
 4ee:	4b27      	ldr	r3, [pc, #156]	; (58c <_ZN5hwcpp21seven_segment_displayINS_23callback_implementationINS_12lpc1114_baseILi4096ELi32768ELi48000000EE8timer_64ENS_37callback_administration_double_linkedEEENS_6invertINS_18port_out_from_pinsIINS3_17pin_in_out_pullupILi0ELi2EEENS9_ILi0ELi3EEENS3_6pin_ocILi0ELi4EEENSC_ILi0ELi5EEENS9_ILi0ELi6EEENS9_ILi0ELi7EEENS9_ILi0ELi8EEENS9_ILi0ELi9EEEEEEvEENS8_IINS9_ILi1ELi9EEENS9_ILi1ELi8EEENS9_ILi1ELi5EEENS3_20pin_in_out_ad_pullupILi1ELi4ELi5EEEEEENS_28seven_segments_table_defaultIvEEE4initEv+0xb4>)
 4f0:	2107      	movs	r1, #7
 4f2:	681a      	ldr	r2, [r3, #0]
 4f4:	2701      	movs	r7, #1
 4f6:	438a      	bics	r2, r1
 4f8:	601a      	str	r2, [r3, #0]
 4fa:	4b25      	ldr	r3, [pc, #148]	; (590 <_ZN5hwcpp21seven_segment_displayINS_23callback_implementationINS_12lpc1114_baseILi4096ELi32768ELi48000000EE8timer_64ENS_37callback_administration_double_linkedEEENS_6invertINS_18port_out_from_pinsIINS3_17pin_in_out_pullupILi0ELi2EEENS9_ILi0ELi3EEENS3_6pin_ocILi0ELi4EEENSC_ILi0ELi5EEENS9_ILi0ELi6EEENS9_ILi0ELi7EEENS9_ILi0ELi8EEENS9_ILi0ELi9EEEEEEvEENS8_IINS9_ILi1ELi9EEENS9_ILi1ELi8EEENS9_ILi1ELi5EEENS3_20pin_in_out_ad_pullupILi1ELi4ELi5EEEEEENS_28seven_segments_table_defaultIvEEE4initEv+0xb8>)
 4fc:	2104      	movs	r1, #4
 4fe:	681a      	ldr	r2, [r3, #0]
 500:	430a      	orrs	r2, r1
 502:	601a      	str	r2, [r3, #0]
 504:	f7ff ffa6 	bl	454 <_ZN5hwcpp18port_out_from_pinsIINS_12lpc1114_baseILi4096ELi32768ELi48000000EE17pin_in_out_pullupILi0ELi3EEENS2_6pin_ocILi0ELi4EEENS5_ILi0ELi5EEENS3_ILi0ELi6EEENS3_ILi0ELi7EEENS3_ILi0ELi8EEENS3_ILi0ELi9EEEEE4initEv>
 508:	4b22      	ldr	r3, [pc, #136]	; (594 <_ZN5hwcpp21seven_segment_displayINS_23callback_implementationINS_12lpc1114_baseILi4096ELi32768ELi48000000EE8timer_64ENS_37callback_administration_double_linkedEEENS_6invertINS_18port_out_from_pinsIINS3_17pin_in_out_pullupILi0ELi2EEENS9_ILi0ELi3EEENS3_6pin_ocILi0ELi4EEENSC_ILi0ELi5EEENS9_ILi0ELi6EEENS9_ILi0ELi7EEENS9_ILi0ELi8EEENS9_ILi0ELi9EEEEEEvEENS8_IINS9_ILi1ELi9EEENS9_ILi1ELi8EEENS9_ILi1ELi5EEENS3_20pin_in_out_ad_pullupILi1ELi4ELi5EEEEEENS_28seven_segments_table_defaultIvEEE4initEv+0xbc>)
 50a:	2200      	movs	r2, #0
 50c:	601a      	str	r2, [r3, #0]
 50e:	4b22      	ldr	r3, [pc, #136]	; (598 <_ZN5hwcpp21seven_segment_displayINS_23callback_implementationINS_12lpc1114_baseILi4096ELi32768ELi48000000EE8timer_64ENS_37callback_administration_double_linkedEEENS_6invertINS_18port_out_from_pinsIINS3_17pin_in_out_pullupILi0ELi2EEENS9_ILi0ELi3EEENS3_6pin_ocILi0ELi4EEENSC_ILi0ELi5EEENS9_ILi0ELi6EEENS9_ILi0ELi7EEENS9_ILi0ELi8EEENS9_ILi0ELi9EEEEEEvEENS8_IINS9_ILi1ELi9EEENS9_ILi1ELi8EEENS9_ILi1ELi5EEENS3_20pin_in_out_ad_pullupILi1ELi4ELi5EEEEEENS_28seven_segments_table_defaultIvEEE4initEv+0xc0>)
 510:	4e22      	ldr	r6, [pc, #136]	; (59c <_ZN5hwcpp21seven_segment_displayINS_23callback_implementationINS_12lpc1114_baseILi4096ELi32768ELi48000000EE8timer_64ENS_37callback_administration_double_linkedEEENS_6invertINS_18port_out_from_pinsIINS3_17pin_in_out_pullupILi0ELi2EEENS9_ILi0ELi3EEENS3_6pin_ocILi0ELi4EEENSC_ILi0ELi5EEENS9_ILi0ELi6EEENS9_ILi0ELi7EEENS9_ILi0ELi8EEENS9_ILi0ELi9EEEEEEvEENS8_IINS9_ILi1ELi9EEENS9_ILi1ELi8EEENS9_ILi1ELi5EEENS3_20pin_in_out_ad_pullupILi1ELi4ELi5EEEEEENS_28seven_segments_table_defaultIvEEE4initEv+0xc4>)
 512:	681a      	ldr	r2, [r3, #0]
 514:	423a      	tst	r2, r7
 516:	d12e      	bne.n	576 <_ZN5hwcpp21seven_segment_displayINS_23callback_implementationINS_12lpc1114_baseILi4096ELi32768ELi48000000EE8timer_64ENS_37callback_administration_double_linkedEEENS_6invertINS_18port_out_from_pinsIINS3_17pin_in_out_pullupILi0ELi2EEENS9_ILi0ELi3EEENS3_6pin_ocILi0ELi4EEENSC_ILi0ELi5EEENS9_ILi0ELi6EEENS9_ILi0ELi7EEENS9_ILi0ELi8EEENS9_ILi0ELi9EEEEEEvEENS8_IINS9_ILi1ELi9EEENS9_ILi1ELi8EEENS9_ILi1ELi5EEENS3_20pin_in_out_ad_pullupILi1ELi4ELi5EEEEEENS_28seven_segments_table_defaultIvEEE4initEv+0x9e>
 518:	4b21      	ldr	r3, [pc, #132]	; (5a0 <_ZN5hwcpp21seven_segment_displayINS_23callback_implementationINS_12lpc1114_baseILi4096ELi32768ELi48000000EE8timer_64ENS_37callback_administration_double_linkedEEENS_6invertINS_18port_out_from_pinsIINS3_17pin_in_out_pullupILi0ELi2EEENS9_ILi0ELi3EEENS3_6pin_ocILi0ELi4EEENSC_ILi0ELi5EEENS9_ILi0ELi6EEENS9_ILi0ELi7EEENS9_ILi0ELi8EEENS9_ILi0ELi9EEEEEEvEENS8_IINS9_ILi1ELi9EEENS9_ILi1ELi8EEENS9_ILi1ELi5EEENS3_20pin_in_out_ad_pullupILi1ELi4ELi5EEEEEENS_28seven_segments_table_defaultIvEEE4initEv+0xc8>)
 51a:	4d1a      	ldr	r5, [pc, #104]	; (584 <_ZN5hwcpp21seven_segment_displayINS_23callback_implementationINS_12lpc1114_baseILi4096ELi32768ELi48000000EE8timer_64ENS_37callback_administration_double_linkedEEENS_6invertINS_18port_out_from_pinsIINS3_17pin_in_out_pullupILi0ELi2EEENS9_ILi0ELi3EEENS3_6pin_ocILi0ELi4EEENSC_ILi0ELi5EEENS9_ILi0ELi6EEENS9_ILi0ELi7EEENS9_ILi0ELi8EEENS9_ILi0ELi9EEEEEEvEENS8_IINS9_ILi1ELi9EEENS9_ILi1ELi8EEENS9_ILi1ELi5EEENS3_20pin_in_out_ad_pullupILi1ELi4ELi5EEEEEENS_28seven_segments_table_defaultIvEEE4initEv+0xac>)
 51c:	4c18      	ldr	r4, [pc, #96]	; (580 <_ZN5hwcpp21seven_segment_displayINS_23callback_implementationINS_12lpc1114_baseILi4096ELi32768ELi48000000EE8timer_64ENS_37callback_administration_double_linkedEEENS_6invertINS_18port_out_from_pinsIINS3_17pin_in_out_pullupILi0ELi2EEENS9_ILi0ELi3EEENS3_6pin_ocILi0ELi4EEENSC_ILi0ELi5EEENS9_ILi0ELi6EEENS9_ILi0ELi7EEENS9_ILi0ELi8EEENS9_ILi0ELi9EEEEEEvEENS8_IINS9_ILi1ELi9EEENS9_ILi1ELi8EEENS9_ILi1ELi5EEENS3_20pin_in_out_ad_pullupILi1ELi4ELi5EEEEEENS_28seven_segments_table_defaultIvEEE4initEv+0xa8>)
 51e:	6033      	str	r3, [r6, #0]
 520:	61b4      	str	r4, [r6, #24]
 522:	61f5      	str	r5, [r6, #28]
 524:	6076      	str	r6, [r6, #4]
 526:	60b6      	str	r6, [r6, #8]
 528:	4668      	mov	r0, sp
 52a:	f7ff fd95 	bl	58 <_ZN5hwcpp13timing_waiterINS_12lpc1114_baseILi4096ELi32768ELi48000000EE8timer_64EE3nowEv>
 52e:	9900      	ldr	r1, [sp, #0]
 530:	9a01      	ldr	r2, [sp, #4]
 532:	1864      	adds	r4, r4, r1
 534:	4155      	adcs	r5, r2
 536:	4a1b      	ldr	r2, [pc, #108]	; (5a4 <_ZN5hwcpp21seven_segment_displayINS_23callback_implementationINS_12lpc1114_baseILi4096ELi32768ELi48000000EE8timer_64ENS_37callback_administration_double_linkedEEENS_6invertINS_18port_out_from_pinsIINS3_17pin_in_out_pullupILi0ELi2EEENS9_ILi0ELi3EEENS3_6pin_ocILi0ELi4EEENSC_ILi0ELi5EEENS9_ILi0ELi6EEENS9_ILi0ELi7EEENS9_ILi0ELi8EEENS9_ILi0ELi9EEEEEEvEENS8_IINS9_ILi1ELi9EEENS9_ILi1ELi8EEENS9_ILi1ELi5EEENS3_20pin_in_out_ad_pullupILi1ELi4ELi5EEEEEENS_28seven_segments_table_defaultIvEEE4initEv+0xcc>)
 538:	6134      	str	r4, [r6, #16]
 53a:	6175      	str	r5, [r6, #20]
 53c:	6811      	ldr	r1, [r2, #0]
 53e:	4b1a      	ldr	r3, [pc, #104]	; (5a8 <_ZN5hwcpp21seven_segment_displayINS_23callback_implementationINS_12lpc1114_baseILi4096ELi32768ELi48000000EE8timer_64ENS_37callback_administration_double_linkedEEENS_6invertINS_18port_out_from_pinsIINS3_17pin_in_out_pullupILi0ELi2EEENS9_ILi0ELi3EEENS3_6pin_ocILi0ELi4EEENSC_ILi0ELi5EEENS9_ILi0ELi6EEENS9_ILi0ELi7EEENS9_ILi0ELi8EEENS9_ILi0ELi9EEEEEEvEENS8_IINS9_ILi1ELi9EEENS9_ILi1ELi8EEENS9_ILi1ELi5EEENS3_20pin_in_out_ad_pullupILi1ELi4ELi5EEEEEENS_28seven_segments_table_defaultIvEEE4initEv+0xd0>)
 540:	4239      	tst	r1, r7
 542:	d104      	bne.n	54e <_ZN5hwcpp21seven_segment_displayINS_23callback_implementationINS_12lpc1114_baseILi4096ELi32768ELi48000000EE8timer_64ENS_37callback_administration_double_linkedEEENS_6invertINS_18port_out_from_pinsIINS3_17pin_in_out_pullupILi0ELi2EEENS9_ILi0ELi3EEENS3_6pin_ocILi0ELi4EEENSC_ILi0ELi5EEENS9_ILi0ELi6EEENS9_ILi0ELi7EEENS9_ILi0ELi8EEENS9_ILi0ELi9EEEEEEvEENS8_IINS9_ILi1ELi9EEENS9_ILi1ELi8EEENS9_ILi1ELi5EEENS3_20pin_in_out_ad_pullupILi1ELi4ELi5EEEEEENS_28seven_segments_table_defaultIvEEE4initEv+0x76>
 544:	4919      	ldr	r1, [pc, #100]	; (5ac <_ZN5hwcpp21seven_segment_displayINS_23callback_implementationINS_12lpc1114_baseILi4096ELi32768ELi48000000EE8timer_64ENS_37callback_administration_double_linkedEEENS_6invertINS_18port_out_from_pinsIINS3_17pin_in_out_pullupILi0ELi2EEENS9_ILi0ELi3EEENS3_6pin_ocILi0ELi4EEENSC_ILi0ELi5EEENS9_ILi0ELi6EEENS9_ILi0ELi7EEENS9_ILi0ELi8EEENS9_ILi0ELi9EEEEEEvEENS8_IINS9_ILi1ELi9EEENS9_ILi1ELi8EEENS9_ILi1ELi5EEENS3_20pin_in_out_ad_pullupILi1ELi4ELi5EEEEEENS_28seven_segments_table_defaultIvEEE4initEv+0xd4>)
 546:	605b      	str	r3, [r3, #4]
 548:	6019      	str	r1, [r3, #0]
 54a:	609b      	str	r3, [r3, #8]
 54c:	6017      	str	r7, [r2, #0]
 54e:	68b1      	ldr	r1, [r6, #8]
 550:	6872      	ldr	r2, [r6, #4]
 552:	1c30      	adds	r0, r6, #0
 554:	6091      	str	r1, [r2, #8]
 556:	68b1      	ldr	r1, [r6, #8]
 558:	604a      	str	r2, [r1, #4]
 55a:	685a      	ldr	r2, [r3, #4]
 55c:	60b3      	str	r3, [r6, #8]
 55e:	605e      	str	r6, [r3, #4]
 560:	4b13      	ldr	r3, [pc, #76]	; (5b0 <_ZN5hwcpp21seven_segment_displayINS_23callback_implementationINS_12lpc1114_baseILi4096ELi32768ELi48000000EE8timer_64ENS_37callback_administration_double_linkedEEENS_6invertINS_18port_out_from_pinsIINS3_17pin_in_out_pullupILi0ELi2EEENS9_ILi0ELi3EEENS3_6pin_ocILi0ELi4EEENSC_ILi0ELi5EEENS9_ILi0ELi6EEENS9_ILi0ELi7EEENS9_ILi0ELi8EEENS9_ILi0ELi9EEEEEEvEENS8_IINS9_ILi1ELi9EEENS9_ILi1ELi8EEENS9_ILi1ELi5EEENS3_20pin_in_out_ad_pullupILi1ELi4ELi5EEEEEENS_28seven_segments_table_defaultIvEEE4initEv+0xd8>)
 562:	6072      	str	r2, [r6, #4]
 564:	6096      	str	r6, [r2, #8]
 566:	4a0c      	ldr	r2, [pc, #48]	; (598 <_ZN5hwcpp21seven_segment_displayINS_23callback_implementationINS_12lpc1114_baseILi4096ELi32768ELi48000000EE8timer_64ENS_37callback_administration_double_linkedEEENS_6invertINS_18port_out_from_pinsIINS3_17pin_in_out_pullupILi0ELi2EEENS9_ILi0ELi3EEENS3_6pin_ocILi0ELi4EEENSC_ILi0ELi5EEENS9_ILi0ELi6EEENS9_ILi0ELi7EEENS9_ILi0ELi8EEENS9_ILi0ELi9EEEEEEvEENS8_IINS9_ILi1ELi9EEENS9_ILi1ELi8EEENS9_ILi1ELi5EEENS3_20pin_in_out_ad_pullupILi1ELi4ELi5EEEEEENS_28seven_segments_table_defaultIvEEE4initEv+0xc0>)
 568:	6033      	str	r3, [r6, #0]
 56a:	2301      	movs	r3, #1
 56c:	6013      	str	r3, [r2, #0]
 56e:	4911      	ldr	r1, [pc, #68]	; (5b4 <_ZN5hwcpp21seven_segment_displayINS_23callback_implementationINS_12lpc1114_baseILi4096ELi32768ELi48000000EE8timer_64ENS_37callback_administration_double_linkedEEENS_6invertINS_18port_out_from_pinsIINS3_17pin_in_out_pullupILi0ELi2EEENS9_ILi0ELi3EEENS3_6pin_ocILi0ELi4EEENSC_ILi0ELi5EEENS9_ILi0ELi6EEENS9_ILi0ELi7EEENS9_ILi0ELi8EEENS9_ILi0ELi9EEEEEEvEENS8_IINS9_ILi1ELi9EEENS9_ILi1ELi8EEENS9_ILi1ELi5EEENS3_20pin_in_out_ad_pullupILi1ELi4ELi5EEEEEENS_28seven_segments_table_defaultIvEEE4initEv+0xdc>)
 570:	4a11      	ldr	r2, [pc, #68]	; (5b8 <_ZN5hwcpp21seven_segment_displayINS_23callback_implementationINS_12lpc1114_baseILi4096ELi32768ELi48000000EE8timer_64ENS_37callback_administration_double_linkedEEENS_6invertINS_18port_out_from_pinsIINS3_17pin_in_out_pullupILi0ELi2EEENS9_ILi0ELi3EEENS3_6pin_ocILi0ELi4EEENSC_ILi0ELi5EEENS9_ILi0ELi6EEENS9_ILi0ELi7EEENS9_ILi0ELi8EEENS9_ILi0ELi9EEEEEEvEENS8_IINS9_ILi1ELi9EEENS9_ILi1ELi8EEENS9_ILi1ELi5EEENS3_20pin_in_out_ad_pullupILi1ELi4ELi5EEEEEENS_28seven_segments_table_defaultIvEEE4initEv+0xe0>)
 572:	f000 f90b 	bl	78c <__aeabi_atexit>
 576:	1c30      	adds	r0, r6, #0
 578:	f7ff ff1c 	bl	3b4 <_ZN5hwcpp21seven_segment_displayINS_23callback_implementationINS_12lpc1114_baseILi4096ELi32768ELi48000000EE8timer_64ENS_37callback_administration_double_linkedEEENS_6invertINS_18port_out_from_pinsIINS3_17pin_in_out_pullupILi0ELi2EEENS9_ILi0ELi3EEENS3_6pin_ocILi0ELi4EEENSC_ILi0ELi5EEENS9_ILi0ELi6EEENS9_ILi0ELi7EEENS9_ILi0ELi8EEENS9_ILi0ELi9EEEEEEvEENS8_IINS9_ILi1ELi9EEENS9_ILi1ELi8EEENS9_ILi1ELi5EEENS3_20pin_in_out_ad_pullupILi1ELi4ELi5EEEEEENS_28seven_segments_table_defaultIvEEE12multiplexing8functionEv>
 57c:	bdf7      	pop	{r0, r1, r2, r4, r5, r6, r7, pc}
 57e:	46c0      	nop			; (mov r8, r8)
 580:	0e4e79c0 	.word	0x0e4e79c0
 584:	00000000 	.word	0x00000000
 588:	40048004 	.word	0x40048004
 58c:	4004401c 	.word	0x4004401c
 590:	50008000 	.word	0x50008000
 594:	10000470 	.word	0x10000470
 598:	10000480 	.word	0x10000480
 59c:	10000450 	.word	0x10000450
 5a0:	00000a08 	.word	0x00000a08
 5a4:	1000047c 	.word	0x1000047c
 5a8:	10000438 	.word	0x10000438
 5ac:	000009e8 	.word	0x000009e8
 5b0:	00000a18 	.word	0x00000a18
 5b4:	00000041 	.word	0x00000041
 5b8:	10000484 	.word	0x10000484
 5bc:	46c0      	nop			; (mov r8, r8)
 5be:	46c0      	nop			; (mov r8, r8)

000005c0 <_ZN5hwcpp5db104ILj48000000EE4initEv>:
 5c0:	b5f8      	push	{r3, r4, r5, r6, r7, lr}
 5c2:	4c21      	ldr	r4, [pc, #132]	; (648 <_ZN5hwcpp5db104ILj48000000EE4initEv+0x88>)
 5c4:	f7ff fdb8 	bl	138 <_ZN5hwcpp11pin_in_fromINS_12lpc1114_baseILi4096ELi32768ELi48000000EE20pin_in_out_ad_pullupILi1ELi0ELi1EEEvE4initEv>
 5c8:	2780      	movs	r7, #128	; 0x80
 5ca:	6fe3      	ldr	r3, [r4, #124]	; 0x7c
 5cc:	027f      	lsls	r7, r7, #9
 5ce:	433b      	orrs	r3, r7
 5d0:	67e3      	str	r3, [r4, #124]	; 0x7c
 5d2:	4b1e      	ldr	r3, [pc, #120]	; (64c <_ZN5hwcpp5db104ILj48000000EE4initEv+0x8c>)
 5d4:	2607      	movs	r6, #7
 5d6:	681a      	ldr	r2, [r3, #0]
 5d8:	2181      	movs	r1, #129	; 0x81
 5da:	43b2      	bics	r2, r6
 5dc:	4d1c      	ldr	r5, [pc, #112]	; (650 <_ZN5hwcpp5db104ILj48000000EE4initEv+0x90>)
 5de:	430a      	orrs	r2, r1
 5e0:	601a      	str	r2, [r3, #0]
 5e2:	682b      	ldr	r3, [r5, #0]
 5e4:	2202      	movs	r2, #2
 5e6:	4393      	bics	r3, r2
 5e8:	602b      	str	r3, [r5, #0]
 5ea:	6fe3      	ldr	r3, [r4, #124]	; 0x7c
 5ec:	433b      	orrs	r3, r7
 5ee:	67e3      	str	r3, [r4, #124]	; 0x7c
 5f0:	4b18      	ldr	r3, [pc, #96]	; (654 <_ZN5hwcpp5db104ILj48000000EE4initEv+0x94>)
 5f2:	681a      	ldr	r2, [r3, #0]
 5f4:	43b2      	bics	r2, r6
 5f6:	430a      	orrs	r2, r1
 5f8:	601a      	str	r2, [r3, #0]
 5fa:	682b      	ldr	r3, [r5, #0]
 5fc:	2204      	movs	r2, #4
 5fe:	4393      	bics	r3, r2
 600:	602b      	str	r3, [r5, #0]
 602:	f7ff fdb3 	bl	16c <_ZN5hwcpp12pin_out_fromINS_12lpc1114_baseILi4096ELi32768ELi48000000EE17pin_in_out_pullupILi0ELi10EEEvE4initEv>
 606:	6fe3      	ldr	r3, [r4, #124]	; 0x7c
 608:	2181      	movs	r1, #129	; 0x81
 60a:	433b      	orrs	r3, r7
 60c:	67e3      	str	r3, [r4, #124]	; 0x7c
 60e:	4b12      	ldr	r3, [pc, #72]	; (658 <_ZN5hwcpp5db104ILj48000000EE4initEv+0x98>)
 610:	681a      	ldr	r2, [r3, #0]
 612:	43b2      	bics	r2, r6
 614:	430a      	orrs	r2, r1
 616:	601a      	str	r2, [r3, #0]
 618:	4b10      	ldr	r3, [pc, #64]	; (65c <_ZN5hwcpp5db104ILj48000000EE4initEv+0x9c>)
 61a:	2280      	movs	r2, #128	; 0x80
 61c:	6819      	ldr	r1, [r3, #0]
 61e:	0112      	lsls	r2, r2, #4
 620:	430a      	orrs	r2, r1
 622:	601a      	str	r2, [r3, #0]
 624:	6fe3      	ldr	r3, [r4, #124]	; 0x7c
 626:	2181      	movs	r1, #129	; 0x81
 628:	431f      	orrs	r7, r3
 62a:	4b0d      	ldr	r3, [pc, #52]	; (660 <_ZN5hwcpp5db104ILj48000000EE4initEv+0xa0>)
 62c:	67e7      	str	r7, [r4, #124]	; 0x7c
 62e:	681a      	ldr	r2, [r3, #0]
 630:	43b2      	bics	r2, r6
 632:	430a      	orrs	r2, r1
 634:	601a      	str	r2, [r3, #0]
 636:	682b      	ldr	r3, [r5, #0]
 638:	2208      	movs	r2, #8
 63a:	4313      	orrs	r3, r2
 63c:	602b      	str	r3, [r5, #0]
 63e:	f7ff ff4b 	bl	4d8 <_ZN5hwcpp21seven_segment_displayINS_23callback_implementationINS_12lpc1114_baseILi4096ELi32768ELi48000000EE8timer_64ENS_37callback_administration_double_linkedEEENS_6invertINS_18port_out_from_pinsIINS3_17pin_in_out_pullupILi0ELi2EEENS9_ILi0ELi3EEENS3_6pin_ocILi0ELi4EEENSC_ILi0ELi5EEENS9_ILi0ELi6EEENS9_ILi0ELi7EEENS9_ILi0ELi8EEENS9_ILi0ELi9EEEEEEvEENS8_IINS9_ILi1ELi9EEENS9_ILi1ELi8EEENS9_ILi1ELi5EEENS3_20pin_in_out_ad_pullupILi1ELi4ELi5EEEEEENS_28seven_segments_table_defaultIvEEE4initEv>
 642:	f7ff fe33 	bl	2ac <_ZN5hwcpp12lpc1114_baseILi4096ELi32768ELi48000000EE8timer_644initEv>
 646:	bdf8      	pop	{r3, r4, r5, r6, r7, pc}
 648:	40048004 	.word	0x40048004
 64c:	4004407c 	.word	0x4004407c
 650:	50018000 	.word	0x50018000
 654:	40044080 	.word	0x40044080
 658:	40044074 	.word	0x40044074
 65c:	50008000 	.word	0x50008000
 660:	40044090 	.word	0x40044090
 664:	00000000 	.word	0x00000000

00000668 <main>:
 668:	b5f0      	push	{r4, r5, r6, r7, lr}
 66a:	b085      	sub	sp, #20
 66c:	f7ff ffa8 	bl	5c0 <_ZN5hwcpp5db104ILj48000000EE4initEv>
 670:	f7ff fd62 	bl	138 <_ZN5hwcpp11pin_in_fromINS_12lpc1114_baseILi4096ELi32768ELi48000000EE20pin_in_out_ad_pullupILi1ELi0ELi1EEEvE4initEv>
 674:	f7ff fd7a 	bl	16c <_ZN5hwcpp12pin_out_fromINS_12lpc1114_baseILi4096ELi32768ELi48000000EE17pin_in_out_pullupILi0ELi10EEEvE4initEv>
 678:	a802      	add	r0, sp, #8
 67a:	f7ff fced 	bl	58 <_ZN5hwcpp13timing_waiterINS_12lpc1114_baseILi4096ELi32768ELi48000000EE8timer_64EE3nowEv>
 67e:	9c02      	ldr	r4, [sp, #8]
 680:	9d03      	ldr	r5, [sp, #12]
 682:	20fa      	movs	r0, #250	; 0xfa
 684:	2201      	movs	r2, #1
 686:	00c0      	lsls	r0, r0, #3
 688:	2104      	movs	r1, #4
 68a:	f7ff fd0d 	bl	a8 <_ZN5hwcpp21seven_segment_displayINS_23callback_implementationINS_12lpc1114_baseILi4096ELi32768ELi48000000EE8timer_64ENS_37callback_administration_double_linkedEEENS_6invertINS_18port_out_from_pinsIINS3_17pin_in_out_pullupILi0ELi2EEENS9_ILi0ELi3EEENS3_6pin_ocILi0ELi4EEENSC_ILi0ELi5EEENS9_ILi0ELi6EEENS9_ILi0ELi7EEENS9_ILi0ELi8EEENS9_ILi0ELi9EEEEEEvEENS8_IINS9_ILi1ELi9EEENS9_ILi1ELi8EEENS9_ILi1ELi5EEENS3_20pin_in_out_ad_pullupILi1ELi4ELi5EEEEEENS_28seven_segments_table_defaultIvEEE17set_decimal_valueEjjb>
 68e:	f7ff fe75 	bl	37c <_ZN5hwcpp21seven_segment_displayINS_23callback_implementationINS_12lpc1114_baseILi4096ELi32768ELi48000000EE8timer_64ENS_37callback_administration_double_linkedEEENS_6invertINS_18port_out_from_pinsIINS3_17pin_in_out_pullupILi0ELi2EEENS9_ILi0ELi3EEENS3_6pin_ocILi0ELi4EEENSC_ILi0ELi5EEENS9_ILi0ELi6EEENS9_ILi0ELi7EEENS9_ILi0ELi8EEENS9_ILi0ELi9EEEEEEvEENS8_IINS9_ILi1ELi9EEENS9_ILi1ELi8EEENS9_ILi1ELi5EEENS3_20pin_in_out_ad_pullupILi1ELi4ELi5EEEEEENS_28seven_segments_table_defaultIvEEE3muxEv>
 692:	f7ff fd35 	bl	100 <_ZN5hwcpp20add_timing_templatesINS_37callback_administration_double_linkedINS_21timing_implementationINS_12lpc1114_baseILi4096ELi32768ELi48000000EE8timer_64EEEEEE2nsILy1000000ELy18446744073708551616EE4waitEv>
 696:	4b26      	ldr	r3, [pc, #152]	; (730 <main+0xc8>)
 698:	2200      	movs	r2, #0
 69a:	601a      	str	r2, [r3, #0]
 69c:	4a25      	ldr	r2, [pc, #148]	; (734 <main+0xcc>)
 69e:	2701      	movs	r7, #1
 6a0:	6812      	ldr	r2, [r2, #0]
 6a2:	26fa      	movs	r6, #250	; 0xfa
 6a4:	4397      	bics	r7, r2
 6a6:	9701      	str	r7, [sp, #4]
 6a8:	00f6      	lsls	r6, r6, #3
 6aa:	9b01      	ldr	r3, [sp, #4]
 6ac:	2b00      	cmp	r3, #0
 6ae:	d0e3      	beq.n	678 <main+0x10>
 6b0:	1c30      	adds	r0, r6, #0
 6b2:	2104      	movs	r1, #4
 6b4:	2201      	movs	r2, #1
 6b6:	f7ff fcf7 	bl	a8 <_ZN5hwcpp21seven_segment_displayINS_23callback_implementationINS_12lpc1114_baseILi4096ELi32768ELi48000000EE8timer_64ENS_37callback_administration_double_linkedEEENS_6invertINS_18port_out_from_pinsIINS3_17pin_in_out_pullupILi0ELi2EEENS9_ILi0ELi3EEENS3_6pin_ocILi0ELi4EEENSC_ILi0ELi5EEENS9_ILi0ELi6EEENS9_ILi0ELi7EEENS9_ILi0ELi8EEENS9_ILi0ELi9EEEEEEvEENS8_IINS9_ILi1ELi9EEENS9_ILi1ELi8EEENS9_ILi1ELi5EEENS3_20pin_in_out_ad_pullupILi1ELi4ELi5EEEEEENS_28seven_segments_table_defaultIvEEE17set_decimal_valueEjjb>
 6ba:	2732      	movs	r7, #50	; 0x32
 6bc:	3f01      	subs	r7, #1
 6be:	f7ff fe5d 	bl	37c <_ZN5hwcpp21seven_segment_displayINS_23callback_implementationINS_12lpc1114_baseILi4096ELi32768ELi48000000EE8timer_64ENS_37callback_administration_double_linkedEEENS_6invertINS_18port_out_from_pinsIINS3_17pin_in_out_pullupILi0ELi2EEENS9_ILi0ELi3EEENS3_6pin_ocILi0ELi4EEENSC_ILi0ELi5EEENS9_ILi0ELi6EEENS9_ILi0ELi7EEENS9_ILi0ELi8EEENS9_ILi0ELi9EEEEEEvEENS8_IINS9_ILi1ELi9EEENS9_ILi1ELi8EEENS9_ILi1ELi5EEENS3_20pin_in_out_ad_pullupILi1ELi4ELi5EEEEEENS_28seven_segments_table_defaultIvEEE3muxEv>
 6c2:	f7ff fd1d 	bl	100 <_ZN5hwcpp20add_timing_templatesINS_37callback_administration_double_linkedINS_21timing_implementationINS_12lpc1114_baseILi4096ELi32768ELi48000000EE8timer_64EEEEEE2nsILy1000000ELy18446744073708551616EE4waitEv>
 6c6:	2f00      	cmp	r7, #0
 6c8:	d1f8      	bne.n	6bc <main+0x54>
 6ca:	a802      	add	r0, sp, #8
 6cc:	f7ff fcc4 	bl	58 <_ZN5hwcpp13timing_waiterINS_12lpc1114_baseILi4096ELi32768ELi48000000EE8timer_64EE3nowEv>
 6d0:	9b03      	ldr	r3, [sp, #12]
 6d2:	9a02      	ldr	r2, [sp, #8]
 6d4:	42ab      	cmp	r3, r5
 6d6:	dc02      	bgt.n	6de <main+0x76>
 6d8:	d113      	bne.n	702 <main+0x9a>
 6da:	42a2      	cmp	r2, r4
 6dc:	d911      	bls.n	702 <main+0x9a>
 6de:	3e01      	subs	r6, #1
 6e0:	1c30      	adds	r0, r6, #0
 6e2:	2164      	movs	r1, #100	; 0x64
 6e4:	4b11      	ldr	r3, [pc, #68]	; (72c <main+0xc4>)
 6e6:	4a10      	ldr	r2, [pc, #64]	; (728 <main+0xc0>)
 6e8:	18a4      	adds	r4, r4, r2
 6ea:	415d      	adcs	r5, r3
 6ec:	f000 f8fa 	bl	8e4 <__aeabi_idivmod>
 6f0:	2963      	cmp	r1, #99	; 0x63
 6f2:	d106      	bne.n	702 <main+0x9a>
 6f4:	1c30      	adds	r0, r6, #0
 6f6:	2164      	movs	r1, #100	; 0x64
 6f8:	f000 f89e 	bl	838 <__aeabi_idiv>
 6fc:	2664      	movs	r6, #100	; 0x64
 6fe:	4346      	muls	r6, r0
 700:	363b      	adds	r6, #59	; 0x3b
 702:	2e00      	cmp	r6, #0
 704:	d1d1      	bne.n	6aa <main+0x42>
 706:	2301      	movs	r3, #1
 708:	4a09      	ldr	r2, [pc, #36]	; (730 <main+0xc8>)
 70a:	425b      	negs	r3, r3
 70c:	27fa      	movs	r7, #250	; 0xfa
 70e:	6013      	str	r3, [r2, #0]
 710:	007f      	lsls	r7, r7, #1
 712:	3f01      	subs	r7, #1
 714:	f7ff fe32 	bl	37c <_ZN5hwcpp21seven_segment_displayINS_23callback_implementationINS_12lpc1114_baseILi4096ELi32768ELi48000000EE8timer_64ENS_37callback_administration_double_linkedEEENS_6invertINS_18port_out_from_pinsIINS3_17pin_in_out_pullupILi0ELi2EEENS9_ILi0ELi3EEENS3_6pin_ocILi0ELi4EEENSC_ILi0ELi5EEENS9_ILi0ELi6EEENS9_ILi0ELi7EEENS9_ILi0ELi8EEENS9_ILi0ELi9EEEEEEvEENS8_IINS9_ILi1ELi9EEENS9_ILi1ELi8EEENS9_ILi1ELi5EEENS3_20pin_in_out_ad_pullupILi1ELi4ELi5EEEEEENS_28seven_segments_table_defaultIvEEE3muxEv>
 718:	f7ff fcf2 	bl	100 <_ZN5hwcpp20add_timing_templatesINS_37callback_administration_double_linkedINS_21timing_implementationINS_12lpc1114_baseILi4096ELi32768ELi48000000EE8timer_64EEEEEE2nsILy1000000ELy18446744073708551616EE4waitEv>
 71c:	2f00      	cmp	r7, #0
 71e:	d1f8      	bne.n	712 <main+0xaa>
 720:	9701      	str	r7, [sp, #4]
 722:	e7c2      	b.n	6aa <main+0x42>
 724:	46c0      	nop			; (mov r8, r8)
 726:	46c0      	nop			; (mov r8, r8)
 728:	016e3600 	.word	0x016e3600
 72c:	00000000 	.word	0x00000000
 730:	50001000 	.word	0x50001000
 734:	50013ffc 	.word	0x50013ffc

00000738 <__startup>:
 738:	b510      	push	{r4, lr}
 73a:	4b0f      	ldr	r3, [pc, #60]	; (778 <__startup+0x40>)
 73c:	4a0f      	ldr	r2, [pc, #60]	; (77c <__startup+0x44>)
 73e:	1d19      	adds	r1, r3, #4
 740:	3b04      	subs	r3, #4
 742:	4293      	cmp	r3, r2
 744:	d003      	beq.n	74e <__startup+0x16>
 746:	2200      	movs	r2, #0
 748:	601a      	str	r2, [r3, #0]
 74a:	1c0b      	adds	r3, r1, #0
 74c:	e7f6      	b.n	73c <__startup+0x4>
 74e:	4a0c      	ldr	r2, [pc, #48]	; (780 <__startup+0x48>)
 750:	490c      	ldr	r1, [pc, #48]	; (784 <__startup+0x4c>)
 752:	2300      	movs	r3, #0
 754:	1a89      	subs	r1, r1, r2
 756:	0889      	lsrs	r1, r1, #2
 758:	3101      	adds	r1, #1
 75a:	0089      	lsls	r1, r1, #2
 75c:	3304      	adds	r3, #4
 75e:	428b      	cmp	r3, r1
 760:	d007      	beq.n	772 <__startup+0x3a>
 762:	4c09      	ldr	r4, [pc, #36]	; (788 <__startup+0x50>)
 764:	18d0      	adds	r0, r2, r3
 766:	191c      	adds	r4, r3, r4
 768:	3c04      	subs	r4, #4
 76a:	6824      	ldr	r4, [r4, #0]
 76c:	3804      	subs	r0, #4
 76e:	6004      	str	r4, [r0, #0]
 770:	e7f4      	b.n	75c <__startup+0x24>
 772:	f7ff ff79 	bl	668 <main>
 776:	e7fe      	b.n	776 <__startup+0x3e>
 778:	1000042c 	.word	0x1000042c
 77c:	10000488 	.word	0x10000488
 780:	10000000 	.word	0x10000000
 784:	10000428 	.word	0x10000428
 788:	00000a30 	.word	0x00000a30

0000078c <__aeabi_atexit>:
 78c:	b508      	push	{r3, lr}
 78e:	1c03      	adds	r3, r0, #0
 790:	1c08      	adds	r0, r1, #0
 792:	1c19      	adds	r1, r3, #0
 794:	f000 f8b2 	bl	8fc <__cxa_atexit>
 798:	bd08      	pop	{r3, pc}
 79a:	46c0      	nop			; (mov r8, r8)

0000079c <__aeabi_uidiv>:
 79c:	2900      	cmp	r1, #0
 79e:	d034      	beq.n	80a <.udivsi3_skip_div0_test+0x6a>

000007a0 <.udivsi3_skip_div0_test>:
 7a0:	2301      	movs	r3, #1
 7a2:	2200      	movs	r2, #0
 7a4:	b410      	push	{r4}
 7a6:	4288      	cmp	r0, r1
 7a8:	d32c      	bcc.n	804 <.udivsi3_skip_div0_test+0x64>
 7aa:	2401      	movs	r4, #1
 7ac:	0724      	lsls	r4, r4, #28
 7ae:	42a1      	cmp	r1, r4
 7b0:	d204      	bcs.n	7bc <.udivsi3_skip_div0_test+0x1c>
 7b2:	4281      	cmp	r1, r0
 7b4:	d202      	bcs.n	7bc <.udivsi3_skip_div0_test+0x1c>
 7b6:	0109      	lsls	r1, r1, #4
 7b8:	011b      	lsls	r3, r3, #4
 7ba:	e7f8      	b.n	7ae <.udivsi3_skip_div0_test+0xe>
 7bc:	00e4      	lsls	r4, r4, #3
 7be:	42a1      	cmp	r1, r4
 7c0:	d204      	bcs.n	7cc <.udivsi3_skip_div0_test+0x2c>
 7c2:	4281      	cmp	r1, r0
 7c4:	d202      	bcs.n	7cc <.udivsi3_skip_div0_test+0x2c>
 7c6:	0049      	lsls	r1, r1, #1
 7c8:	005b      	lsls	r3, r3, #1
 7ca:	e7f8      	b.n	7be <.udivsi3_skip_div0_test+0x1e>
 7cc:	4288      	cmp	r0, r1
 7ce:	d301      	bcc.n	7d4 <.udivsi3_skip_div0_test+0x34>
 7d0:	1a40      	subs	r0, r0, r1
 7d2:	431a      	orrs	r2, r3
 7d4:	084c      	lsrs	r4, r1, #1
 7d6:	42a0      	cmp	r0, r4
 7d8:	d302      	bcc.n	7e0 <.udivsi3_skip_div0_test+0x40>
 7da:	1b00      	subs	r0, r0, r4
 7dc:	085c      	lsrs	r4, r3, #1
 7de:	4322      	orrs	r2, r4
 7e0:	088c      	lsrs	r4, r1, #2
 7e2:	42a0      	cmp	r0, r4
 7e4:	d302      	bcc.n	7ec <.udivsi3_skip_div0_test+0x4c>
 7e6:	1b00      	subs	r0, r0, r4
 7e8:	089c      	lsrs	r4, r3, #2
 7ea:	4322      	orrs	r2, r4
 7ec:	08cc      	lsrs	r4, r1, #3
 7ee:	42a0      	cmp	r0, r4
 7f0:	d302      	bcc.n	7f8 <.udivsi3_skip_div0_test+0x58>
 7f2:	1b00      	subs	r0, r0, r4
 7f4:	08dc      	lsrs	r4, r3, #3
 7f6:	4322      	orrs	r2, r4
 7f8:	2800      	cmp	r0, #0
 7fa:	d003      	beq.n	804 <.udivsi3_skip_div0_test+0x64>
 7fc:	091b      	lsrs	r3, r3, #4
 7fe:	d001      	beq.n	804 <.udivsi3_skip_div0_test+0x64>
 800:	0909      	lsrs	r1, r1, #4
 802:	e7e3      	b.n	7cc <.udivsi3_skip_div0_test+0x2c>
 804:	1c10      	adds	r0, r2, #0
 806:	bc10      	pop	{r4}
 808:	4770      	bx	lr
 80a:	2800      	cmp	r0, #0
 80c:	d001      	beq.n	812 <.udivsi3_skip_div0_test+0x72>
 80e:	2000      	movs	r0, #0
 810:	43c0      	mvns	r0, r0
 812:	b407      	push	{r0, r1, r2}
 814:	4802      	ldr	r0, [pc, #8]	; (820 <.udivsi3_skip_div0_test+0x80>)
 816:	a102      	add	r1, pc, #8	; (adr r1, 820 <.udivsi3_skip_div0_test+0x80>)
 818:	1840      	adds	r0, r0, r1
 81a:	9002      	str	r0, [sp, #8]
 81c:	bd03      	pop	{r0, r1, pc}
 81e:	46c0      	nop			; (mov r8, r8)
 820:	000000d9 	.word	0x000000d9

00000824 <__aeabi_uidivmod>:
 824:	2900      	cmp	r1, #0
 826:	d0f0      	beq.n	80a <.udivsi3_skip_div0_test+0x6a>
 828:	b503      	push	{r0, r1, lr}
 82a:	f7ff ffb9 	bl	7a0 <.udivsi3_skip_div0_test>
 82e:	bc0e      	pop	{r1, r2, r3}
 830:	4342      	muls	r2, r0
 832:	1a89      	subs	r1, r1, r2
 834:	4718      	bx	r3
 836:	46c0      	nop			; (mov r8, r8)

00000838 <__aeabi_idiv>:
 838:	2900      	cmp	r1, #0
 83a:	d041      	beq.n	8c0 <.divsi3_skip_div0_test+0x84>

0000083c <.divsi3_skip_div0_test>:
 83c:	b410      	push	{r4}
 83e:	1c04      	adds	r4, r0, #0
 840:	404c      	eors	r4, r1
 842:	46a4      	mov	ip, r4
 844:	2301      	movs	r3, #1
 846:	2200      	movs	r2, #0
 848:	2900      	cmp	r1, #0
 84a:	d500      	bpl.n	84e <.divsi3_skip_div0_test+0x12>
 84c:	4249      	negs	r1, r1
 84e:	2800      	cmp	r0, #0
 850:	d500      	bpl.n	854 <.divsi3_skip_div0_test+0x18>
 852:	4240      	negs	r0, r0
 854:	4288      	cmp	r0, r1
 856:	d32c      	bcc.n	8b2 <.divsi3_skip_div0_test+0x76>
 858:	2401      	movs	r4, #1
 85a:	0724      	lsls	r4, r4, #28
 85c:	42a1      	cmp	r1, r4
 85e:	d204      	bcs.n	86a <.divsi3_skip_div0_test+0x2e>
 860:	4281      	cmp	r1, r0
 862:	d202      	bcs.n	86a <.divsi3_skip_div0_test+0x2e>
 864:	0109      	lsls	r1, r1, #4
 866:	011b      	lsls	r3, r3, #4
 868:	e7f8      	b.n	85c <.divsi3_skip_div0_test+0x20>
 86a:	00e4      	lsls	r4, r4, #3
 86c:	42a1      	cmp	r1, r4
 86e:	d204      	bcs.n	87a <.divsi3_skip_div0_test+0x3e>
 870:	4281      	cmp	r1, r0
 872:	d202      	bcs.n	87a <.divsi3_skip_div0_test+0x3e>
 874:	0049      	lsls	r1, r1, #1
 876:	005b      	lsls	r3, r3, #1
 878:	e7f8      	b.n	86c <.divsi3_skip_div0_test+0x30>
 87a:	4288      	cmp	r0, r1
 87c:	d301      	bcc.n	882 <.divsi3_skip_div0_test+0x46>
 87e:	1a40      	subs	r0, r0, r1
 880:	431a      	orrs	r2, r3
 882:	084c      	lsrs	r4, r1, #1
 884:	42a0      	cmp	r0, r4
 886:	d302      	bcc.n	88e <.divsi3_skip_div0_test+0x52>
 888:	1b00      	subs	r0, r0, r4
 88a:	085c      	lsrs	r4, r3, #1
 88c:	4322      	orrs	r2, r4
 88e:	088c      	lsrs	r4, r1, #2
 890:	42a0      	cmp	r0, r4
 892:	d302      	bcc.n	89a <.divsi3_skip_div0_test+0x5e>
 894:	1b00      	subs	r0, r0, r4
 896:	089c      	lsrs	r4, r3, #2
 898:	4322      	orrs	r2, r4
 89a:	08cc      	lsrs	r4, r1, #3
 89c:	42a0      	cmp	r0, r4
 89e:	d302      	bcc.n	8a6 <.divsi3_skip_div0_test+0x6a>
 8a0:	1b00      	subs	r0, r0, r4
 8a2:	08dc      	lsrs	r4, r3, #3
 8a4:	4322      	orrs	r2, r4
 8a6:	2800      	cmp	r0, #0
 8a8:	d003      	beq.n	8b2 <.divsi3_skip_div0_test+0x76>
 8aa:	091b      	lsrs	r3, r3, #4
 8ac:	d001      	beq.n	8b2 <.divsi3_skip_div0_test+0x76>
 8ae:	0909      	lsrs	r1, r1, #4
 8b0:	e7e3      	b.n	87a <.divsi3_skip_div0_test+0x3e>
 8b2:	1c10      	adds	r0, r2, #0
 8b4:	4664      	mov	r4, ip
 8b6:	2c00      	cmp	r4, #0
 8b8:	d500      	bpl.n	8bc <.divsi3_skip_div0_test+0x80>
 8ba:	4240      	negs	r0, r0
 8bc:	bc10      	pop	{r4}
 8be:	4770      	bx	lr
 8c0:	2800      	cmp	r0, #0
 8c2:	d006      	beq.n	8d2 <.divsi3_skip_div0_test+0x96>
 8c4:	db03      	blt.n	8ce <.divsi3_skip_div0_test+0x92>
 8c6:	2000      	movs	r0, #0
 8c8:	43c0      	mvns	r0, r0
 8ca:	0840      	lsrs	r0, r0, #1
 8cc:	e001      	b.n	8d2 <.divsi3_skip_div0_test+0x96>
 8ce:	2080      	movs	r0, #128	; 0x80
 8d0:	0600      	lsls	r0, r0, #24
 8d2:	b407      	push	{r0, r1, r2}
 8d4:	4802      	ldr	r0, [pc, #8]	; (8e0 <.divsi3_skip_div0_test+0xa4>)
 8d6:	a102      	add	r1, pc, #8	; (adr r1, 8e0 <.divsi3_skip_div0_test+0xa4>)
 8d8:	1840      	adds	r0, r0, r1
 8da:	9002      	str	r0, [sp, #8]
 8dc:	bd03      	pop	{r0, r1, pc}
 8de:	46c0      	nop			; (mov r8, r8)
 8e0:	00000019 	.word	0x00000019

000008e4 <__aeabi_idivmod>:
 8e4:	2900      	cmp	r1, #0
 8e6:	d0eb      	beq.n	8c0 <.divsi3_skip_div0_test+0x84>
 8e8:	b503      	push	{r0, r1, lr}
 8ea:	f7ff ffa7 	bl	83c <.divsi3_skip_div0_test>
 8ee:	bc0e      	pop	{r1, r2, r3}
 8f0:	4342      	muls	r2, r0
 8f2:	1a89      	subs	r1, r1, r2
 8f4:	4718      	bx	r3
 8f6:	46c0      	nop			; (mov r8, r8)

000008f8 <__aeabi_idiv0>:
 8f8:	4770      	bx	lr
 8fa:	46c0      	nop			; (mov r8, r8)

000008fc <__cxa_atexit>:
 8fc:	b538      	push	{r3, r4, r5, lr}
 8fe:	1c05      	adds	r5, r0, #0
 900:	1c0c      	adds	r4, r1, #0
 902:	1c13      	adds	r3, r2, #0
 904:	1c29      	adds	r1, r5, #0
 906:	1c22      	adds	r2, r4, #0
 908:	2002      	movs	r0, #2
 90a:	f000 f801 	bl	910 <__register_exitproc>
 90e:	bd38      	pop	{r3, r4, r5, pc}

00000910 <__register_exitproc>:
 910:	b5f0      	push	{r4, r5, r6, r7, lr}
 912:	464f      	mov	r7, r9
 914:	4646      	mov	r6, r8
 916:	b4c0      	push	{r6, r7}
 918:	4698      	mov	r8, r3
 91a:	4b2b      	ldr	r3, [pc, #172]	; (9c8 <__register_exitproc+0xb8>)
 91c:	25a4      	movs	r5, #164	; 0xa4
 91e:	681b      	ldr	r3, [r3, #0]
 920:	006d      	lsls	r5, r5, #1
 922:	595c      	ldr	r4, [r3, r5]
 924:	b083      	sub	sp, #12
 926:	1c06      	adds	r6, r0, #0
 928:	1c0f      	adds	r7, r1, #0
 92a:	4691      	mov	r9, r2
 92c:	9301      	str	r3, [sp, #4]
 92e:	2c00      	cmp	r4, #0
 930:	d044      	beq.n	9bc <__register_exitproc+0xac>
 932:	6865      	ldr	r5, [r4, #4]
 934:	2d1f      	cmp	r5, #31
 936:	dd1a      	ble.n	96e <__register_exitproc+0x5e>
 938:	4b24      	ldr	r3, [pc, #144]	; (9cc <__register_exitproc+0xbc>)
 93a:	2b00      	cmp	r3, #0
 93c:	d102      	bne.n	944 <__register_exitproc+0x34>
 93e:	2001      	movs	r0, #1
 940:	4240      	negs	r0, r0
 942:	e01c      	b.n	97e <__register_exitproc+0x6e>
 944:	20c8      	movs	r0, #200	; 0xc8
 946:	0040      	lsls	r0, r0, #1
 948:	e000      	b.n	94c <__register_exitproc+0x3c>
 94a:	bf00      	nop
 94c:	1e04      	subs	r4, r0, #0
 94e:	d0f6      	beq.n	93e <__register_exitproc+0x2e>
 950:	2500      	movs	r5, #0
 952:	6045      	str	r5, [r0, #4]
 954:	23a4      	movs	r3, #164	; 0xa4
 956:	9801      	ldr	r0, [sp, #4]
 958:	005b      	lsls	r3, r3, #1
 95a:	58c0      	ldr	r0, [r0, r3]
 95c:	9901      	ldr	r1, [sp, #4]
 95e:	6020      	str	r0, [r4, #0]
 960:	50cc      	str	r4, [r1, r3]
 962:	23c4      	movs	r3, #196	; 0xc4
 964:	005b      	lsls	r3, r3, #1
 966:	50e5      	str	r5, [r4, r3]
 968:	23c6      	movs	r3, #198	; 0xc6
 96a:	005b      	lsls	r3, r3, #1
 96c:	50e5      	str	r5, [r4, r3]
 96e:	2e00      	cmp	r6, #0
 970:	d10a      	bne.n	988 <__register_exitproc+0x78>
 972:	1c6b      	adds	r3, r5, #1
 974:	3502      	adds	r5, #2
 976:	00ad      	lsls	r5, r5, #2
 978:	6063      	str	r3, [r4, #4]
 97a:	2000      	movs	r0, #0
 97c:	512f      	str	r7, [r5, r4]
 97e:	b003      	add	sp, #12
 980:	bc0c      	pop	{r2, r3}
 982:	4690      	mov	r8, r2
 984:	4699      	mov	r9, r3
 986:	bdf0      	pop	{r4, r5, r6, r7, pc}
 988:	00ab      	lsls	r3, r5, #2
 98a:	18e3      	adds	r3, r4, r3
 98c:	2288      	movs	r2, #136	; 0x88
 98e:	4648      	mov	r0, r9
 990:	5098      	str	r0, [r3, r2]
 992:	20c4      	movs	r0, #196	; 0xc4
 994:	0040      	lsls	r0, r0, #1
 996:	1822      	adds	r2, r4, r0
 998:	6810      	ldr	r0, [r2, #0]
 99a:	2101      	movs	r1, #1
 99c:	40a9      	lsls	r1, r5
 99e:	4308      	orrs	r0, r1
 9a0:	6010      	str	r0, [r2, #0]
 9a2:	2284      	movs	r2, #132	; 0x84
 9a4:	0052      	lsls	r2, r2, #1
 9a6:	4640      	mov	r0, r8
 9a8:	5098      	str	r0, [r3, r2]
 9aa:	2e02      	cmp	r6, #2
 9ac:	d1e1      	bne.n	972 <__register_exitproc+0x62>
 9ae:	22c6      	movs	r2, #198	; 0xc6
 9b0:	0052      	lsls	r2, r2, #1
 9b2:	18a3      	adds	r3, r4, r2
 9b4:	6818      	ldr	r0, [r3, #0]
 9b6:	4301      	orrs	r1, r0
 9b8:	6019      	str	r1, [r3, #0]
 9ba:	e7da      	b.n	972 <__register_exitproc+0x62>
 9bc:	1c1c      	adds	r4, r3, #0
 9be:	344d      	adds	r4, #77	; 0x4d
 9c0:	34ff      	adds	r4, #255	; 0xff
 9c2:	515c      	str	r4, [r3, r5]
 9c4:	e7b5      	b.n	932 <__register_exitproc+0x22>
 9c6:	46c0      	nop			; (mov r8, r8)
 9c8:	00000a24 	.word	0x00000a24
 9cc:	00000000 	.word	0x00000000

000009d0 <_ZN5hwcpp28seven_segments_table_defaultIvE9translateE>:
 9d0:	4f5b063f 077d6d66 7c776f7f 71795e39     ?.[Ofm}..ow|9^yq

000009e0 <_ZTVN5hwcpp37callback_administration_double_linkedINS_21timing_implementationINS_12lpc1114_baseILi4096ELi32768ELi48000000EE8timer_64EEEE5_nodeE>:
	...
 9e8:	0000003d 00000000                       =.......

000009f0 <_ZTVN5hwcpp37callback_administration_double_linkedINS_21timing_implementationINS_12lpc1114_baseILi4096ELi32768ELi48000000EE8timer_64EEEE4nodeE>:
	...
 9f8:	0000003d 0000003b                       =...;...

00000a00 <_ZTVN5hwcpp37callback_administration_double_linkedINS_21timing_implementationINS_12lpc1114_baseILi4096ELi32768ELi48000000EE8timer_64EEEE5clockIvvEE>:
	...
 a08:	00000021 0000003b                       !...;...

00000a10 <_ZTVN5hwcpp21seven_segment_displayINS_23callback_implementationINS_12lpc1114_baseILi4096ELi32768ELi48000000EE8timer_64ENS_37callback_administration_double_linkedEEENS_6invertINS_18port_out_from_pinsIINS3_17pin_in_out_pullupILi0ELi2EEENS9_ILi0ELi3EEENS3_6pin_ocILi0ELi4EEENSC_ILi0ELi5EEENS9_ILi0ELi6EEENS9_ILi0ELi7EEENS9_ILi0ELi8EEENS9_ILi0ELi9EEEEEEvEENS8_IINS9_ILi1ELi9EEENS9_ILi1ELi8EEENS9_ILi1ELi5EEENS3_20pin_in_out_ad_pullupILi1ELi4ELi5EEEEEENS_28seven_segments_table_defaultIvEEE12multiplexingE>:
	...
 a18:	00000021 000003b5 00000043              !.......C...

00000a24 <_global_impure_ptr>:
 a24:	10000000                                ....
