	.cpu cortex-m0
	.fpu softvfp
	.eabi_attribute 20, 1
	.eabi_attribute 21, 1
	.eabi_attribute 23, 3
	.eabi_attribute 24, 1
	.eabi_attribute 25, 1
	.eabi_attribute 26, 1
	.eabi_attribute 30, 4
	.eabi_attribute 34, 0
	.eabi_attribute 18, 4
	.code	16
	.file	"main.cpp"
	.section	.text._ZNSt7ostream6fillerEi,"axG",%progbits,_ZNSt7ostream6fillerEi,comdat
	.align	1
	.weak	_ZNSt7ostream6fillerEi
	.code	16
	.thumb_func
	.type	_ZNSt7ostream6fillerEi, %function
_ZNSt7ostream6fillerEi:
	push	{r3, r4, r5, lr}
	mov	r5, r0
	mov	r4, r1
.L2:
	cmp	r4, #0
	ble	.L9
	ldr	r3, [r5, #16]
	ldrb	r0, [r5, #8]
	cmp	r3, #0
	beq	.L3
	blx	r3
.L3:
	sub	r4, r4, #1
	b	.L2
.L9:
	@ sp needed
	pop	{r3, r4, r5, pc}
	.size	_ZNSt7ostream6fillerEi, .-_ZNSt7ostream6fillerEi
	.section	.text._ZStlsRSt7ostreamPKc,"axG",%progbits,_ZStlsRSt7ostreamPKc,comdat
	.align	1
	.weak	_ZStlsRSt7ostreamPKc
	.code	16
	.thumb_func
	.type	_ZStlsRSt7ostreamPKc, %function
_ZStlsRSt7ostreamPKc:
	push	{r4, r5, r6, lr}
	ldrb	r3, [r0, #10]
	mov	r4, r0
	mov	r5, r1
	cmp	r3, #0
	beq	.L11
	ldr	r1, [r0]
	mov	r3, r5
.L12:
	ldrb	r0, [r3]
	sub	r2, r3, r5
	cmp	r0, #0
	beq	.L26
	add	r3, r3, #1
	b	.L12
.L26:
	sub	r1, r1, r2
	mov	r0, r4
	bl	_ZNSt7ostream6fillerEi
.L11:
	mov	r6, r5
.L14:
	ldrb	r0, [r6]
	cmp	r0, #0
	beq	.L27
	ldr	r3, [r4, #16]
	cmp	r3, #0
	beq	.L15
	blx	r3
.L15:
	add	r6, r6, #1
	b	.L14
.L27:
	ldrb	r3, [r4, #10]
	cmp	r3, #0
	bne	.L17
	ldr	r1, [r4]
	mov	r3, r5
.L18:
	ldrb	r0, [r3]
	sub	r2, r3, r5
	cmp	r0, #0
	beq	.L28
	add	r3, r3, #1
	b	.L18
.L28:
	sub	r1, r1, r2
	mov	r0, r4
	bl	_ZNSt7ostream6fillerEi
.L17:
	mov	r3, #0
	mov	r0, r4
	str	r3, [r4]
	@ sp needed
	pop	{r4, r5, r6, pc}
	.size	_ZStlsRSt7ostreamPKc, .-_ZStlsRSt7ostreamPKc
	.section	.text._ZN5hwcpp13timing_waiterINS_12lpc1114_baseILi4096ELi32768ELi48000000EE8timer_64EE3nowEv,"axG",%progbits,_ZN5hwcpp13timing_waiterINS_12lpc1114_baseILi4096ELi32768ELi48000000EE8timer_64EE3nowEv,comdat
	.align	1
	.weak	_ZN5hwcpp13timing_waiterINS_12lpc1114_baseILi4096ELi32768ELi48000000EE8timer_64EE3nowEv
	.code	16
	.thumb_func
	.type	_ZN5hwcpp13timing_waiterINS_12lpc1114_baseILi4096ELi32768ELi48000000EE8timer_64EE3nowEv, %function
_ZN5hwcpp13timing_waiterINS_12lpc1114_baseILi4096ELi32768ELi48000000EE8timer_64EE3nowEv:
	ldr	r3, .L31+8
	push	{r4, r5, r6, r7, lr}
	ldr	r4, [r3, #8]
	ldr	r3, .L31+12
	mvn	r4, r4
	ldr	r2, [r3]
	lsl	r4, r4, #8
	lsr	r4, r4, #8
	mov	r5, r3
	ldr	r1, .L31+16
	cmp	r4, r2
	bcs	.L30
	ldr	r6, [r1]
	ldr	r7, [r1, #4]
	ldr	r3, .L31+4
	ldr	r2, .L31
	add	r2, r2, r6
	adc	r3, r3, r7
	str	r2, [r1]
	str	r3, [r1, #4]
.L30:
	ldr	r7, [r1]
	ldr	r1, [r1, #4]
	str	r4, [r5]
	orr	r4, r7
	str	r4, [r0]
	str	r1, [r0, #4]
	@ sp needed
	pop	{r4, r5, r6, r7, pc}
.L32:
	.align	3
.L31:
	.word	16777216
	.word	0
	.word	-536813552
	.word	_ZZN5hwcpp12lpc1114_baseILi4096ELi32768ELi48000000EE8timer_643nowEvE8last_low
	.word	_ZZN5hwcpp12lpc1114_baseILi4096ELi32768ELi48000000EE8timer_643nowEvE4high
	.size	_ZN5hwcpp13timing_waiterINS_12lpc1114_baseILi4096ELi32768ELi48000000EE8timer_64EE3nowEv, .-_ZN5hwcpp13timing_waiterINS_12lpc1114_baseILi4096ELi32768ELi48000000EE8timer_64EE3nowEv
	.section	.text._ZN5hwcpp8uart_outINS_12lpc1114_baseILi4096ELi32768ELi48000000EE17pin_in_out_pullupILi1ELi7EEENS_21timing_implementationINS2_8timer_64EEELj38400EE4sendERNS_15moment_durationIxLx24EE6momentEb,"axG",%progbits,_ZN5hwcpp8uart_outINS_12lpc1114_baseILi4096ELi32768ELi48000000EE17pin_in_out_pullupILi1ELi7EEENS_21timing_implementationINS2_8timer_64EEELj38400EE4sendERNS_15moment_durationIxLx24EE6momentEb,comdat
	.align	1
	.weak	_ZN5hwcpp8uart_outINS_12lpc1114_baseILi4096ELi32768ELi48000000EE17pin_in_out_pullupILi1ELi7EEENS_21timing_implementationINS2_8timer_64EEELj38400EE4sendERNS_15moment_durationIxLx24EE6momentEb
	.code	16
	.thumb_func
	.type	_ZN5hwcpp8uart_outINS_12lpc1114_baseILi4096ELi32768ELi48000000EE17pin_in_out_pullupILi1ELi7EEENS_21timing_implementationINS2_8timer_64EEELj38400EE4sendERNS_15moment_durationIxLx24EE6momentEb, %function
_ZN5hwcpp8uart_outINS_12lpc1114_baseILi4096ELi32768ELi48000000EE17pin_in_out_pullupILi1ELi7EEENS_21timing_implementationINS2_8timer_64EEELj38400EE4sendERNS_15moment_durationIxLx24EE6momentEb:
	ldr	r3, .L38+8
	push	{r0, r1, r2, r4, r5, lr}
	ldr	r5, .L38+4
	ldr	r4, .L38
	neg	r1, r1
	str	r1, [r3]
	ldr	r2, [r0]
	ldr	r3, [r0, #4]
	add	r4, r4, r2
	adc	r5, r5, r3
	str	r4, [r0]
	str	r5, [r0, #4]
.L36:
	mov	r0, sp
	bl	_ZN5hwcpp13timing_waiterINS_12lpc1114_baseILi4096ELi32768ELi48000000EE8timer_64EE3nowEv
	ldr	r3, [sp, #4]
	ldr	r2, [sp]
	cmp	r5, r3
	bgt	.L36
	bne	.L33
	cmp	r4, r2
	bhi	.L36
.L33:
	@ sp needed
	pop	{r0, r1, r2, r4, r5, pc}
.L39:
	.align	3
.L38:
	.word	624
	.word	0
	.word	1342243328
	.size	_ZN5hwcpp8uart_outINS_12lpc1114_baseILi4096ELi32768ELi48000000EE17pin_in_out_pullupILi1ELi7EEENS_21timing_implementationINS2_8timer_64EEELj38400EE4sendERNS_15moment_durationIxLx24EE6momentEb, .-_ZN5hwcpp8uart_outINS_12lpc1114_baseILi4096ELi32768ELi48000000EE17pin_in_out_pullupILi1ELi7EEENS_21timing_implementationINS2_8timer_64EEELj38400EE4sendERNS_15moment_durationIxLx24EE6momentEb
	.section	.text._ZN5hwcpp8uart_outINS_12lpc1114_baseILi4096ELi32768ELi48000000EE17pin_in_out_pullupILi1ELi7EEENS_21timing_implementationINS2_8timer_64EEELj38400EE3putEc,"axG",%progbits,_ZN5hwcpp8uart_outINS_12lpc1114_baseILi4096ELi32768ELi48000000EE17pin_in_out_pullupILi1ELi7EEENS_21timing_implementationINS2_8timer_64EEELj38400EE3putEc,comdat
	.align	1
	.weak	_ZN5hwcpp8uart_outINS_12lpc1114_baseILi4096ELi32768ELi48000000EE17pin_in_out_pullupILi1ELi7EEENS_21timing_implementationINS2_8timer_64EEELj38400EE3putEc
	.code	16
	.thumb_func
	.type	_ZN5hwcpp8uart_outINS_12lpc1114_baseILi4096ELi32768ELi48000000EE17pin_in_out_pullupILi1ELi7EEENS_21timing_implementationINS2_8timer_64EEELj38400EE3putEc, %function
_ZN5hwcpp8uart_outINS_12lpc1114_baseILi4096ELi32768ELi48000000EE17pin_in_out_pullupILi1ELi7EEENS_21timing_implementationINS2_8timer_64EEELj38400EE3putEc:
	push	{r0, r1, r4, r5, r6, lr}
	mov	r6, r0
	mov	r0, sp
	bl	_ZN5hwcpp13timing_waiterINS_12lpc1114_baseILi4096ELi32768ELi48000000EE8timer_64EE3nowEv
	mov	r0, sp
	mov	r1, #0
	bl	_ZN5hwcpp8uart_outINS_12lpc1114_baseILi4096ELi32768ELi48000000EE17pin_in_out_pullupILi1ELi7EEENS_21timing_implementationINS2_8timer_64EEELj38400EE4sendERNS_15moment_durationIxLx24EE6momentEb
	mov	r5, #8
.L42:
	mov	r4, #1
	mov	r1, r6
	and	r1, r4
	mov	r0, sp
	sub	r5, r5, #1
	bl	_ZN5hwcpp8uart_outINS_12lpc1114_baseILi4096ELi32768ELi48000000EE17pin_in_out_pullupILi1ELi7EEENS_21timing_implementationINS2_8timer_64EEELj38400EE4sendERNS_15moment_durationIxLx24EE6momentEb
	lsr	r6, r6, r4
	cmp	r5, #0
	bne	.L42
	mov	r0, sp
	mov	r1, r4
	bl	_ZN5hwcpp8uart_outINS_12lpc1114_baseILi4096ELi32768ELi48000000EE17pin_in_out_pullupILi1ELi7EEENS_21timing_implementationINS2_8timer_64EEELj38400EE4sendERNS_15moment_durationIxLx24EE6momentEb
	mov	r0, sp
	mov	r1, r4
	bl	_ZN5hwcpp8uart_outINS_12lpc1114_baseILi4096ELi32768ELi48000000EE17pin_in_out_pullupILi1ELi7EEENS_21timing_implementationINS2_8timer_64EEELj38400EE4sendERNS_15moment_durationIxLx24EE6momentEb
	@ sp needed
	pop	{r0, r1, r4, r5, r6, pc}
	.size	_ZN5hwcpp8uart_outINS_12lpc1114_baseILi4096ELi32768ELi48000000EE17pin_in_out_pullupILi1ELi7EEENS_21timing_implementationINS2_8timer_64EEELj38400EE3putEc, .-_ZN5hwcpp8uart_outINS_12lpc1114_baseILi4096ELi32768ELi48000000EE17pin_in_out_pullupILi1ELi7EEENS_21timing_implementationINS2_8timer_64EEELj38400EE3putEc
	.section	.text._ZN5hwcpp12lpc1114_baseILi4096ELi32768ELi48000000EE16initialize_clockEv,"axG",%progbits,_ZN5hwcpp12lpc1114_baseILi4096ELi32768ELi48000000EE16initialize_clockEv,comdat
	.align	1
	.weak	_ZN5hwcpp12lpc1114_baseILi4096ELi32768ELi48000000EE16initialize_clockEv
	.code	16
	.thumb_func
	.type	_ZN5hwcpp12lpc1114_baseILi4096ELi32768ELi48000000EE16initialize_clockEv, %function
_ZN5hwcpp12lpc1114_baseILi4096ELi32768ELi48000000EE16initialize_clockEv:
	ldr	r3, .L47
	ldrb	r2, [r3]
	cmp	r2, #0
	bne	.L43
	mov	r2, #1
	strb	r2, [r3]
	ldr	r3, .L47+4
	mov	r2, #142
	lsl	r2, r2, #2
	ldr	r0, [r3, r2]
	mov	r1, #128
	orr	r0, r1
	str	r0, [r3, r2]
	mov	r0, #35
	str	r0, [r3, #8]
	ldr	r0, [r3, r2]
	bic	r0, r1
	str	r0, [r3, r2]
.L46:
	ldr	r0, [r3, #12]
	mov	r1, #1
	ldr	r2, .L47+4
	tst	r0, r1
	beq	.L46
	mov	r3, #3
	str	r3, [r2, #112]
	ldr	r3, [r2, #116]
	bic	r3, r1
	str	r3, [r2, #116]
	ldr	r3, [r2, #116]
	orr	r1, r3
	str	r1, [r2, #116]
.L43:
	@ sp needed
	bx	lr
.L48:
	.align	2
.L47:
	.word	_ZZN5hwcpp12lpc1114_baseILi4096ELi32768ELi48000000EE16initialize_clockEvE4done
	.word	1074036736
	.size	_ZN5hwcpp12lpc1114_baseILi4096ELi32768ELi48000000EE16initialize_clockEv, .-_ZN5hwcpp12lpc1114_baseILi4096ELi32768ELi48000000EE16initialize_clockEv
	.section	.text._ZN5hwcpp12lpc1114_baseILi4096ELi32768ELi48000000EE8timer_644initEv,"axG",%progbits,_ZN5hwcpp12lpc1114_baseILi4096ELi32768ELi48000000EE8timer_644initEv,comdat
	.align	1
	.weak	_ZN5hwcpp12lpc1114_baseILi4096ELi32768ELi48000000EE8timer_644initEv
	.code	16
	.thumb_func
	.type	_ZN5hwcpp12lpc1114_baseILi4096ELi32768ELi48000000EE8timer_644initEv, %function
_ZN5hwcpp12lpc1114_baseILi4096ELi32768ELi48000000EE8timer_644initEv:
	push	{r3, lr}
	bl	_ZN5hwcpp12lpc1114_baseILi4096ELi32768ELi48000000EE16initialize_clockEv
	ldr	r3, .L50
	ldr	r1, .L50+4
	mov	r2, #0
	str	r2, [r3]
	str	r1, [r3, #4]
	str	r2, [r3, #8]
	mov	r2, #1
	str	r2, [r3]
	@ sp needed
	pop	{r3, pc}
.L51:
	.align	2
.L50:
	.word	-536813552
	.word	16777215
	.size	_ZN5hwcpp12lpc1114_baseILi4096ELi32768ELi48000000EE8timer_644initEv, .-_ZN5hwcpp12lpc1114_baseILi4096ELi32768ELi48000000EE8timer_644initEv
	.section	.text.startup.main,"ax",%progbits
	.align	1
	.global	main
	.code	16
	.thumb_func
	.type	main, %function
main:
	push	{r3, r4, r5, lr}
	ldr	r3, .L53
	mov	r2, #128
	ldr	r1, [r3, #124]
	lsl	r2, r2, #9
	orr	r2, r1
	str	r2, [r3, #124]
	ldr	r3, .L53+4
	mov	r1, #7
	ldr	r2, [r3]
	@ sp needed
	bic	r2, r1
	str	r2, [r3]
	ldr	r3, .L53+8
	mov	r1, #128
	ldr	r2, [r3]
	orr	r2, r1
	str	r2, [r3]
	ldr	r3, .L53+12
	mov	r2, #1
	neg	r2, r2
	str	r2, [r3]
	bl	_ZN5hwcpp12lpc1114_baseILi4096ELi32768ELi48000000EE8timer_644initEv
	ldr	r3, .L53+16
	ldr	r4, .L53+20
	ldr	r1, .L53+24
	str	r3, [r4, #16]
	mov	r0, r4
	bl	_ZStlsRSt7ostreamPKc
	ldr	r5, .L53+28
	mov	r1, r5
	bl	_ZStlsRSt7ostreamPKc
	ldr	r1, .L53+32
	bl	_ZStlsRSt7ostreamPKc
	bl	_ZN5hwcpp12lpc1114_baseILi4096ELi32768ELi48000000EE8timer_644initEv
	mov	r0, r4
	ldr	r1, .L53+36
	bl	_ZStlsRSt7ostreamPKc
	mov	r1, r5
	bl	_ZStlsRSt7ostreamPKc
	ldr	r1, .L53+40
	bl	_ZStlsRSt7ostreamPKc
	mov	r0, #0
	pop	{r3, r4, r5, pc}
.L54:
	.align	2
.L53:
	.word	1074036740
	.word	1074020520
	.word	1342275584
	.word	1342243328
	.word	_ZN5hwcpp8uart_outINS_12lpc1114_baseILi4096ELi32768ELi48000000EE17pin_in_out_pullupILi1ELi7EEENS_21timing_implementationINS2_8timer_64EEELj38400EE3putEc
	.word	_ZSt4cout
	.word	.LC8
	.word	.LC10
	.word	.LC12
	.word	.LC14
	.word	.LC16
	.size	main, .-main
	.weak	_ZZN5hwcpp12lpc1114_baseILi4096ELi32768ELi48000000EE16initialize_clockEvE4done
	.section	.bss._ZZN5hwcpp12lpc1114_baseILi4096ELi32768ELi48000000EE16initialize_clockEvE4done,"awG",%nobits,_ZZN5hwcpp12lpc1114_baseILi4096ELi32768ELi48000000EE16initialize_clockEvE4done,comdat
	.type	_ZZN5hwcpp12lpc1114_baseILi4096ELi32768ELi48000000EE16initialize_clockEvE4done, %object
	.size	_ZZN5hwcpp12lpc1114_baseILi4096ELi32768ELi48000000EE16initialize_clockEvE4done, 1
_ZZN5hwcpp12lpc1114_baseILi4096ELi32768ELi48000000EE16initialize_clockEvE4done:
	.space	1
	.weak	_ZZN5hwcpp12lpc1114_baseILi4096ELi32768ELi48000000EE8timer_643nowEvE4high
	.section	.bss._ZZN5hwcpp12lpc1114_baseILi4096ELi32768ELi48000000EE8timer_643nowEvE4high,"awG",%nobits,_ZZN5hwcpp12lpc1114_baseILi4096ELi32768ELi48000000EE8timer_643nowEvE4high,comdat
	.align	3
	.type	_ZZN5hwcpp12lpc1114_baseILi4096ELi32768ELi48000000EE8timer_643nowEvE4high, %object
	.size	_ZZN5hwcpp12lpc1114_baseILi4096ELi32768ELi48000000EE8timer_643nowEvE4high, 8
_ZZN5hwcpp12lpc1114_baseILi4096ELi32768ELi48000000EE8timer_643nowEvE4high:
	.space	8
	.weak	_ZZN5hwcpp12lpc1114_baseILi4096ELi32768ELi48000000EE8timer_643nowEvE8last_low
	.section	.bss._ZZN5hwcpp12lpc1114_baseILi4096ELi32768ELi48000000EE8timer_643nowEvE8last_low,"awG",%nobits,_ZZN5hwcpp12lpc1114_baseILi4096ELi32768ELi48000000EE8timer_643nowEvE8last_low,comdat
	.align	2
	.type	_ZZN5hwcpp12lpc1114_baseILi4096ELi32768ELi48000000EE8timer_643nowEvE8last_low, %object
	.size	_ZZN5hwcpp12lpc1114_baseILi4096ELi32768ELi48000000EE8timer_643nowEvE8last_low, 4
_ZZN5hwcpp12lpc1114_baseILi4096ELi32768ELi48000000EE8timer_643nowEvE8last_low:
	.space	4
	.weak	_ZSt4cout
	.section	.rodata.str1.1,"aMS",%progbits,1
.LC8:
	.ascii	"\012main.cpp:7 \000"
.LC10:
	.ascii	" \000"
.LC12:
	.ascii	"Hello world\000"
.LC14:
	.ascii	"\012main.cpp:9 \000"
.LC16:
	.ascii	"timing initialized\000"
	.section	.data._ZSt4cout,"aw",%progbits
	.align	2
	.type	_ZSt4cout, %object
	.size	_ZSt4cout, 20
_ZSt4cout:
	.word	0
	.word	10
	.byte	32
	.byte	65
	.byte	1
	.byte	0
	.byte	0
	.byte	0
	.space	2
	.word	0
	.ident	"GCC: (GNU Tools for ARM Embedded Processors) 4.8.3 20131129 (release) [ARM/embedded-4_8-branch revision 205641]"
