
main.elf:     file format elf32-littlearm


Disassembly of section .text:

00000000 <__text_start>:
   0:	10000430 	.word	0x10000430
   4:	00000261 	.word	0x00000261
	...

00000020 <_ZNSt7ostream6fillerEi>:
  20:	b538      	push	{r3, r4, r5, lr}
  22:	1c05      	adds	r5, r0, #0
  24:	1c0c      	adds	r4, r1, #0
  26:	2c00      	cmp	r4, #0
  28:	dd06      	ble.n	38 <_ZNSt7ostream6fillerEi+0x18>
  2a:	692b      	ldr	r3, [r5, #16]
  2c:	7a28      	ldrb	r0, [r5, #8]
  2e:	2b00      	cmp	r3, #0
  30:	d000      	beq.n	34 <_ZNSt7ostream6fillerEi+0x14>
  32:	4798      	blx	r3
  34:	3c01      	subs	r4, #1
  36:	e7f6      	b.n	26 <_ZNSt7ostream6fillerEi+0x6>
  38:	bd38      	pop	{r3, r4, r5, pc}

0000003a <_ZStlsRSt7ostreamPKc>:
  3a:	b570      	push	{r4, r5, r6, lr}
  3c:	7a83      	ldrb	r3, [r0, #10]
  3e:	1c04      	adds	r4, r0, #0
  40:	1c0d      	adds	r5, r1, #0
  42:	2b00      	cmp	r3, #0
  44:	d00b      	beq.n	5e <_ZStlsRSt7ostreamPKc+0x24>
  46:	6801      	ldr	r1, [r0, #0]
  48:	1c2b      	adds	r3, r5, #0
  4a:	7818      	ldrb	r0, [r3, #0]
  4c:	1b5a      	subs	r2, r3, r5
  4e:	2800      	cmp	r0, #0
  50:	d001      	beq.n	56 <_ZStlsRSt7ostreamPKc+0x1c>
  52:	3301      	adds	r3, #1
  54:	e7f9      	b.n	4a <_ZStlsRSt7ostreamPKc+0x10>
  56:	1a89      	subs	r1, r1, r2
  58:	1c20      	adds	r0, r4, #0
  5a:	f7ff ffe1 	bl	20 <_ZNSt7ostream6fillerEi>
  5e:	1c2e      	adds	r6, r5, #0
  60:	7830      	ldrb	r0, [r6, #0]
  62:	2800      	cmp	r0, #0
  64:	d005      	beq.n	72 <_ZStlsRSt7ostreamPKc+0x38>
  66:	6923      	ldr	r3, [r4, #16]
  68:	2b00      	cmp	r3, #0
  6a:	d000      	beq.n	6e <_ZStlsRSt7ostreamPKc+0x34>
  6c:	4798      	blx	r3
  6e:	3601      	adds	r6, #1
  70:	e7f6      	b.n	60 <_ZStlsRSt7ostreamPKc+0x26>
  72:	7aa3      	ldrb	r3, [r4, #10]
  74:	2b00      	cmp	r3, #0
  76:	d10b      	bne.n	90 <_ZStlsRSt7ostreamPKc+0x56>
  78:	6821      	ldr	r1, [r4, #0]
  7a:	1c2b      	adds	r3, r5, #0
  7c:	7818      	ldrb	r0, [r3, #0]
  7e:	1b5a      	subs	r2, r3, r5
  80:	2800      	cmp	r0, #0
  82:	d001      	beq.n	88 <_ZStlsRSt7ostreamPKc+0x4e>
  84:	3301      	adds	r3, #1
  86:	e7f9      	b.n	7c <_ZStlsRSt7ostreamPKc+0x42>
  88:	1a89      	subs	r1, r1, r2
  8a:	1c20      	adds	r0, r4, #0
  8c:	f7ff ffc8 	bl	20 <_ZNSt7ostream6fillerEi>
  90:	2300      	movs	r3, #0
  92:	1c20      	adds	r0, r4, #0
  94:	6023      	str	r3, [r4, #0]
  96:	bd70      	pop	{r4, r5, r6, pc}

00000098 <_ZN5hwcpp13timing_waiterINS_12lpc1114_baseILi4096ELi32768ELi48000000EE8timer_64EE3nowEv>:
  98:	4b0f      	ldr	r3, [pc, #60]	; (d8 <_ZN5hwcpp13timing_waiterINS_12lpc1114_baseILi4096ELi32768ELi48000000EE8timer_64EE3nowEv+0x40>)
  9a:	b5f0      	push	{r4, r5, r6, r7, lr}
  9c:	689c      	ldr	r4, [r3, #8]
  9e:	4b0f      	ldr	r3, [pc, #60]	; (dc <_ZN5hwcpp13timing_waiterINS_12lpc1114_baseILi4096ELi32768ELi48000000EE8timer_64EE3nowEv+0x44>)
  a0:	43e4      	mvns	r4, r4
  a2:	681a      	ldr	r2, [r3, #0]
  a4:	0224      	lsls	r4, r4, #8
  a6:	0a24      	lsrs	r4, r4, #8
  a8:	1c1d      	adds	r5, r3, #0
  aa:	490d      	ldr	r1, [pc, #52]	; (e0 <_ZN5hwcpp13timing_waiterINS_12lpc1114_baseILi4096ELi32768ELi48000000EE8timer_64EE3nowEv+0x48>)
  ac:	4294      	cmp	r4, r2
  ae:	d207      	bcs.n	c0 <_ZN5hwcpp13timing_waiterINS_12lpc1114_baseILi4096ELi32768ELi48000000EE8timer_64EE3nowEv+0x28>
  b0:	680e      	ldr	r6, [r1, #0]
  b2:	684f      	ldr	r7, [r1, #4]
  b4:	4b07      	ldr	r3, [pc, #28]	; (d4 <_ZN5hwcpp13timing_waiterINS_12lpc1114_baseILi4096ELi32768ELi48000000EE8timer_64EE3nowEv+0x3c>)
  b6:	4a06      	ldr	r2, [pc, #24]	; (d0 <_ZN5hwcpp13timing_waiterINS_12lpc1114_baseILi4096ELi32768ELi48000000EE8timer_64EE3nowEv+0x38>)
  b8:	1992      	adds	r2, r2, r6
  ba:	417b      	adcs	r3, r7
  bc:	600a      	str	r2, [r1, #0]
  be:	604b      	str	r3, [r1, #4]
  c0:	680f      	ldr	r7, [r1, #0]
  c2:	6849      	ldr	r1, [r1, #4]
  c4:	602c      	str	r4, [r5, #0]
  c6:	433c      	orrs	r4, r7
  c8:	6004      	str	r4, [r0, #0]
  ca:	6041      	str	r1, [r0, #4]
  cc:	bdf0      	pop	{r4, r5, r6, r7, pc}
  ce:	46c0      	nop			; (mov r8, r8)
  d0:	01000000 	.word	0x01000000
  d4:	00000000 	.word	0x00000000
  d8:	e000e010 	.word	0xe000e010
  dc:	10000028 	.word	0x10000028
  e0:	10000020 	.word	0x10000020
  e4:	46c0      	nop			; (mov r8, r8)
  e6:	46c0      	nop			; (mov r8, r8)

000000e8 <_ZN5hwcpp8uart_outINS_12lpc1114_baseILi4096ELi32768ELi48000000EE17pin_in_out_pullupILi1ELi7EEENS_21timing_implementationINS2_8timer_64EEELj38400EE4sendERNS_15moment_durationIxLx24EE6momentEb>:
  e8:	4b0d      	ldr	r3, [pc, #52]	; (120 <_ZN5hwcpp8uart_outINS_12lpc1114_baseILi4096ELi32768ELi48000000EE17pin_in_out_pullupILi1ELi7EEENS_21timing_implementationINS2_8timer_64EEELj38400EE4sendERNS_15moment_durationIxLx24EE6momentEb+0x38>)
  ea:	b537      	push	{r0, r1, r2, r4, r5, lr}
  ec:	4d0b      	ldr	r5, [pc, #44]	; (11c <_ZN5hwcpp8uart_outINS_12lpc1114_baseILi4096ELi32768ELi48000000EE17pin_in_out_pullupILi1ELi7EEENS_21timing_implementationINS2_8timer_64EEELj38400EE4sendERNS_15moment_durationIxLx24EE6momentEb+0x34>)
  ee:	4c0a      	ldr	r4, [pc, #40]	; (118 <_ZN5hwcpp8uart_outINS_12lpc1114_baseILi4096ELi32768ELi48000000EE17pin_in_out_pullupILi1ELi7EEENS_21timing_implementationINS2_8timer_64EEELj38400EE4sendERNS_15moment_durationIxLx24EE6momentEb+0x30>)
  f0:	4249      	negs	r1, r1
  f2:	6019      	str	r1, [r3, #0]
  f4:	6802      	ldr	r2, [r0, #0]
  f6:	6843      	ldr	r3, [r0, #4]
  f8:	18a4      	adds	r4, r4, r2
  fa:	415d      	adcs	r5, r3
  fc:	6004      	str	r4, [r0, #0]
  fe:	6045      	str	r5, [r0, #4]
 100:	4668      	mov	r0, sp
 102:	f7ff ffc9 	bl	98 <_ZN5hwcpp13timing_waiterINS_12lpc1114_baseILi4096ELi32768ELi48000000EE8timer_64EE3nowEv>
 106:	9b01      	ldr	r3, [sp, #4]
 108:	9a00      	ldr	r2, [sp, #0]
 10a:	429d      	cmp	r5, r3
 10c:	dcf8      	bgt.n	100 <_ZN5hwcpp8uart_outINS_12lpc1114_baseILi4096ELi32768ELi48000000EE17pin_in_out_pullupILi1ELi7EEENS_21timing_implementationINS2_8timer_64EEELj38400EE4sendERNS_15moment_durationIxLx24EE6momentEb+0x18>
 10e:	d101      	bne.n	114 <_ZN5hwcpp8uart_outINS_12lpc1114_baseILi4096ELi32768ELi48000000EE17pin_in_out_pullupILi1ELi7EEENS_21timing_implementationINS2_8timer_64EEELj38400EE4sendERNS_15moment_durationIxLx24EE6momentEb+0x2c>
 110:	4294      	cmp	r4, r2
 112:	d8f5      	bhi.n	100 <_ZN5hwcpp8uart_outINS_12lpc1114_baseILi4096ELi32768ELi48000000EE17pin_in_out_pullupILi1ELi7EEENS_21timing_implementationINS2_8timer_64EEELj38400EE4sendERNS_15moment_durationIxLx24EE6momentEb+0x18>
 114:	bd37      	pop	{r0, r1, r2, r4, r5, pc}
 116:	46c0      	nop			; (mov r8, r8)
 118:	00000270 	.word	0x00000270
 11c:	00000000 	.word	0x00000000
 120:	50010200 	.word	0x50010200
 124:	46c0      	nop			; (mov r8, r8)
 126:	46c0      	nop			; (mov r8, r8)

00000128 <_ZN5hwcpp8uart_outINS_12lpc1114_baseILi4096ELi32768ELi48000000EE17pin_in_out_pullupILi1ELi7EEENS_21timing_implementationINS2_8timer_64EEELj38400EE3putEc>:
 128:	b573      	push	{r0, r1, r4, r5, r6, lr}
 12a:	1c06      	adds	r6, r0, #0
 12c:	4668      	mov	r0, sp
 12e:	f7ff ffb3 	bl	98 <_ZN5hwcpp13timing_waiterINS_12lpc1114_baseILi4096ELi32768ELi48000000EE8timer_64EE3nowEv>
 132:	4668      	mov	r0, sp
 134:	2100      	movs	r1, #0
 136:	f7ff ffd7 	bl	e8 <_ZN5hwcpp8uart_outINS_12lpc1114_baseILi4096ELi32768ELi48000000EE17pin_in_out_pullupILi1ELi7EEENS_21timing_implementationINS2_8timer_64EEELj38400EE4sendERNS_15moment_durationIxLx24EE6momentEb>
 13a:	2508      	movs	r5, #8
 13c:	2401      	movs	r4, #1
 13e:	1c31      	adds	r1, r6, #0
 140:	4021      	ands	r1, r4
 142:	4668      	mov	r0, sp
 144:	3d01      	subs	r5, #1
 146:	f7ff ffcf 	bl	e8 <_ZN5hwcpp8uart_outINS_12lpc1114_baseILi4096ELi32768ELi48000000EE17pin_in_out_pullupILi1ELi7EEENS_21timing_implementationINS2_8timer_64EEELj38400EE4sendERNS_15moment_durationIxLx24EE6momentEb>
 14a:	40e6      	lsrs	r6, r4
 14c:	2d00      	cmp	r5, #0
 14e:	d1f5      	bne.n	13c <_ZN5hwcpp8uart_outINS_12lpc1114_baseILi4096ELi32768ELi48000000EE17pin_in_out_pullupILi1ELi7EEENS_21timing_implementationINS2_8timer_64EEELj38400EE3putEc+0x14>
 150:	4668      	mov	r0, sp
 152:	1c21      	adds	r1, r4, #0
 154:	f7ff ffc8 	bl	e8 <_ZN5hwcpp8uart_outINS_12lpc1114_baseILi4096ELi32768ELi48000000EE17pin_in_out_pullupILi1ELi7EEENS_21timing_implementationINS2_8timer_64EEELj38400EE4sendERNS_15moment_durationIxLx24EE6momentEb>
 158:	4668      	mov	r0, sp
 15a:	1c21      	adds	r1, r4, #0
 15c:	f7ff ffc4 	bl	e8 <_ZN5hwcpp8uart_outINS_12lpc1114_baseILi4096ELi32768ELi48000000EE17pin_in_out_pullupILi1ELi7EEENS_21timing_implementationINS2_8timer_64EEELj38400EE4sendERNS_15moment_durationIxLx24EE6momentEb>
 160:	bd73      	pop	{r0, r1, r4, r5, r6, pc}
	...

00000164 <_ZN5hwcpp12lpc1114_baseILi4096ELi32768ELi48000000EE16initialize_clockEv>:
 164:	4b0f      	ldr	r3, [pc, #60]	; (1a4 <_ZN5hwcpp12lpc1114_baseILi4096ELi32768ELi48000000EE16initialize_clockEv+0x40>)
 166:	781a      	ldrb	r2, [r3, #0]
 168:	2a00      	cmp	r2, #0
 16a:	d11a      	bne.n	1a2 <_ZN5hwcpp12lpc1114_baseILi4096ELi32768ELi48000000EE16initialize_clockEv+0x3e>
 16c:	2201      	movs	r2, #1
 16e:	701a      	strb	r2, [r3, #0]
 170:	4b0d      	ldr	r3, [pc, #52]	; (1a8 <_ZN5hwcpp12lpc1114_baseILi4096ELi32768ELi48000000EE16initialize_clockEv+0x44>)
 172:	228e      	movs	r2, #142	; 0x8e
 174:	0092      	lsls	r2, r2, #2
 176:	5898      	ldr	r0, [r3, r2]
 178:	2180      	movs	r1, #128	; 0x80
 17a:	4308      	orrs	r0, r1
 17c:	5098      	str	r0, [r3, r2]
 17e:	2023      	movs	r0, #35	; 0x23
 180:	6098      	str	r0, [r3, #8]
 182:	5898      	ldr	r0, [r3, r2]
 184:	4388      	bics	r0, r1
 186:	5098      	str	r0, [r3, r2]
 188:	68d8      	ldr	r0, [r3, #12]
 18a:	2101      	movs	r1, #1
 18c:	4a06      	ldr	r2, [pc, #24]	; (1a8 <_ZN5hwcpp12lpc1114_baseILi4096ELi32768ELi48000000EE16initialize_clockEv+0x44>)
 18e:	4208      	tst	r0, r1
 190:	d0fa      	beq.n	188 <_ZN5hwcpp12lpc1114_baseILi4096ELi32768ELi48000000EE16initialize_clockEv+0x24>
 192:	2303      	movs	r3, #3
 194:	6713      	str	r3, [r2, #112]	; 0x70
 196:	6f53      	ldr	r3, [r2, #116]	; 0x74
 198:	438b      	bics	r3, r1
 19a:	6753      	str	r3, [r2, #116]	; 0x74
 19c:	6f53      	ldr	r3, [r2, #116]	; 0x74
 19e:	4319      	orrs	r1, r3
 1a0:	6751      	str	r1, [r2, #116]	; 0x74
 1a2:	4770      	bx	lr
 1a4:	10000018 	.word	0x10000018
 1a8:	40048000 	.word	0x40048000

000001ac <_ZN5hwcpp12lpc1114_baseILi4096ELi32768ELi48000000EE8timer_644initEv>:
 1ac:	b508      	push	{r3, lr}
 1ae:	f7ff ffd9 	bl	164 <_ZN5hwcpp12lpc1114_baseILi4096ELi32768ELi48000000EE16initialize_clockEv>
 1b2:	4b04      	ldr	r3, [pc, #16]	; (1c4 <_ZN5hwcpp12lpc1114_baseILi4096ELi32768ELi48000000EE8timer_644initEv+0x18>)
 1b4:	4904      	ldr	r1, [pc, #16]	; (1c8 <_ZN5hwcpp12lpc1114_baseILi4096ELi32768ELi48000000EE8timer_644initEv+0x1c>)
 1b6:	2200      	movs	r2, #0
 1b8:	601a      	str	r2, [r3, #0]
 1ba:	6059      	str	r1, [r3, #4]
 1bc:	609a      	str	r2, [r3, #8]
 1be:	2201      	movs	r2, #1
 1c0:	601a      	str	r2, [r3, #0]
 1c2:	bd08      	pop	{r3, pc}
 1c4:	e000e010 	.word	0xe000e010
 1c8:	00ffffff 	.word	0x00ffffff

000001cc <main>:
 1cc:	b538      	push	{r3, r4, r5, lr}
 1ce:	4b19      	ldr	r3, [pc, #100]	; (234 <main+0x68>)
 1d0:	2280      	movs	r2, #128	; 0x80
 1d2:	6fd9      	ldr	r1, [r3, #124]	; 0x7c
 1d4:	0252      	lsls	r2, r2, #9
 1d6:	430a      	orrs	r2, r1
 1d8:	67da      	str	r2, [r3, #124]	; 0x7c
 1da:	4b17      	ldr	r3, [pc, #92]	; (238 <main+0x6c>)
 1dc:	2107      	movs	r1, #7
 1de:	681a      	ldr	r2, [r3, #0]
 1e0:	438a      	bics	r2, r1
 1e2:	601a      	str	r2, [r3, #0]
 1e4:	4b15      	ldr	r3, [pc, #84]	; (23c <main+0x70>)
 1e6:	2180      	movs	r1, #128	; 0x80
 1e8:	681a      	ldr	r2, [r3, #0]
 1ea:	430a      	orrs	r2, r1
 1ec:	601a      	str	r2, [r3, #0]
 1ee:	4b14      	ldr	r3, [pc, #80]	; (240 <main+0x74>)
 1f0:	2201      	movs	r2, #1
 1f2:	4252      	negs	r2, r2
 1f4:	601a      	str	r2, [r3, #0]
 1f6:	f7ff ffd9 	bl	1ac <_ZN5hwcpp12lpc1114_baseILi4096ELi32768ELi48000000EE8timer_644initEv>
 1fa:	4b12      	ldr	r3, [pc, #72]	; (244 <main+0x78>)
 1fc:	4c12      	ldr	r4, [pc, #72]	; (248 <main+0x7c>)
 1fe:	4913      	ldr	r1, [pc, #76]	; (24c <main+0x80>)
 200:	6123      	str	r3, [r4, #16]
 202:	1c20      	adds	r0, r4, #0
 204:	f7ff ff19 	bl	3a <_ZStlsRSt7ostreamPKc>
 208:	4d11      	ldr	r5, [pc, #68]	; (250 <main+0x84>)
 20a:	1c29      	adds	r1, r5, #0
 20c:	f7ff ff15 	bl	3a <_ZStlsRSt7ostreamPKc>
 210:	4910      	ldr	r1, [pc, #64]	; (254 <main+0x88>)
 212:	f7ff ff12 	bl	3a <_ZStlsRSt7ostreamPKc>
 216:	f7ff ffc9 	bl	1ac <_ZN5hwcpp12lpc1114_baseILi4096ELi32768ELi48000000EE8timer_644initEv>
 21a:	1c20      	adds	r0, r4, #0
 21c:	490e      	ldr	r1, [pc, #56]	; (258 <main+0x8c>)
 21e:	f7ff ff0c 	bl	3a <_ZStlsRSt7ostreamPKc>
 222:	1c29      	adds	r1, r5, #0
 224:	f7ff ff09 	bl	3a <_ZStlsRSt7ostreamPKc>
 228:	490c      	ldr	r1, [pc, #48]	; (25c <main+0x90>)
 22a:	f7ff ff06 	bl	3a <_ZStlsRSt7ostreamPKc>
 22e:	2000      	movs	r0, #0
 230:	bd38      	pop	{r3, r4, r5, pc}
 232:	46c0      	nop			; (mov r8, r8)
 234:	40048004 	.word	0x40048004
 238:	400440a8 	.word	0x400440a8
 23c:	50018000 	.word	0x50018000
 240:	50010200 	.word	0x50010200
 244:	00000129 	.word	0x00000129
 248:	10000000 	.word	0x10000000
 24c:	000002b4 	.word	0x000002b4
 250:	000002bf 	.word	0x000002bf
 254:	000002c1 	.word	0x000002c1
 258:	000002cd 	.word	0x000002cd
 25c:	000002da 	.word	0x000002da

00000260 <__startup>:
 260:	b510      	push	{r4, lr}
 262:	4b0f      	ldr	r3, [pc, #60]	; (2a0 <__startup+0x40>)
 264:	4a0f      	ldr	r2, [pc, #60]	; (2a4 <__startup+0x44>)
 266:	1d19      	adds	r1, r3, #4
 268:	3b04      	subs	r3, #4
 26a:	4293      	cmp	r3, r2
 26c:	d003      	beq.n	276 <__startup+0x16>
 26e:	2200      	movs	r2, #0
 270:	601a      	str	r2, [r3, #0]
 272:	1c0b      	adds	r3, r1, #0
 274:	e7f6      	b.n	264 <__startup+0x4>
 276:	4a0c      	ldr	r2, [pc, #48]	; (2a8 <__startup+0x48>)
 278:	490c      	ldr	r1, [pc, #48]	; (2ac <__startup+0x4c>)
 27a:	2300      	movs	r3, #0
 27c:	1a89      	subs	r1, r1, r2
 27e:	0889      	lsrs	r1, r1, #2
 280:	3101      	adds	r1, #1
 282:	0089      	lsls	r1, r1, #2
 284:	3304      	adds	r3, #4
 286:	428b      	cmp	r3, r1
 288:	d007      	beq.n	29a <__startup+0x3a>
 28a:	4c09      	ldr	r4, [pc, #36]	; (2b0 <__startup+0x50>)
 28c:	18d0      	adds	r0, r2, r3
 28e:	191c      	adds	r4, r3, r4
 290:	3c04      	subs	r4, #4
 292:	6824      	ldr	r4, [r4, #0]
 294:	3804      	subs	r0, #4
 296:	6004      	str	r4, [r0, #0]
 298:	e7f4      	b.n	284 <__startup+0x24>
 29a:	f7ff ff97 	bl	1cc <main>
 29e:	e7fe      	b.n	29e <__startup+0x3e>
 2a0:	1000001c 	.word	0x1000001c
 2a4:	1000002c 	.word	0x1000002c
 2a8:	10000000 	.word	0x10000000
 2ac:	10000014 	.word	0x10000014
 2b0:	000002f0 	.word	0x000002f0
 2b4:	69616d0a 	.word	0x69616d0a
 2b8:	70632e6e 	.word	0x70632e6e
 2bc:	20373a70 	.word	0x20373a70
 2c0:	6c654800 	.word	0x6c654800
 2c4:	77206f6c 	.word	0x77206f6c
 2c8:	646c726f 	.word	0x646c726f
 2cc:	616d0a00 	.word	0x616d0a00
 2d0:	632e6e69 	.word	0x632e6e69
 2d4:	393a7070 	.word	0x393a7070
 2d8:	69740020 	.word	0x69740020
 2dc:	676e696d 	.word	0x676e696d
 2e0:	696e6920 	.word	0x696e6920
 2e4:	6c616974 	.word	0x6c616974
 2e8:	64657a69 	.word	0x64657a69
 2ec:	00000000 	.word	0x00000000
