
main.elf:     file format elf32-littlearm


Disassembly of section .text:

00000000 <__text_start>:
   0:	10000410 	.word	0x10000410
   4:	000003b1 	.word	0x000003b1
	...

00000020 <_ZN5hwcpp13timing_waiterINS_12lpc1114_baseILi4096ELi32768ELi12000000EE8timer_64EE3nowEv>:
  20:	4b0f      	ldr	r3, [pc, #60]	; (60 <_ZN5hwcpp13timing_waiterINS_12lpc1114_baseILi4096ELi32768ELi12000000EE8timer_64EE3nowEv+0x40>)
  22:	b5f0      	push	{r4, r5, r6, r7, lr}
  24:	689c      	ldr	r4, [r3, #8]
  26:	4b0f      	ldr	r3, [pc, #60]	; (64 <_ZN5hwcpp13timing_waiterINS_12lpc1114_baseILi4096ELi32768ELi12000000EE8timer_64EE3nowEv+0x44>)
  28:	43e4      	mvns	r4, r4
  2a:	681a      	ldr	r2, [r3, #0]
  2c:	0224      	lsls	r4, r4, #8
  2e:	0a24      	lsrs	r4, r4, #8
  30:	1c1d      	adds	r5, r3, #0
  32:	490d      	ldr	r1, [pc, #52]	; (68 <_ZN5hwcpp13timing_waiterINS_12lpc1114_baseILi4096ELi32768ELi12000000EE8timer_64EE3nowEv+0x48>)
  34:	4294      	cmp	r4, r2
  36:	d207      	bcs.n	48 <_ZN5hwcpp13timing_waiterINS_12lpc1114_baseILi4096ELi32768ELi12000000EE8timer_64EE3nowEv+0x28>
  38:	680e      	ldr	r6, [r1, #0]
  3a:	684f      	ldr	r7, [r1, #4]
  3c:	4b07      	ldr	r3, [pc, #28]	; (5c <_ZN5hwcpp13timing_waiterINS_12lpc1114_baseILi4096ELi32768ELi12000000EE8timer_64EE3nowEv+0x3c>)
  3e:	4a06      	ldr	r2, [pc, #24]	; (58 <_ZN5hwcpp13timing_waiterINS_12lpc1114_baseILi4096ELi32768ELi12000000EE8timer_64EE3nowEv+0x38>)
  40:	1992      	adds	r2, r2, r6
  42:	417b      	adcs	r3, r7
  44:	600a      	str	r2, [r1, #0]
  46:	604b      	str	r3, [r1, #4]
  48:	680f      	ldr	r7, [r1, #0]
  4a:	6849      	ldr	r1, [r1, #4]
  4c:	602c      	str	r4, [r5, #0]
  4e:	433c      	orrs	r4, r7
  50:	6004      	str	r4, [r0, #0]
  52:	6041      	str	r1, [r0, #4]
  54:	bdf0      	pop	{r4, r5, r6, r7, pc}
  56:	46c0      	nop			; (mov r8, r8)
  58:	01000000 	.word	0x01000000
  5c:	00000000 	.word	0x00000000
  60:	e000e010 	.word	0xe000e010
  64:	10000008 	.word	0x10000008
  68:	10000000 	.word	0x10000000
  6c:	46c0      	nop			; (mov r8, r8)
  6e:	46c0      	nop			; (mov r8, r8)

00000070 <_ZN5hwcpp13timing_waiterINS_12lpc1114_baseILi4096ELi32768ELi12000000EE8timer_64EE4waitENS_15moment_durationIxLx6EE8durationE>:
  70:	b537      	push	{r0, r1, r2, r4, r5, lr}
  72:	1c04      	adds	r4, r0, #0
  74:	1c0d      	adds	r5, r1, #0
  76:	4668      	mov	r0, sp
  78:	f7ff ffd2 	bl	20 <_ZN5hwcpp13timing_waiterINS_12lpc1114_baseILi4096ELi32768ELi12000000EE8timer_64EE3nowEv>
  7c:	9a00      	ldr	r2, [sp, #0]
  7e:	9b01      	ldr	r3, [sp, #4]
  80:	18a4      	adds	r4, r4, r2
  82:	415d      	adcs	r5, r3
  84:	4668      	mov	r0, sp
  86:	f7ff ffcb 	bl	20 <_ZN5hwcpp13timing_waiterINS_12lpc1114_baseILi4096ELi32768ELi12000000EE8timer_64EE3nowEv>
  8a:	9b01      	ldr	r3, [sp, #4]
  8c:	9a00      	ldr	r2, [sp, #0]
  8e:	429d      	cmp	r5, r3
  90:	dcf8      	bgt.n	84 <_ZN5hwcpp13timing_waiterINS_12lpc1114_baseILi4096ELi32768ELi12000000EE8timer_64EE4waitENS_15moment_durationIxLx6EE8durationE+0x14>
  92:	d101      	bne.n	98 <_ZN5hwcpp13timing_waiterINS_12lpc1114_baseILi4096ELi32768ELi12000000EE8timer_64EE4waitENS_15moment_durationIxLx6EE8durationE+0x28>
  94:	4294      	cmp	r4, r2
  96:	d8f5      	bhi.n	84 <_ZN5hwcpp13timing_waiterINS_12lpc1114_baseILi4096ELi32768ELi12000000EE8timer_64EE4waitENS_15moment_durationIxLx6EE8durationE+0x14>
  98:	bd37      	pop	{r0, r1, r2, r4, r5, pc}
	...

0000009c <_ZN5hwcpp18port_out_from_pinsIINS_12lpc1114_baseILi4096ELi32768ELi12000000EE20pin_in_out_ad_pullupILi1ELi3ELi4EEENS3_ILi1ELi4ELi5EEENS2_17pin_in_out_pullupILi1ELi5EEENS6_ILi1ELi8EEENS6_ILi1ELi9EEEEE3setEj>:
  9c:	2301      	movs	r3, #1
  9e:	1c01      	adds	r1, r0, #0
  a0:	4019      	ands	r1, r3
  a2:	4a0c      	ldr	r2, [pc, #48]	; (d4 <_ZN5hwcpp18port_out_from_pinsIINS_12lpc1114_baseILi4096ELi32768ELi12000000EE20pin_in_out_ad_pullupILi1ELi3ELi4EEENS3_ILi1ELi4ELi5EEENS2_17pin_in_out_pullupILi1ELi5EEENS6_ILi1ELi8EEENS6_ILi1ELi9EEEEE3setEj+0x38>)
  a4:	4249      	negs	r1, r1
  a6:	6011      	str	r1, [r2, #0]
  a8:	0841      	lsrs	r1, r0, #1
  aa:	4019      	ands	r1, r3
  ac:	4a0a      	ldr	r2, [pc, #40]	; (d8 <_ZN5hwcpp18port_out_from_pinsIINS_12lpc1114_baseILi4096ELi32768ELi12000000EE20pin_in_out_ad_pullupILi1ELi3ELi4EEENS3_ILi1ELi4ELi5EEENS2_17pin_in_out_pullupILi1ELi5EEENS6_ILi1ELi8EEENS6_ILi1ELi9EEEEE3setEj+0x3c>)
  ae:	4249      	negs	r1, r1
  b0:	6011      	str	r1, [r2, #0]
  b2:	0881      	lsrs	r1, r0, #2
  b4:	4019      	ands	r1, r3
  b6:	4a09      	ldr	r2, [pc, #36]	; (dc <_ZN5hwcpp18port_out_from_pinsIINS_12lpc1114_baseILi4096ELi32768ELi12000000EE20pin_in_out_ad_pullupILi1ELi3ELi4EEENS3_ILi1ELi4ELi5EEENS2_17pin_in_out_pullupILi1ELi5EEENS6_ILi1ELi8EEENS6_ILi1ELi9EEEEE3setEj+0x40>)
  b8:	4249      	negs	r1, r1
  ba:	6011      	str	r1, [r2, #0]
  bc:	08c1      	lsrs	r1, r0, #3
  be:	4019      	ands	r1, r3
  c0:	4a07      	ldr	r2, [pc, #28]	; (e0 <_ZN5hwcpp18port_out_from_pinsIINS_12lpc1114_baseILi4096ELi32768ELi12000000EE20pin_in_out_ad_pullupILi1ELi3ELi4EEENS3_ILi1ELi4ELi5EEENS2_17pin_in_out_pullupILi1ELi5EEENS6_ILi1ELi8EEENS6_ILi1ELi9EEEEE3setEj+0x44>)
  c2:	4249      	negs	r1, r1
  c4:	0900      	lsrs	r0, r0, #4
  c6:	6011      	str	r1, [r2, #0]
  c8:	4003      	ands	r3, r0
  ca:	4a06      	ldr	r2, [pc, #24]	; (e4 <_ZN5hwcpp18port_out_from_pinsIINS_12lpc1114_baseILi4096ELi32768ELi12000000EE20pin_in_out_ad_pullupILi1ELi3ELi4EEENS3_ILi1ELi4ELi5EEENS2_17pin_in_out_pullupILi1ELi5EEENS6_ILi1ELi8EEENS6_ILi1ELi9EEEEE3setEj+0x48>)
  cc:	425b      	negs	r3, r3
  ce:	6013      	str	r3, [r2, #0]
  d0:	4770      	bx	lr
  d2:	46c0      	nop			; (mov r8, r8)
  d4:	50010020 	.word	0x50010020
  d8:	50010040 	.word	0x50010040
  dc:	50010080 	.word	0x50010080
  e0:	50010400 	.word	0x50010400
  e4:	50010800 	.word	0x50010800

000000e8 <_ZN5hwcpp18port_out_from_pinsIINS_12lpc1114_baseILi4096ELi32768ELi12000000EE17pin_in_out_pullupILi0ELi6EEENS3_ILi0ELi7EEENS2_20pin_in_out_ad_pullupILi1ELi0ELi1EEENS6_ILi1ELi1ELi2EEENS6_ILi1ELi2ELi3EEENS6_ILi1ELi3ELi4EEENS6_ILi1ELi4ELi5EEENS3_ILi1ELi5EEENS3_ILi1ELi8EEENS3_ILi1ELi9EEEEE3setEj>:
  e8:	b508      	push	{r3, lr}
  ea:	1c01      	adds	r1, r0, #0
  ec:	2301      	movs	r3, #1
  ee:	4019      	ands	r1, r3
  f0:	4a0d      	ldr	r2, [pc, #52]	; (128 <_ZN5hwcpp18port_out_from_pinsIINS_12lpc1114_baseILi4096ELi32768ELi12000000EE17pin_in_out_pullupILi0ELi6EEENS3_ILi0ELi7EEENS2_20pin_in_out_ad_pullupILi1ELi0ELi1EEENS6_ILi1ELi1ELi2EEENS6_ILi1ELi2ELi3EEENS6_ILi1ELi3ELi4EEENS6_ILi1ELi4ELi5EEENS3_ILi1ELi5EEENS3_ILi1ELi8EEENS3_ILi1ELi9EEEEE3setEj+0x40>)
  f2:	4249      	negs	r1, r1
  f4:	6011      	str	r1, [r2, #0]
  f6:	0841      	lsrs	r1, r0, #1
  f8:	4019      	ands	r1, r3
  fa:	4a0c      	ldr	r2, [pc, #48]	; (12c <_ZN5hwcpp18port_out_from_pinsIINS_12lpc1114_baseILi4096ELi32768ELi12000000EE17pin_in_out_pullupILi0ELi6EEENS3_ILi0ELi7EEENS2_20pin_in_out_ad_pullupILi1ELi0ELi1EEENS6_ILi1ELi1ELi2EEENS6_ILi1ELi2ELi3EEENS6_ILi1ELi3ELi4EEENS6_ILi1ELi4ELi5EEENS3_ILi1ELi5EEENS3_ILi1ELi8EEENS3_ILi1ELi9EEEEE3setEj+0x44>)
  fc:	4249      	negs	r1, r1
  fe:	6011      	str	r1, [r2, #0]
 100:	0881      	lsrs	r1, r0, #2
 102:	4019      	ands	r1, r3
 104:	4a0a      	ldr	r2, [pc, #40]	; (130 <_ZN5hwcpp18port_out_from_pinsIINS_12lpc1114_baseILi4096ELi32768ELi12000000EE17pin_in_out_pullupILi0ELi6EEENS3_ILi0ELi7EEENS2_20pin_in_out_ad_pullupILi1ELi0ELi1EEENS6_ILi1ELi1ELi2EEENS6_ILi1ELi2ELi3EEENS6_ILi1ELi3ELi4EEENS6_ILi1ELi4ELi5EEENS3_ILi1ELi5EEENS3_ILi1ELi8EEENS3_ILi1ELi9EEEEE3setEj+0x48>)
 106:	4249      	negs	r1, r1
 108:	6011      	str	r1, [r2, #0]
 10a:	08c1      	lsrs	r1, r0, #3
 10c:	4019      	ands	r1, r3
 10e:	4a09      	ldr	r2, [pc, #36]	; (134 <_ZN5hwcpp18port_out_from_pinsIINS_12lpc1114_baseILi4096ELi32768ELi12000000EE17pin_in_out_pullupILi0ELi6EEENS3_ILi0ELi7EEENS2_20pin_in_out_ad_pullupILi1ELi0ELi1EEENS6_ILi1ELi1ELi2EEENS6_ILi1ELi2ELi3EEENS6_ILi1ELi3ELi4EEENS6_ILi1ELi4ELi5EEENS3_ILi1ELi5EEENS3_ILi1ELi8EEENS3_ILi1ELi9EEEEE3setEj+0x4c>)
 110:	4249      	negs	r1, r1
 112:	6011      	str	r1, [r2, #0]
 114:	0902      	lsrs	r2, r0, #4
 116:	4013      	ands	r3, r2
 118:	4a07      	ldr	r2, [pc, #28]	; (138 <_ZN5hwcpp18port_out_from_pinsIINS_12lpc1114_baseILi4096ELi32768ELi12000000EE17pin_in_out_pullupILi0ELi6EEENS3_ILi0ELi7EEENS2_20pin_in_out_ad_pullupILi1ELi0ELi1EEENS6_ILi1ELi1ELi2EEENS6_ILi1ELi2ELi3EEENS6_ILi1ELi3ELi4EEENS6_ILi1ELi4ELi5EEENS3_ILi1ELi5EEENS3_ILi1ELi8EEENS3_ILi1ELi9EEEEE3setEj+0x50>)
 11a:	425b      	negs	r3, r3
 11c:	6013      	str	r3, [r2, #0]
 11e:	0940      	lsrs	r0, r0, #5
 120:	f7ff ffbc 	bl	9c <_ZN5hwcpp18port_out_from_pinsIINS_12lpc1114_baseILi4096ELi32768ELi12000000EE20pin_in_out_ad_pullupILi1ELi3ELi4EEENS3_ILi1ELi4ELi5EEENS2_17pin_in_out_pullupILi1ELi5EEENS6_ILi1ELi8EEENS6_ILi1ELi9EEEEE3setEj>
 124:	bd08      	pop	{r3, pc}
 126:	46c0      	nop			; (mov r8, r8)
 128:	50000100 	.word	0x50000100
 12c:	50000200 	.word	0x50000200
 130:	50010004 	.word	0x50010004
 134:	50010008 	.word	0x50010008
 138:	50010010 	.word	0x50010010

0000013c <_ZN5hwcpp18port_out_from_pinsIINS_12lpc1114_baseILi4096ELi32768ELi12000000EE6pin_ocILi0ELi4EEENS3_ILi0ELi5EEENS2_17pin_in_out_pullupILi0ELi6EEENS6_ILi0ELi7EEENS2_20pin_in_out_ad_pullupILi1ELi0ELi1EEENS9_ILi1ELi1ELi2EEENS9_ILi1ELi2ELi3EEENS9_ILi1ELi3ELi4EEENS9_ILi1ELi4ELi5EEENS6_ILi1ELi5EEENS6_ILi1ELi8EEENS6_ILi1ELi9EEEEE3setEj>:
 13c:	2201      	movs	r2, #1
 13e:	b510      	push	{r4, lr}
 140:	4002      	ands	r2, r0
 142:	4b0f      	ldr	r3, [pc, #60]	; (180 <_ZN5hwcpp18port_out_from_pinsIINS_12lpc1114_baseILi4096ELi32768ELi12000000EE6pin_ocILi0ELi4EEENS3_ILi0ELi5EEENS2_17pin_in_out_pullupILi0ELi6EEENS6_ILi0ELi7EEENS2_20pin_in_out_ad_pullupILi1ELi0ELi1EEENS9_ILi1ELi1ELi2EEENS9_ILi1ELi2ELi3EEENS9_ILi1ELi3ELi4EEENS9_ILi1ELi4ELi5EEENS6_ILi1ELi5EEENS6_ILi1ELi8EEENS6_ILi1ELi9EEEEE3setEj+0x44>)
 144:	2110      	movs	r1, #16
 146:	2a00      	cmp	r2, #0
 148:	d003      	beq.n	152 <_ZN5hwcpp18port_out_from_pinsIINS_12lpc1114_baseILi4096ELi32768ELi12000000EE6pin_ocILi0ELi4EEENS3_ILi0ELi5EEENS2_17pin_in_out_pullupILi0ELi6EEENS6_ILi0ELi7EEENS2_20pin_in_out_ad_pullupILi1ELi0ELi1EEENS9_ILi1ELi1ELi2EEENS9_ILi1ELi2ELi3EEENS9_ILi1ELi3ELi4EEENS9_ILi1ELi4ELi5EEENS6_ILi1ELi5EEENS6_ILi1ELi8EEENS6_ILi1ELi9EEEEE3setEj+0x16>
 14a:	681a      	ldr	r2, [r3, #0]
 14c:	438a      	bics	r2, r1
 14e:	601a      	str	r2, [r3, #0]
 150:	e004      	b.n	15c <_ZN5hwcpp18port_out_from_pinsIINS_12lpc1114_baseILi4096ELi32768ELi12000000EE6pin_ocILi0ELi4EEENS3_ILi0ELi5EEENS2_17pin_in_out_pullupILi0ELi6EEENS6_ILi0ELi7EEENS2_20pin_in_out_ad_pullupILi1ELi0ELi1EEENS9_ILi1ELi1ELi2EEENS9_ILi1ELi2ELi3EEENS9_ILi1ELi3ELi4EEENS9_ILi1ELi4ELi5EEENS6_ILi1ELi5EEENS6_ILi1ELi8EEENS6_ILi1ELi9EEEEE3setEj+0x20>
 152:	681c      	ldr	r4, [r3, #0]
 154:	4321      	orrs	r1, r4
 156:	6019      	str	r1, [r3, #0]
 158:	490a      	ldr	r1, [pc, #40]	; (184 <_ZN5hwcpp18port_out_from_pinsIINS_12lpc1114_baseILi4096ELi32768ELi12000000EE6pin_ocILi0ELi4EEENS3_ILi0ELi5EEENS2_17pin_in_out_pullupILi0ELi6EEENS6_ILi0ELi7EEENS2_20pin_in_out_ad_pullupILi1ELi0ELi1EEENS9_ILi1ELi1ELi2EEENS9_ILi1ELi2ELi3EEENS9_ILi1ELi3ELi4EEENS9_ILi1ELi4ELi5EEENS6_ILi1ELi5EEENS6_ILi1ELi8EEENS6_ILi1ELi9EEEEE3setEj+0x48>)
 15a:	600a      	str	r2, [r1, #0]
 15c:	0840      	lsrs	r0, r0, #1
 15e:	2201      	movs	r2, #1
 160:	4002      	ands	r2, r0
 162:	2120      	movs	r1, #32
 164:	2a00      	cmp	r2, #0
 166:	d002      	beq.n	16e <_ZN5hwcpp18port_out_from_pinsIINS_12lpc1114_baseILi4096ELi32768ELi12000000EE6pin_ocILi0ELi4EEENS3_ILi0ELi5EEENS2_17pin_in_out_pullupILi0ELi6EEENS6_ILi0ELi7EEENS2_20pin_in_out_ad_pullupILi1ELi0ELi1EEENS9_ILi1ELi1ELi2EEENS9_ILi1ELi2ELi3EEENS9_ILi1ELi3ELi4EEENS9_ILi1ELi4ELi5EEENS6_ILi1ELi5EEENS6_ILi1ELi8EEENS6_ILi1ELi9EEEEE3setEj+0x32>
 168:	681a      	ldr	r2, [r3, #0]
 16a:	438a      	bics	r2, r1
 16c:	e003      	b.n	176 <_ZN5hwcpp18port_out_from_pinsIINS_12lpc1114_baseILi4096ELi32768ELi12000000EE6pin_ocILi0ELi4EEENS3_ILi0ELi5EEENS2_17pin_in_out_pullupILi0ELi6EEENS6_ILi0ELi7EEENS2_20pin_in_out_ad_pullupILi1ELi0ELi1EEENS9_ILi1ELi1ELi2EEENS9_ILi1ELi2ELi3EEENS9_ILi1ELi3ELi4EEENS9_ILi1ELi4ELi5EEENS6_ILi1ELi5EEENS6_ILi1ELi8EEENS6_ILi1ELi9EEEEE3setEj+0x3a>
 16e:	681c      	ldr	r4, [r3, #0]
 170:	4321      	orrs	r1, r4
 172:	6019      	str	r1, [r3, #0]
 174:	4b04      	ldr	r3, [pc, #16]	; (188 <_ZN5hwcpp18port_out_from_pinsIINS_12lpc1114_baseILi4096ELi32768ELi12000000EE6pin_ocILi0ELi4EEENS3_ILi0ELi5EEENS2_17pin_in_out_pullupILi0ELi6EEENS6_ILi0ELi7EEENS2_20pin_in_out_ad_pullupILi1ELi0ELi1EEENS9_ILi1ELi1ELi2EEENS9_ILi1ELi2ELi3EEENS9_ILi1ELi3ELi4EEENS9_ILi1ELi4ELi5EEENS6_ILi1ELi5EEENS6_ILi1ELi8EEENS6_ILi1ELi9EEEEE3setEj+0x4c>)
 176:	601a      	str	r2, [r3, #0]
 178:	0840      	lsrs	r0, r0, #1
 17a:	f7ff ffb5 	bl	e8 <_ZN5hwcpp18port_out_from_pinsIINS_12lpc1114_baseILi4096ELi32768ELi12000000EE17pin_in_out_pullupILi0ELi6EEENS3_ILi0ELi7EEENS2_20pin_in_out_ad_pullupILi1ELi0ELi1EEENS6_ILi1ELi1ELi2EEENS6_ILi1ELi2ELi3EEENS6_ILi1ELi3ELi4EEENS6_ILi1ELi4ELi5EEENS3_ILi1ELi5EEENS3_ILi1ELi8EEENS3_ILi1ELi9EEEEE3setEj>
 17e:	bd10      	pop	{r4, pc}
 180:	50008000 	.word	0x50008000
 184:	50000040 	.word	0x50000040
 188:	50000080 	.word	0x50000080

0000018c <_ZN5hwcpp18port_out_from_pinsIINS_12lpc1114_baseILi4096ELi32768ELi12000000EE20pin_in_out_ad_pullupILi1ELi4ELi5EEENS2_17pin_in_out_pullupILi1ELi5EEENS5_ILi1ELi8EEENS5_ILi1ELi9EEEEE4initEv>:
 18c:	4a1b      	ldr	r2, [pc, #108]	; (1fc <_ZN5hwcpp18port_out_from_pinsIINS_12lpc1114_baseILi4096ELi32768ELi12000000EE20pin_in_out_ad_pullupILi1ELi4ELi5EEENS2_17pin_in_out_pullupILi1ELi5EEENS5_ILi1ELi8EEENS5_ILi1ELi9EEEEE4initEv+0x70>)
 18e:	2080      	movs	r0, #128	; 0x80
 190:	6fd3      	ldr	r3, [r2, #124]	; 0x7c
 192:	0240      	lsls	r0, r0, #9
 194:	4303      	orrs	r3, r0
 196:	b530      	push	{r4, r5, lr}
 198:	67d3      	str	r3, [r2, #124]	; 0x7c
 19a:	4b19      	ldr	r3, [pc, #100]	; (200 <_ZN5hwcpp18port_out_from_pinsIINS_12lpc1114_baseILi4096ELi32768ELi12000000EE20pin_in_out_ad_pullupILi1ELi4ELi5EEENS2_17pin_in_out_pullupILi1ELi5EEENS5_ILi1ELi8EEENS5_ILi1ELi9EEEEE4initEv+0x74>)
 19c:	2107      	movs	r1, #7
 19e:	681c      	ldr	r4, [r3, #0]
 1a0:	2580      	movs	r5, #128	; 0x80
 1a2:	438c      	bics	r4, r1
 1a4:	432c      	orrs	r4, r5
 1a6:	601c      	str	r4, [r3, #0]
 1a8:	4b16      	ldr	r3, [pc, #88]	; (204 <_ZN5hwcpp18port_out_from_pinsIINS_12lpc1114_baseILi4096ELi32768ELi12000000EE20pin_in_out_ad_pullupILi1ELi4ELi5EEENS2_17pin_in_out_pullupILi1ELi5EEENS5_ILi1ELi8EEENS5_ILi1ELi9EEEEE4initEv+0x78>)
 1aa:	2510      	movs	r5, #16
 1ac:	681c      	ldr	r4, [r3, #0]
 1ae:	432c      	orrs	r4, r5
 1b0:	601c      	str	r4, [r3, #0]
 1b2:	6fd4      	ldr	r4, [r2, #124]	; 0x7c
 1b4:	4304      	orrs	r4, r0
 1b6:	67d4      	str	r4, [r2, #124]	; 0x7c
 1b8:	4c13      	ldr	r4, [pc, #76]	; (208 <_ZN5hwcpp18port_out_from_pinsIINS_12lpc1114_baseILi4096ELi32768ELi12000000EE20pin_in_out_ad_pullupILi1ELi4ELi5EEENS2_17pin_in_out_pullupILi1ELi5EEENS5_ILi1ELi8EEENS5_ILi1ELi9EEEEE4initEv+0x7c>)
 1ba:	6825      	ldr	r5, [r4, #0]
 1bc:	438d      	bics	r5, r1
 1be:	6025      	str	r5, [r4, #0]
 1c0:	681c      	ldr	r4, [r3, #0]
 1c2:	2520      	movs	r5, #32
 1c4:	432c      	orrs	r4, r5
 1c6:	601c      	str	r4, [r3, #0]
 1c8:	6fd4      	ldr	r4, [r2, #124]	; 0x7c
 1ca:	4304      	orrs	r4, r0
 1cc:	67d4      	str	r4, [r2, #124]	; 0x7c
 1ce:	4c0f      	ldr	r4, [pc, #60]	; (20c <_ZN5hwcpp18port_out_from_pinsIINS_12lpc1114_baseILi4096ELi32768ELi12000000EE20pin_in_out_ad_pullupILi1ELi4ELi5EEENS2_17pin_in_out_pullupILi1ELi5EEENS5_ILi1ELi8EEENS5_ILi1ELi9EEEEE4initEv+0x80>)
 1d0:	6825      	ldr	r5, [r4, #0]
 1d2:	438d      	bics	r5, r1
 1d4:	6025      	str	r5, [r4, #0]
 1d6:	681d      	ldr	r5, [r3, #0]
 1d8:	2480      	movs	r4, #128	; 0x80
 1da:	0064      	lsls	r4, r4, #1
 1dc:	432c      	orrs	r4, r5
 1de:	601c      	str	r4, [r3, #0]
 1e0:	6fd4      	ldr	r4, [r2, #124]	; 0x7c
 1e2:	4320      	orrs	r0, r4
 1e4:	67d0      	str	r0, [r2, #124]	; 0x7c
 1e6:	4a0a      	ldr	r2, [pc, #40]	; (210 <_ZN5hwcpp18port_out_from_pinsIINS_12lpc1114_baseILi4096ELi32768ELi12000000EE20pin_in_out_ad_pullupILi1ELi4ELi5EEENS2_17pin_in_out_pullupILi1ELi5EEENS5_ILi1ELi8EEENS5_ILi1ELi9EEEEE4initEv+0x84>)
 1e8:	6810      	ldr	r0, [r2, #0]
 1ea:	4388      	bics	r0, r1
 1ec:	6010      	str	r0, [r2, #0]
 1ee:	6819      	ldr	r1, [r3, #0]
 1f0:	2280      	movs	r2, #128	; 0x80
 1f2:	0092      	lsls	r2, r2, #2
 1f4:	430a      	orrs	r2, r1
 1f6:	601a      	str	r2, [r3, #0]
 1f8:	bd30      	pop	{r4, r5, pc}
 1fa:	46c0      	nop			; (mov r8, r8)
 1fc:	40048004 	.word	0x40048004
 200:	40044094 	.word	0x40044094
 204:	50018000 	.word	0x50018000
 208:	400440a0 	.word	0x400440a0
 20c:	40044014 	.word	0x40044014
 210:	40044038 	.word	0x40044038

00000214 <_ZN5hwcpp18port_out_from_pinsIINS_12lpc1114_baseILi4096ELi32768ELi12000000EE20pin_in_out_ad_pullupILi1ELi1ELi2EEENS3_ILi1ELi2ELi3EEENS3_ILi1ELi3ELi4EEENS3_ILi1ELi4ELi5EEENS2_17pin_in_out_pullupILi1ELi5EEENS8_ILi1ELi8EEENS8_ILi1ELi9EEEEE4initEv>:
 214:	4a16      	ldr	r2, [pc, #88]	; (270 <_ZN5hwcpp18port_out_from_pinsIINS_12lpc1114_baseILi4096ELi32768ELi12000000EE20pin_in_out_ad_pullupILi1ELi1ELi2EEENS3_ILi1ELi2ELi3EEENS3_ILi1ELi3ELi4EEENS3_ILi1ELi4ELi5EEENS2_17pin_in_out_pullupILi1ELi5EEENS8_ILi1ELi8EEENS8_ILi1ELi9EEEEE4initEv+0x5c>)
 216:	b570      	push	{r4, r5, r6, lr}
 218:	6fd3      	ldr	r3, [r2, #124]	; 0x7c
 21a:	2480      	movs	r4, #128	; 0x80
 21c:	0264      	lsls	r4, r4, #9
 21e:	4323      	orrs	r3, r4
 220:	67d3      	str	r3, [r2, #124]	; 0x7c
 222:	4b14      	ldr	r3, [pc, #80]	; (274 <_ZN5hwcpp18port_out_from_pinsIINS_12lpc1114_baseILi4096ELi32768ELi12000000EE20pin_in_out_ad_pullupILi1ELi1ELi2EEENS3_ILi1ELi2ELi3EEENS3_ILi1ELi3ELi4EEENS3_ILi1ELi4ELi5EEENS2_17pin_in_out_pullupILi1ELi5EEENS8_ILi1ELi8EEENS8_ILi1ELi9EEEEE4initEv+0x60>)
 224:	2007      	movs	r0, #7
 226:	681d      	ldr	r5, [r3, #0]
 228:	2181      	movs	r1, #129	; 0x81
 22a:	4385      	bics	r5, r0
 22c:	430d      	orrs	r5, r1
 22e:	601d      	str	r5, [r3, #0]
 230:	4b11      	ldr	r3, [pc, #68]	; (278 <_ZN5hwcpp18port_out_from_pinsIINS_12lpc1114_baseILi4096ELi32768ELi12000000EE20pin_in_out_ad_pullupILi1ELi1ELi2EEENS3_ILi1ELi2ELi3EEENS3_ILi1ELi3ELi4EEENS3_ILi1ELi4ELi5EEENS2_17pin_in_out_pullupILi1ELi5EEENS8_ILi1ELi8EEENS8_ILi1ELi9EEEEE4initEv+0x64>)
 232:	2602      	movs	r6, #2
 234:	681d      	ldr	r5, [r3, #0]
 236:	4335      	orrs	r5, r6
 238:	601d      	str	r5, [r3, #0]
 23a:	6fd5      	ldr	r5, [r2, #124]	; 0x7c
 23c:	4325      	orrs	r5, r4
 23e:	67d5      	str	r5, [r2, #124]	; 0x7c
 240:	4d0e      	ldr	r5, [pc, #56]	; (27c <_ZN5hwcpp18port_out_from_pinsIINS_12lpc1114_baseILi4096ELi32768ELi12000000EE20pin_in_out_ad_pullupILi1ELi1ELi2EEENS3_ILi1ELi2ELi3EEENS3_ILi1ELi3ELi4EEENS3_ILi1ELi4ELi5EEENS2_17pin_in_out_pullupILi1ELi5EEENS8_ILi1ELi8EEENS8_ILi1ELi9EEEEE4initEv+0x68>)
 242:	682e      	ldr	r6, [r5, #0]
 244:	4386      	bics	r6, r0
 246:	430e      	orrs	r6, r1
 248:	602e      	str	r6, [r5, #0]
 24a:	681d      	ldr	r5, [r3, #0]
 24c:	2604      	movs	r6, #4
 24e:	4335      	orrs	r5, r6
 250:	601d      	str	r5, [r3, #0]
 252:	6fd5      	ldr	r5, [r2, #124]	; 0x7c
 254:	432c      	orrs	r4, r5
 256:	67d4      	str	r4, [r2, #124]	; 0x7c
 258:	4a09      	ldr	r2, [pc, #36]	; (280 <_ZN5hwcpp18port_out_from_pinsIINS_12lpc1114_baseILi4096ELi32768ELi12000000EE20pin_in_out_ad_pullupILi1ELi1ELi2EEENS3_ILi1ELi2ELi3EEENS3_ILi1ELi3ELi4EEENS3_ILi1ELi4ELi5EEENS2_17pin_in_out_pullupILi1ELi5EEENS8_ILi1ELi8EEENS8_ILi1ELi9EEEEE4initEv+0x6c>)
 25a:	6814      	ldr	r4, [r2, #0]
 25c:	4384      	bics	r4, r0
 25e:	4321      	orrs	r1, r4
 260:	6011      	str	r1, [r2, #0]
 262:	681a      	ldr	r2, [r3, #0]
 264:	2108      	movs	r1, #8
 266:	430a      	orrs	r2, r1
 268:	601a      	str	r2, [r3, #0]
 26a:	f7ff ff8f 	bl	18c <_ZN5hwcpp18port_out_from_pinsIINS_12lpc1114_baseILi4096ELi32768ELi12000000EE20pin_in_out_ad_pullupILi1ELi4ELi5EEENS2_17pin_in_out_pullupILi1ELi5EEENS5_ILi1ELi8EEENS5_ILi1ELi9EEEEE4initEv>
 26e:	bd70      	pop	{r4, r5, r6, pc}
 270:	40048004 	.word	0x40048004
 274:	4004407c 	.word	0x4004407c
 278:	50018000 	.word	0x50018000
 27c:	40044080 	.word	0x40044080
 280:	40044090 	.word	0x40044090

00000284 <_ZN5hwcpp18port_out_from_pinsIINS_12lpc1114_baseILi4096ELi32768ELi12000000EE17pin_in_out_pullupILi0ELi6EEENS3_ILi0ELi7EEENS2_20pin_in_out_ad_pullupILi1ELi0ELi1EEENS6_ILi1ELi1ELi2EEENS6_ILi1ELi2ELi3EEENS6_ILi1ELi3ELi4EEENS6_ILi1ELi4ELi5EEENS3_ILi1ELi5EEENS3_ILi1ELi8EEENS3_ILi1ELi9EEEEE4initEv>:
 284:	b538      	push	{r3, r4, r5, lr}
 286:	4b16      	ldr	r3, [pc, #88]	; (2e0 <_ZN5hwcpp18port_out_from_pinsIINS_12lpc1114_baseILi4096ELi32768ELi12000000EE17pin_in_out_pullupILi0ELi6EEENS3_ILi0ELi7EEENS2_20pin_in_out_ad_pullupILi1ELi0ELi1EEENS6_ILi1ELi1ELi2EEENS6_ILi1ELi2ELi3EEENS6_ILi1ELi3ELi4EEENS6_ILi1ELi4ELi5EEENS3_ILi1ELi5EEENS3_ILi1ELi8EEENS3_ILi1ELi9EEEEE4initEv+0x5c>)
 288:	2080      	movs	r0, #128	; 0x80
 28a:	6fda      	ldr	r2, [r3, #124]	; 0x7c
 28c:	0240      	lsls	r0, r0, #9
 28e:	4302      	orrs	r2, r0
 290:	67da      	str	r2, [r3, #124]	; 0x7c
 292:	4a14      	ldr	r2, [pc, #80]	; (2e4 <_ZN5hwcpp18port_out_from_pinsIINS_12lpc1114_baseILi4096ELi32768ELi12000000EE17pin_in_out_pullupILi0ELi6EEENS3_ILi0ELi7EEENS2_20pin_in_out_ad_pullupILi1ELi0ELi1EEENS6_ILi1ELi1ELi2EEENS6_ILi1ELi2ELi3EEENS6_ILi1ELi3ELi4EEENS6_ILi1ELi4ELi5EEENS3_ILi1ELi5EEENS3_ILi1ELi8EEENS3_ILi1ELi9EEEEE4initEv+0x60>)
 294:	2107      	movs	r1, #7
 296:	6814      	ldr	r4, [r2, #0]
 298:	2540      	movs	r5, #64	; 0x40
 29a:	438c      	bics	r4, r1
 29c:	6014      	str	r4, [r2, #0]
 29e:	4a12      	ldr	r2, [pc, #72]	; (2e8 <_ZN5hwcpp18port_out_from_pinsIINS_12lpc1114_baseILi4096ELi32768ELi12000000EE17pin_in_out_pullupILi0ELi6EEENS3_ILi0ELi7EEENS2_20pin_in_out_ad_pullupILi1ELi0ELi1EEENS6_ILi1ELi1ELi2EEENS6_ILi1ELi2ELi3EEENS6_ILi1ELi3ELi4EEENS6_ILi1ELi4ELi5EEENS3_ILi1ELi5EEENS3_ILi1ELi8EEENS3_ILi1ELi9EEEEE4initEv+0x64>)
 2a0:	6814      	ldr	r4, [r2, #0]
 2a2:	432c      	orrs	r4, r5
 2a4:	6014      	str	r4, [r2, #0]
 2a6:	6fdc      	ldr	r4, [r3, #124]	; 0x7c
 2a8:	4304      	orrs	r4, r0
 2aa:	67dc      	str	r4, [r3, #124]	; 0x7c
 2ac:	4c0f      	ldr	r4, [pc, #60]	; (2ec <_ZN5hwcpp18port_out_from_pinsIINS_12lpc1114_baseILi4096ELi32768ELi12000000EE17pin_in_out_pullupILi0ELi6EEENS3_ILi0ELi7EEENS2_20pin_in_out_ad_pullupILi1ELi0ELi1EEENS6_ILi1ELi1ELi2EEENS6_ILi1ELi2ELi3EEENS6_ILi1ELi3ELi4EEENS6_ILi1ELi4ELi5EEENS3_ILi1ELi5EEENS3_ILi1ELi8EEENS3_ILi1ELi9EEEEE4initEv+0x68>)
 2ae:	6825      	ldr	r5, [r4, #0]
 2b0:	438d      	bics	r5, r1
 2b2:	6025      	str	r5, [r4, #0]
 2b4:	6814      	ldr	r4, [r2, #0]
 2b6:	2580      	movs	r5, #128	; 0x80
 2b8:	432c      	orrs	r4, r5
 2ba:	6014      	str	r4, [r2, #0]
 2bc:	6fda      	ldr	r2, [r3, #124]	; 0x7c
 2be:	4310      	orrs	r0, r2
 2c0:	67d8      	str	r0, [r3, #124]	; 0x7c
 2c2:	4b0b      	ldr	r3, [pc, #44]	; (2f0 <_ZN5hwcpp18port_out_from_pinsIINS_12lpc1114_baseILi4096ELi32768ELi12000000EE17pin_in_out_pullupILi0ELi6EEENS3_ILi0ELi7EEENS2_20pin_in_out_ad_pullupILi1ELi0ELi1EEENS6_ILi1ELi1ELi2EEENS6_ILi1ELi2ELi3EEENS6_ILi1ELi3ELi4EEENS6_ILi1ELi4ELi5EEENS3_ILi1ELi5EEENS3_ILi1ELi8EEENS3_ILi1ELi9EEEEE4initEv+0x6c>)
 2c4:	681a      	ldr	r2, [r3, #0]
 2c6:	438a      	bics	r2, r1
 2c8:	2181      	movs	r1, #129	; 0x81
 2ca:	430a      	orrs	r2, r1
 2cc:	601a      	str	r2, [r3, #0]
 2ce:	4b09      	ldr	r3, [pc, #36]	; (2f4 <_ZN5hwcpp18port_out_from_pinsIINS_12lpc1114_baseILi4096ELi32768ELi12000000EE17pin_in_out_pullupILi0ELi6EEENS3_ILi0ELi7EEENS2_20pin_in_out_ad_pullupILi1ELi0ELi1EEENS6_ILi1ELi1ELi2EEENS6_ILi1ELi2ELi3EEENS6_ILi1ELi3ELi4EEENS6_ILi1ELi4ELi5EEENS3_ILi1ELi5EEENS3_ILi1ELi8EEENS3_ILi1ELi9EEEEE4initEv+0x70>)
 2d0:	2101      	movs	r1, #1
 2d2:	681a      	ldr	r2, [r3, #0]
 2d4:	430a      	orrs	r2, r1
 2d6:	601a      	str	r2, [r3, #0]
 2d8:	f7ff ff9c 	bl	214 <_ZN5hwcpp18port_out_from_pinsIINS_12lpc1114_baseILi4096ELi32768ELi12000000EE20pin_in_out_ad_pullupILi1ELi1ELi2EEENS3_ILi1ELi2ELi3EEENS3_ILi1ELi3ELi4EEENS3_ILi1ELi4ELi5EEENS2_17pin_in_out_pullupILi1ELi5EEENS8_ILi1ELi8EEENS8_ILi1ELi9EEEEE4initEv>
 2dc:	bd38      	pop	{r3, r4, r5, pc}
 2de:	46c0      	nop			; (mov r8, r8)
 2e0:	40048004 	.word	0x40048004
 2e4:	4004404c 	.word	0x4004404c
 2e8:	50008000 	.word	0x50008000
 2ec:	40044050 	.word	0x40044050
 2f0:	40044078 	.word	0x40044078
 2f4:	50018000 	.word	0x50018000

000002f8 <_ZN5hwcpp4kittINS_18port_out_from_pinsIINS_12lpc1114_baseILi4096ELi32768ELi12000000EE6pin_ocILi0ELi4EEENS4_ILi0ELi5EEENS3_17pin_in_out_pullupILi0ELi6EEENS7_ILi0ELi7EEENS3_20pin_in_out_ad_pullupILi1ELi0ELi1EEENSA_ILi1ELi1ELi2EEENSA_ILi1ELi2ELi3EEENSA_ILi1ELi3ELi4EEENSA_ILi1ELi4ELi5EEENS7_ILi1ELi5EEENS7_ILi1ELi8EEENS7_ILi1ELi9EEEEEENS_21timing_implementationINS3_8timer_64EEEEEvNT0_8durationE>:
 2f8:	b5f7      	push	{r0, r1, r2, r4, r5, r6, r7, lr}
 2fa:	4b21      	ldr	r3, [pc, #132]	; (380 <_ZN5hwcpp4kittINS_18port_out_from_pinsIINS_12lpc1114_baseILi4096ELi32768ELi12000000EE6pin_ocILi0ELi4EEENS4_ILi0ELi5EEENS3_17pin_in_out_pullupILi0ELi6EEENS7_ILi0ELi7EEENS3_20pin_in_out_ad_pullupILi1ELi0ELi1EEENSA_ILi1ELi1ELi2EEENSA_ILi1ELi2ELi3EEENSA_ILi1ELi3ELi4EEENSA_ILi1ELi4ELi5EEENS7_ILi1ELi5EEENS7_ILi1ELi8EEENS7_ILi1ELi9EEEEEENS_21timing_implementationINS3_8timer_64EEEEEvNT0_8durationE+0x88>)
 2fc:	4a21      	ldr	r2, [pc, #132]	; (384 <_ZN5hwcpp4kittINS_18port_out_from_pinsIINS_12lpc1114_baseILi4096ELi32768ELi12000000EE6pin_ocILi0ELi4EEENS4_ILi0ELi5EEENS3_17pin_in_out_pullupILi0ELi6EEENS7_ILi0ELi7EEENS3_20pin_in_out_ad_pullupILi1ELi0ELi1EEENSA_ILi1ELi1ELi2EEENSA_ILi1ELi2ELi3EEENSA_ILi1ELi3ELi4EEENSA_ILi1ELi4ELi5EEENS7_ILi1ELi5EEENS7_ILi1ELi8EEENS7_ILi1ELi9EEEEEENS_21timing_implementationINS3_8timer_64EEEEEvNT0_8durationE+0x8c>)
 2fe:	2600      	movs	r6, #0
 300:	601e      	str	r6, [r3, #0]
 302:	605a      	str	r2, [r3, #4]
 304:	2201      	movs	r2, #1
 306:	609e      	str	r6, [r3, #8]
 308:	601a      	str	r2, [r3, #0]
 30a:	4a1f      	ldr	r2, [pc, #124]	; (388 <_ZN5hwcpp4kittINS_18port_out_from_pinsIINS_12lpc1114_baseILi4096ELi32768ELi12000000EE6pin_ocILi0ELi4EEENS4_ILi0ELi5EEENS3_17pin_in_out_pullupILi0ELi6EEENS7_ILi0ELi7EEENS3_20pin_in_out_ad_pullupILi1ELi0ELi1EEENSA_ILi1ELi1ELi2EEENSA_ILi1ELi2ELi3EEENSA_ILi1ELi3ELi4EEENSA_ILi1ELi4ELi5EEENS7_ILi1ELi5EEENS7_ILi1ELi8EEENS7_ILi1ELi9EEEEEENS_21timing_implementationINS3_8timer_64EEEEEvNT0_8durationE+0x90>)
 30c:	1c04      	adds	r4, r0, #0
 30e:	6fd3      	ldr	r3, [r2, #124]	; 0x7c
 310:	2080      	movs	r0, #128	; 0x80
 312:	0240      	lsls	r0, r0, #9
 314:	4303      	orrs	r3, r0
 316:	67d3      	str	r3, [r2, #124]	; 0x7c
 318:	4b1c      	ldr	r3, [pc, #112]	; (38c <_ZN5hwcpp4kittINS_18port_out_from_pinsIINS_12lpc1114_baseILi4096ELi32768ELi12000000EE6pin_ocILi0ELi4EEENS4_ILi0ELi5EEENS3_17pin_in_out_pullupILi0ELi6EEENS7_ILi0ELi7EEENS3_20pin_in_out_ad_pullupILi1ELi0ELi1EEENSA_ILi1ELi1ELi2EEENSA_ILi1ELi2ELi3EEENSA_ILi1ELi3ELi4EEENSA_ILi1ELi4ELi5EEENS7_ILi1ELi5EEENS7_ILi1ELi8EEENS7_ILi1ELi9EEEEEENS_21timing_implementationINS3_8timer_64EEEEEvNT0_8durationE+0x94>)
 31a:	1c0d      	adds	r5, r1, #0
 31c:	681f      	ldr	r7, [r3, #0]
 31e:	2107      	movs	r1, #7
 320:	438f      	bics	r7, r1
 322:	601f      	str	r7, [r3, #0]
 324:	4b1a      	ldr	r3, [pc, #104]	; (390 <_ZN5hwcpp4kittINS_18port_out_from_pinsIINS_12lpc1114_baseILi4096ELi32768ELi12000000EE6pin_ocILi0ELi4EEENS4_ILi0ELi5EEENS3_17pin_in_out_pullupILi0ELi6EEENS7_ILi0ELi7EEENS3_20pin_in_out_ad_pullupILi1ELi0ELi1EEENSA_ILi1ELi1ELi2EEENSA_ILi1ELi2ELi3EEENSA_ILi1ELi3ELi4EEENSA_ILi1ELi4ELi5EEENS7_ILi1ELi5EEENS7_ILi1ELi8EEENS7_ILi1ELi9EEEEEENS_21timing_implementationINS3_8timer_64EEEEEvNT0_8durationE+0x98>)
 326:	2110      	movs	r1, #16
 328:	681f      	ldr	r7, [r3, #0]
 32a:	430f      	orrs	r7, r1
 32c:	601f      	str	r7, [r3, #0]
 32e:	6fd7      	ldr	r7, [r2, #124]	; 0x7c
 330:	4338      	orrs	r0, r7
 332:	67d0      	str	r0, [r2, #124]	; 0x7c
 334:	4a17      	ldr	r2, [pc, #92]	; (394 <_ZN5hwcpp4kittINS_18port_out_from_pinsIINS_12lpc1114_baseILi4096ELi32768ELi12000000EE6pin_ocILi0ELi4EEENS4_ILi0ELi5EEENS3_17pin_in_out_pullupILi0ELi6EEENS7_ILi0ELi7EEENS3_20pin_in_out_ad_pullupILi1ELi0ELi1EEENSA_ILi1ELi1ELi2EEENSA_ILi1ELi2ELi3EEENSA_ILi1ELi3ELi4EEENSA_ILi1ELi4ELi5EEENS7_ILi1ELi5EEENS7_ILi1ELi8EEENS7_ILi1ELi9EEEEEENS_21timing_implementationINS3_8timer_64EEEEEvNT0_8durationE+0x9c>)
 336:	2707      	movs	r7, #7
 338:	6810      	ldr	r0, [r2, #0]
 33a:	1c01      	adds	r1, r0, #0
 33c:	43b9      	bics	r1, r7
 33e:	6011      	str	r1, [r2, #0]
 340:	681a      	ldr	r2, [r3, #0]
 342:	2120      	movs	r1, #32
 344:	430a      	orrs	r2, r1
 346:	601a      	str	r2, [r3, #0]
 348:	f7ff ff9c 	bl	284 <_ZN5hwcpp18port_out_from_pinsIINS_12lpc1114_baseILi4096ELi32768ELi12000000EE17pin_in_out_pullupILi0ELi6EEENS3_ILi0ELi7EEENS2_20pin_in_out_ad_pullupILi1ELi0ELi1EEENS6_ILi1ELi1ELi2EEENS6_ILi1ELi2ELi3EEENS6_ILi1ELi3ELi4EEENS6_ILi1ELi4ELi5EEENS3_ILi1ELi5EEENS3_ILi1ELi8EEENS3_ILi1ELi9EEEEE4initEv>
 34c:	2e0b      	cmp	r6, #11
 34e:	dc09      	bgt.n	364 <_ZN5hwcpp4kittINS_18port_out_from_pinsIINS_12lpc1114_baseILi4096ELi32768ELi12000000EE6pin_ocILi0ELi4EEENS4_ILi0ELi5EEENS3_17pin_in_out_pullupILi0ELi6EEENS7_ILi0ELi7EEENS3_20pin_in_out_ad_pullupILi1ELi0ELi1EEENSA_ILi1ELi1ELi2EEENSA_ILi1ELi2ELi3EEENSA_ILi1ELi3ELi4EEENSA_ILi1ELi4ELi5EEENS7_ILi1ELi5EEENS7_ILi1ELi8EEENS7_ILi1ELi9EEEEEENS_21timing_implementationINS3_8timer_64EEEEEvNT0_8durationE+0x6c>
 350:	2001      	movs	r0, #1
 352:	40b0      	lsls	r0, r6
 354:	f7ff fef2 	bl	13c <_ZN5hwcpp18port_out_from_pinsIINS_12lpc1114_baseILi4096ELi32768ELi12000000EE6pin_ocILi0ELi4EEENS3_ILi0ELi5EEENS2_17pin_in_out_pullupILi0ELi6EEENS6_ILi0ELi7EEENS2_20pin_in_out_ad_pullupILi1ELi0ELi1EEENS9_ILi1ELi1ELi2EEENS9_ILi1ELi2ELi3EEENS9_ILi1ELi3ELi4EEENS9_ILi1ELi4ELi5EEENS6_ILi1ELi5EEENS6_ILi1ELi8EEENS6_ILi1ELi9EEEEE3setEj>
 358:	1c20      	adds	r0, r4, #0
 35a:	1c29      	adds	r1, r5, #0
 35c:	f7ff fe88 	bl	70 <_ZN5hwcpp13timing_waiterINS_12lpc1114_baseILi4096ELi32768ELi12000000EE8timer_64EE4waitENS_15moment_durationIxLx6EE8durationE>
 360:	3601      	adds	r6, #1
 362:	e7f3      	b.n	34c <_ZN5hwcpp4kittINS_18port_out_from_pinsIINS_12lpc1114_baseILi4096ELi32768ELi12000000EE6pin_ocILi0ELi4EEENS4_ILi0ELi5EEENS3_17pin_in_out_pullupILi0ELi6EEENS7_ILi0ELi7EEENS3_20pin_in_out_ad_pullupILi1ELi0ELi1EEENSA_ILi1ELi1ELi2EEENSA_ILi1ELi2ELi3EEENSA_ILi1ELi3ELi4EEENSA_ILi1ELi4ELi5EEENS7_ILi1ELi5EEENS7_ILi1ELi8EEENS7_ILi1ELi9EEEEEENS_21timing_implementationINS3_8timer_64EEEEEvNT0_8durationE+0x54>
 364:	260a      	movs	r6, #10
 366:	2001      	movs	r0, #1
 368:	40b0      	lsls	r0, r6
 36a:	f7ff fee7 	bl	13c <_ZN5hwcpp18port_out_from_pinsIINS_12lpc1114_baseILi4096ELi32768ELi12000000EE6pin_ocILi0ELi4EEENS3_ILi0ELi5EEENS2_17pin_in_out_pullupILi0ELi6EEENS6_ILi0ELi7EEENS2_20pin_in_out_ad_pullupILi1ELi0ELi1EEENS9_ILi1ELi1ELi2EEENS9_ILi1ELi2ELi3EEENS9_ILi1ELi3ELi4EEENS9_ILi1ELi4ELi5EEENS6_ILi1ELi5EEENS6_ILi1ELi8EEENS6_ILi1ELi9EEEEE3setEj>
 36e:	3e01      	subs	r6, #1
 370:	1c20      	adds	r0, r4, #0
 372:	1c29      	adds	r1, r5, #0
 374:	f7ff fe7c 	bl	70 <_ZN5hwcpp13timing_waiterINS_12lpc1114_baseILi4096ELi32768ELi12000000EE8timer_64EE4waitENS_15moment_durationIxLx6EE8durationE>
 378:	2e00      	cmp	r6, #0
 37a:	d1f4      	bne.n	366 <_ZN5hwcpp4kittINS_18port_out_from_pinsIINS_12lpc1114_baseILi4096ELi32768ELi12000000EE6pin_ocILi0ELi4EEENS4_ILi0ELi5EEENS3_17pin_in_out_pullupILi0ELi6EEENS7_ILi0ELi7EEENS3_20pin_in_out_ad_pullupILi1ELi0ELi1EEENSA_ILi1ELi1ELi2EEENSA_ILi1ELi2ELi3EEENSA_ILi1ELi3ELi4EEENSA_ILi1ELi4ELi5EEENS7_ILi1ELi5EEENS7_ILi1ELi8EEENS7_ILi1ELi9EEEEEENS_21timing_implementationINS3_8timer_64EEEEEvNT0_8durationE+0x6e>
 37c:	e7e6      	b.n	34c <_ZN5hwcpp4kittINS_18port_out_from_pinsIINS_12lpc1114_baseILi4096ELi32768ELi12000000EE6pin_ocILi0ELi4EEENS4_ILi0ELi5EEENS3_17pin_in_out_pullupILi0ELi6EEENS7_ILi0ELi7EEENS3_20pin_in_out_ad_pullupILi1ELi0ELi1EEENSA_ILi1ELi1ELi2EEENSA_ILi1ELi2ELi3EEENSA_ILi1ELi3ELi4EEENSA_ILi1ELi4ELi5EEENS7_ILi1ELi5EEENS7_ILi1ELi8EEENS7_ILi1ELi9EEEEEENS_21timing_implementationINS3_8timer_64EEEEEvNT0_8durationE+0x54>
 37e:	46c0      	nop			; (mov r8, r8)
 380:	e000e010 	.word	0xe000e010
 384:	00ffffff 	.word	0x00ffffff
 388:	40048004 	.word	0x40048004
 38c:	40044030 	.word	0x40044030
 390:	50008000 	.word	0x50008000
 394:	40044034 	.word	0x40044034

00000398 <main>:
 398:	b508      	push	{r3, lr}
 39a:	4904      	ldr	r1, [pc, #16]	; (3ac <main+0x14>)
 39c:	4802      	ldr	r0, [pc, #8]	; (3a8 <main+0x10>)
 39e:	f7ff ffab 	bl	2f8 <_ZN5hwcpp4kittINS_18port_out_from_pinsIINS_12lpc1114_baseILi4096ELi32768ELi12000000EE6pin_ocILi0ELi4EEENS4_ILi0ELi5EEENS3_17pin_in_out_pullupILi0ELi6EEENS7_ILi0ELi7EEENS3_20pin_in_out_ad_pullupILi1ELi0ELi1EEENSA_ILi1ELi1ELi2EEENSA_ILi1ELi2ELi3EEENSA_ILi1ELi3ELi4EEENSA_ILi1ELi4ELi5EEENS7_ILi1ELi5EEENS7_ILi1ELi8EEENS7_ILi1ELi9EEEEEENS_21timing_implementationINS3_8timer_64EEEEEvNT0_8durationE>
 3a2:	46c0      	nop			; (mov r8, r8)
 3a4:	46c0      	nop			; (mov r8, r8)
 3a6:	46c0      	nop			; (mov r8, r8)
 3a8:	000927c0 	.word	0x000927c0
 3ac:	00000000 	.word	0x00000000

000003b0 <__startup>:
 3b0:	b510      	push	{r4, lr}
 3b2:	4b0f      	ldr	r3, [pc, #60]	; (3f0 <__startup+0x40>)
 3b4:	4a0f      	ldr	r2, [pc, #60]	; (3f4 <__startup+0x44>)
 3b6:	1d19      	adds	r1, r3, #4
 3b8:	3b04      	subs	r3, #4
 3ba:	4293      	cmp	r3, r2
 3bc:	d003      	beq.n	3c6 <__startup+0x16>
 3be:	2200      	movs	r2, #0
 3c0:	601a      	str	r2, [r3, #0]
 3c2:	1c0b      	adds	r3, r1, #0
 3c4:	e7f6      	b.n	3b4 <__startup+0x4>
 3c6:	4a0c      	ldr	r2, [pc, #48]	; (3f8 <__startup+0x48>)
 3c8:	490c      	ldr	r1, [pc, #48]	; (3fc <__startup+0x4c>)
 3ca:	2300      	movs	r3, #0
 3cc:	1a89      	subs	r1, r1, r2
 3ce:	0889      	lsrs	r1, r1, #2
 3d0:	3101      	adds	r1, #1
 3d2:	0089      	lsls	r1, r1, #2
 3d4:	3304      	adds	r3, #4
 3d6:	428b      	cmp	r3, r1
 3d8:	d007      	beq.n	3ea <__startup+0x3a>
 3da:	4c09      	ldr	r4, [pc, #36]	; (400 <__main_stack_size>)
 3dc:	18d0      	adds	r0, r2, r3
 3de:	191c      	adds	r4, r3, r4
 3e0:	3c04      	subs	r4, #4
 3e2:	6824      	ldr	r4, [r4, #0]
 3e4:	3804      	subs	r0, #4
 3e6:	6004      	str	r4, [r0, #0]
 3e8:	e7f4      	b.n	3d4 <__startup+0x24>
 3ea:	f7ff ffd5 	bl	398 <main>
 3ee:	e7fe      	b.n	3ee <__startup+0x3e>
 3f0:	10000004 	.word	0x10000004
 3f4:	1000000c 	.word	0x1000000c
 3f8:	10000000 	.word	0x10000000
 3fc:	10000000 	.word	0x10000000
 400:	00000404 	.word	0x00000404
