
main.elf:     file format elf32-littlearm


Disassembly of section .text:

00000000 <__rom_start>:
   0:	10000c60 	.word	0x10000c60
   4:	0000045d 	.word	0x0000045d
	...

00000020 <print_memmap_line>:
  20:	b538      	push	{r3, r4, r5, lr}
  22:	1c0c      	adds	r4, r1, #0
  24:	1c15      	adds	r5, r2, #0
  26:	f000 f9b9 	bl	39c <uart_put_string>
  2a:	1c20      	adds	r0, r4, #0
  2c:	2108      	movs	r1, #8
  2e:	f000 f9e4 	bl	3fa <uart_put_int_hexadecimal>
  32:	2d00      	cmp	r5, #0
  34:	d008      	beq.n	48 <__bss_size>
  36:	4806      	ldr	r0, [pc, #24]	; (50 <__bss_size+0x8>)
  38:	f000 f9b0 	bl	39c <uart_put_string>
  3c:	1c20      	adds	r0, r4, #0
  3e:	f000 f9b7 	bl	3b0 <uart_put_int_decimal>
  42:	4804      	ldr	r0, [pc, #16]	; (54 <__bss_size+0xc>)
  44:	f000 f9aa 	bl	39c <uart_put_string>
  48:	4803      	ldr	r0, [pc, #12]	; (58 <__bss_size+0x10>)
  4a:	f000 f9a7 	bl	39c <uart_put_string>
  4e:	bd38      	pop	{r3, r4, r5, pc}
  50:	000006c0 	.word	0x000006c0
  54:	000006c3 	.word	0x000006c3
  58:	0000078d 	.word	0x0000078d

0000005c <print_allocate>:
  5c:	b538      	push	{r3, r4, r5, lr}
  5e:	1c04      	adds	r4, r0, #0
  60:	4811      	ldr	r0, [pc, #68]	; (a8 <print_allocate+0x4c>)
  62:	f000 f99b 	bl	39c <uart_put_string>
  66:	1c20      	adds	r0, r4, #0
  68:	f000 f9a2 	bl	3b0 <uart_put_int_decimal>
  6c:	1c20      	adds	r0, r4, #0
  6e:	f000 fa21 	bl	4b4 <malloc>
  72:	1c05      	adds	r5, r0, #0
  74:	480d      	ldr	r0, [pc, #52]	; (ac <print_allocate+0x50>)
  76:	f000 f991 	bl	39c <uart_put_string>
  7a:	1c28      	adds	r0, r5, #0
  7c:	2108      	movs	r1, #8
  7e:	f000 f9bc 	bl	3fa <uart_put_int_hexadecimal>
  82:	2d00      	cmp	r5, #0
  84:	d103      	bne.n	8e <print_allocate+0x32>
  86:	480a      	ldr	r0, [pc, #40]	; (b0 <print_allocate+0x54>)
  88:	f000 f988 	bl	39c <uart_put_string>
  8c:	e008      	b.n	a0 <print_allocate+0x44>
  8e:	4809      	ldr	r0, [pc, #36]	; (b4 <print_allocate+0x58>)
  90:	f000 f984 	bl	39c <uart_put_string>
  94:	4b08      	ldr	r3, [pc, #32]	; (b8 <print_allocate+0x5c>)
  96:	681a      	ldr	r2, [r3, #0]
  98:	18a0      	adds	r0, r4, r2
  9a:	6018      	str	r0, [r3, #0]
  9c:	f000 f988 	bl	3b0 <uart_put_int_decimal>
  a0:	4806      	ldr	r0, [pc, #24]	; (bc <print_allocate+0x60>)
  a2:	f000 f97b 	bl	39c <uart_put_string>
  a6:	bd38      	pop	{r3, r4, r5, pc}
  a8:	000006c6 	.word	0x000006c6
  ac:	000006d3 	.word	0x000006d3
  b0:	000006d7 	.word	0x000006d7
  b4:	000006df 	.word	0x000006df
  b8:	10000018 	.word	0x10000018
  bc:	0000078d 	.word	0x0000078d

000000c0 <memmap_print>:
  c0:	b538      	push	{r3, r4, r5, lr}
  c2:	4853      	ldr	r0, [pc, #332]	; (210 <memmap_print+0x150>)
  c4:	f000 f96a 	bl	39c <uart_put_string>
  c8:	4852      	ldr	r0, [pc, #328]	; (214 <memmap_print+0x154>)
  ca:	4953      	ldr	r1, [pc, #332]	; (218 <memmap_print+0x158>)
  cc:	2200      	movs	r2, #0
  ce:	f7ff ffa7 	bl	20 <print_memmap_line>
  d2:	4852      	ldr	r0, [pc, #328]	; (21c <memmap_print+0x15c>)
  d4:	4952      	ldr	r1, [pc, #328]	; (220 <memmap_print+0x160>)
  d6:	2200      	movs	r2, #0
  d8:	f7ff ffa2 	bl	20 <print_memmap_line>
  dc:	4951      	ldr	r1, [pc, #324]	; (224 <memmap_print+0x164>)
  de:	2201      	movs	r2, #1
  e0:	4851      	ldr	r0, [pc, #324]	; (228 <memmap_print+0x168>)
  e2:	f7ff ff9d 	bl	20 <print_memmap_line>
  e6:	4c51      	ldr	r4, [pc, #324]	; (22c <memmap_print+0x16c>)
  e8:	1c20      	adds	r0, r4, #0
  ea:	f000 f957 	bl	39c <uart_put_string>
  ee:	4850      	ldr	r0, [pc, #320]	; (230 <memmap_print+0x170>)
  f0:	4950      	ldr	r1, [pc, #320]	; (234 <memmap_print+0x174>)
  f2:	2200      	movs	r2, #0
  f4:	f7ff ff94 	bl	20 <print_memmap_line>
  f8:	484f      	ldr	r0, [pc, #316]	; (238 <memmap_print+0x178>)
  fa:	4950      	ldr	r1, [pc, #320]	; (23c <memmap_print+0x17c>)
  fc:	2200      	movs	r2, #0
  fe:	f7ff ff8f 	bl	20 <print_memmap_line>
 102:	494f      	ldr	r1, [pc, #316]	; (240 <memmap_print+0x180>)
 104:	2201      	movs	r2, #1
 106:	484f      	ldr	r0, [pc, #316]	; (244 <memmap_print+0x184>)
 108:	f7ff ff8a 	bl	20 <print_memmap_line>
 10c:	1c20      	adds	r0, r4, #0
 10e:	f000 f945 	bl	39c <uart_put_string>
 112:	484d      	ldr	r0, [pc, #308]	; (248 <memmap_print+0x188>)
 114:	f000 f942 	bl	39c <uart_put_string>
 118:	484c      	ldr	r0, [pc, #304]	; (24c <memmap_print+0x18c>)
 11a:	494d      	ldr	r1, [pc, #308]	; (250 <memmap_print+0x190>)
 11c:	2200      	movs	r2, #0
 11e:	f7ff ff7f 	bl	20 <print_memmap_line>
 122:	484c      	ldr	r0, [pc, #304]	; (254 <memmap_print+0x194>)
 124:	494c      	ldr	r1, [pc, #304]	; (258 <memmap_print+0x198>)
 126:	2200      	movs	r2, #0
 128:	f7ff ff7a 	bl	20 <print_memmap_line>
 12c:	494b      	ldr	r1, [pc, #300]	; (25c <memmap_print+0x19c>)
 12e:	2201      	movs	r2, #1
 130:	484b      	ldr	r0, [pc, #300]	; (260 <memmap_print+0x1a0>)
 132:	f7ff ff75 	bl	20 <print_memmap_line>
 136:	1c20      	adds	r0, r4, #0
 138:	f000 f930 	bl	39c <uart_put_string>
 13c:	4849      	ldr	r0, [pc, #292]	; (264 <memmap_print+0x1a4>)
 13e:	494a      	ldr	r1, [pc, #296]	; (268 <memmap_print+0x1a8>)
 140:	2200      	movs	r2, #0
 142:	f7ff ff6d 	bl	20 <print_memmap_line>
 146:	4849      	ldr	r0, [pc, #292]	; (26c <memmap_print+0x1ac>)
 148:	4949      	ldr	r1, [pc, #292]	; (270 <memmap_print+0x1b0>)
 14a:	2200      	movs	r2, #0
 14c:	f7ff ff68 	bl	20 <print_memmap_line>
 150:	4948      	ldr	r1, [pc, #288]	; (274 <memmap_print+0x1b4>)
 152:	2201      	movs	r2, #1
 154:	4848      	ldr	r0, [pc, #288]	; (278 <memmap_print+0x1b8>)
 156:	f7ff ff63 	bl	20 <print_memmap_line>
 15a:	1c20      	adds	r0, r4, #0
 15c:	f000 f91e 	bl	39c <uart_put_string>
 160:	4846      	ldr	r0, [pc, #280]	; (27c <memmap_print+0x1bc>)
 162:	4947      	ldr	r1, [pc, #284]	; (280 <memmap_print+0x1c0>)
 164:	2200      	movs	r2, #0
 166:	f7ff ff5b 	bl	20 <print_memmap_line>
 16a:	4846      	ldr	r0, [pc, #280]	; (284 <memmap_print+0x1c4>)
 16c:	4946      	ldr	r1, [pc, #280]	; (288 <memmap_print+0x1c8>)
 16e:	2200      	movs	r2, #0
 170:	f7ff ff56 	bl	20 <print_memmap_line>
 174:	4945      	ldr	r1, [pc, #276]	; (28c <memmap_print+0x1cc>)
 176:	2201      	movs	r2, #1
 178:	4845      	ldr	r0, [pc, #276]	; (290 <memmap_print+0x1d0>)
 17a:	f7ff ff51 	bl	20 <print_memmap_line>
 17e:	1c20      	adds	r0, r4, #0
 180:	f000 f90c 	bl	39c <uart_put_string>
 184:	4843      	ldr	r0, [pc, #268]	; (294 <memmap_print+0x1d4>)
 186:	4944      	ldr	r1, [pc, #272]	; (298 <memmap_print+0x1d8>)
 188:	2200      	movs	r2, #0
 18a:	f7ff ff49 	bl	20 <print_memmap_line>
 18e:	4843      	ldr	r0, [pc, #268]	; (29c <memmap_print+0x1dc>)
 190:	4943      	ldr	r1, [pc, #268]	; (2a0 <memmap_print+0x1e0>)
 192:	2200      	movs	r2, #0
 194:	f7ff ff44 	bl	20 <print_memmap_line>
 198:	4942      	ldr	r1, [pc, #264]	; (2a4 <memmap_print+0x1e4>)
 19a:	2201      	movs	r2, #1
 19c:	4842      	ldr	r0, [pc, #264]	; (2a8 <memmap_print+0x1e8>)
 19e:	f7ff ff3f 	bl	20 <print_memmap_line>
 1a2:	1c20      	adds	r0, r4, #0
 1a4:	f000 f8fa 	bl	39c <uart_put_string>
 1a8:	4840      	ldr	r0, [pc, #256]	; (2ac <memmap_print+0x1ec>)
 1aa:	4941      	ldr	r1, [pc, #260]	; (2b0 <memmap_print+0x1f0>)
 1ac:	2200      	movs	r2, #0
 1ae:	f7ff ff37 	bl	20 <print_memmap_line>
 1b2:	4840      	ldr	r0, [pc, #256]	; (2b4 <memmap_print+0x1f4>)
 1b4:	4940      	ldr	r1, [pc, #256]	; (2b8 <memmap_print+0x1f8>)
 1b6:	2200      	movs	r2, #0
 1b8:	f7ff ff32 	bl	20 <print_memmap_line>
 1bc:	493f      	ldr	r1, [pc, #252]	; (2bc <memmap_print+0x1fc>)
 1be:	2201      	movs	r2, #1
 1c0:	483f      	ldr	r0, [pc, #252]	; (2c0 <memmap_print+0x200>)
 1c2:	f7ff ff2d 	bl	20 <print_memmap_line>
 1c6:	1c20      	adds	r0, r4, #0
 1c8:	f000 f8e8 	bl	39c <uart_put_string>
 1cc:	483d      	ldr	r0, [pc, #244]	; (2c4 <memmap_print+0x204>)
 1ce:	493e      	ldr	r1, [pc, #248]	; (2c8 <memmap_print+0x208>)
 1d0:	2200      	movs	r2, #0
 1d2:	f7ff ff25 	bl	20 <print_memmap_line>
 1d6:	483d      	ldr	r0, [pc, #244]	; (2cc <memmap_print+0x20c>)
 1d8:	493d      	ldr	r1, [pc, #244]	; (2d0 <memmap_print+0x210>)
 1da:	2200      	movs	r2, #0
 1dc:	f7ff ff20 	bl	20 <print_memmap_line>
 1e0:	4d3c      	ldr	r5, [pc, #240]	; (2d4 <memmap_print+0x214>)
 1e2:	2201      	movs	r2, #1
 1e4:	1c29      	adds	r1, r5, #0
 1e6:	483c      	ldr	r0, [pc, #240]	; (2d8 <memmap_print+0x218>)
 1e8:	f7ff ff1a 	bl	20 <print_memmap_line>
 1ec:	1c20      	adds	r0, r4, #0
 1ee:	f000 f8d5 	bl	39c <uart_put_string>
 1f2:	1c28      	adds	r0, r5, #0
 1f4:	3809      	subs	r0, #9
 1f6:	f7ff ff31 	bl	5c <print_allocate>
 1fa:	2003      	movs	r0, #3
 1fc:	f7ff ff2e 	bl	5c <print_allocate>
 200:	2001      	movs	r0, #1
 202:	f7ff ff2b 	bl	5c <print_allocate>
 206:	2001      	movs	r0, #1
 208:	f7ff ff28 	bl	5c <print_allocate>
 20c:	bd38      	pop	{r3, r4, r5, pc}
 20e:	46c0      	nop			; (mov r8, r8)
 210:	000006ec 	.word	0x000006ec
 214:	000006f2 	.word	0x000006f2
 218:	00000000 	.word	0x00000000
 21c:	0000070a 	.word	0x0000070a
 220:	00008000 	.word	0x00008000
 224:	00008000 	.word	0x00008000
 228:	00000722 	.word	0x00000722
 22c:	0000078d 	.word	0x0000078d
 230:	0000073a 	.word	0x0000073a
 234:	10000000 	.word	0x10000000
 238:	00000752 	.word	0x00000752
 23c:	10001000 	.word	0x10001000
 240:	00001000 	.word	0x00001000
 244:	0000076a 	.word	0x0000076a
 248:	00000782 	.word	0x00000782
 24c:	0000078f 	.word	0x0000078f
 250:	00000000 	.word	0x00000000
 254:	000007a7 	.word	0x000007a7
 258:	00000940 	.word	0x00000940
 25c:	00000940 	.word	0x00000940
 260:	000007bf 	.word	0x000007bf
 264:	000007d7 	.word	0x000007d7
 268:	00000940 	.word	0x00000940
 26c:	000007ef 	.word	0x000007ef
 270:	00000958 	.word	0x00000958
 274:	00000018 	.word	0x00000018
 278:	00000807 	.word	0x00000807
 27c:	0000081f 	.word	0x0000081f
 280:	10000000 	.word	0x10000000
 284:	00000837 	.word	0x00000837
 288:	10000018 	.word	0x10000018
 28c:	00000018 	.word	0x00000018
 290:	0000084f 	.word	0x0000084f
 294:	00000867 	.word	0x00000867
 298:	10000018 	.word	0x10000018
 29c:	0000087f 	.word	0x0000087f
 2a0:	10000060 	.word	0x10000060
 2a4:	00000048 	.word	0x00000048
 2a8:	00000897 	.word	0x00000897
 2ac:	000008af 	.word	0x000008af
 2b0:	10000060 	.word	0x10000060
 2b4:	000008c7 	.word	0x000008c7
 2b8:	10000c60 	.word	0x10000c60
 2bc:	00000c00 	.word	0x00000c00
 2c0:	000008df 	.word	0x000008df
 2c4:	000008f7 	.word	0x000008f7
 2c8:	10000c60 	.word	0x10000c60
 2cc:	0000090f 	.word	0x0000090f
 2d0:	10001000 	.word	0x10001000
 2d4:	000003a0 	.word	0x000003a0
 2d8:	00000927 	.word	0x00000927

000002dc <main>:
 2dc:	b508      	push	{r3, lr}
 2de:	f000 f89b 	bl	418 <timer_init>
 2e2:	f000 f829 	bl	338 <uart_init>
 2e6:	4806      	ldr	r0, [pc, #24]	; (300 <main+0x24>)
 2e8:	f000 f858 	bl	39c <uart_put_string>
 2ec:	230a      	movs	r3, #10
 2ee:	4805      	ldr	r0, [pc, #20]	; (304 <main+0x28>)
 2f0:	7003      	strb	r3, [r0, #0]
 2f2:	2300      	movs	r3, #0
 2f4:	7043      	strb	r3, [r0, #1]
 2f6:	f000 f851 	bl	39c <uart_put_string>
 2fa:	f7ff fee1 	bl	c0 <memmap_print>
 2fe:	e7fe      	b.n	2fe <main+0x22>
 300:	10000000 	.word	0x10000000
 304:	1000001c 	.word	0x1000001c

00000308 <txd_low>:
 308:	2080      	movs	r0, #128	; 0x80
 30a:	4903      	ldr	r1, [pc, #12]	; (318 <txd_low+0x10>)
 30c:	4a03      	ldr	r2, [pc, #12]	; (31c <txd_low+0x14>)
 30e:	588b      	ldr	r3, [r1, r2]
 310:	4383      	bics	r3, r0
 312:	508b      	str	r3, [r1, r2]
 314:	4770      	bx	lr
 316:	46c0      	nop			; (mov r8, r8)
 318:	50010000 	.word	0x50010000
 31c:	00003ffc 	.word	0x00003ffc

00000320 <txd_high>:
 320:	2080      	movs	r0, #128	; 0x80
 322:	4903      	ldr	r1, [pc, #12]	; (330 <txd_high+0x10>)
 324:	4a03      	ldr	r2, [pc, #12]	; (334 <txd_high+0x14>)
 326:	588b      	ldr	r3, [r1, r2]
 328:	4303      	orrs	r3, r0
 32a:	508b      	str	r3, [r1, r2]
 32c:	4770      	bx	lr
 32e:	46c0      	nop			; (mov r8, r8)
 330:	50010000 	.word	0x50010000
 334:	00003ffc 	.word	0x00003ffc

00000338 <uart_init>:
 338:	2280      	movs	r2, #128	; 0x80
 33a:	2080      	movs	r0, #128	; 0x80
 33c:	4904      	ldr	r1, [pc, #16]	; (350 <uart_init+0x18>)
 33e:	b508      	push	{r3, lr}
 340:	0212      	lsls	r2, r2, #8
 342:	588b      	ldr	r3, [r1, r2]
 344:	4303      	orrs	r3, r0
 346:	508b      	str	r3, [r1, r2]
 348:	f7ff ffea 	bl	320 <txd_high>
 34c:	bd08      	pop	{r3, pc}
 34e:	46c0      	nop			; (mov r8, r8)
 350:	50010000 	.word	0x50010000

00000354 <uart_put_char>:
 354:	b5f8      	push	{r3, r4, r5, r6, r7, lr}
 356:	1c06      	adds	r6, r0, #0
 358:	f000 f872 	bl	440 <now>
 35c:	1c04      	adds	r4, r0, #0
 35e:	1c25      	adds	r5, r4, #0
 360:	351a      	adds	r5, #26
 362:	f7ff ffd1 	bl	308 <txd_low>
 366:	1c27      	adds	r7, r4, #0
 368:	1c28      	adds	r0, r5, #0
 36a:	f000 f86f 	bl	44c <await>
 36e:	37ea      	adds	r7, #234	; 0xea
 370:	07f3      	lsls	r3, r6, #31
 372:	d402      	bmi.n	37a <uart_put_char+0x26>
 374:	f7ff ffc8 	bl	308 <txd_low>
 378:	e001      	b.n	37e <uart_put_char+0x2a>
 37a:	f7ff ffd1 	bl	320 <txd_high>
 37e:	351a      	adds	r5, #26
 380:	1c28      	adds	r0, r5, #0
 382:	0876      	lsrs	r6, r6, #1
 384:	f000 f862 	bl	44c <await>
 388:	42bd      	cmp	r5, r7
 38a:	d1f1      	bne.n	370 <uart_put_char+0x1c>
 38c:	f7ff ffc8 	bl	320 <txd_high>
 390:	1c20      	adds	r0, r4, #0
 392:	301f      	adds	r0, #31
 394:	30ff      	adds	r0, #255	; 0xff
 396:	f000 f859 	bl	44c <await>
 39a:	bdf8      	pop	{r3, r4, r5, r6, r7, pc}

0000039c <uart_put_string>:
 39c:	b510      	push	{r4, lr}
 39e:	1c04      	adds	r4, r0, #0
 3a0:	7820      	ldrb	r0, [r4, #0]
 3a2:	2800      	cmp	r0, #0
 3a4:	d003      	beq.n	3ae <__heap_size+0xe>
 3a6:	f7ff ffd5 	bl	354 <uart_put_char>
 3aa:	3401      	adds	r4, #1
 3ac:	e7f8      	b.n	3a0 <__heap_size>
 3ae:	bd10      	pop	{r4, pc}

000003b0 <uart_put_int_decimal>:
 3b0:	b510      	push	{r4, lr}
 3b2:	1c04      	adds	r4, r0, #0
 3b4:	2c00      	cmp	r4, #0
 3b6:	da04      	bge.n	3c2 <uart_put_int_decimal+0x12>
 3b8:	202d      	movs	r0, #45	; 0x2d
 3ba:	f7ff ffcb 	bl	354 <uart_put_char>
 3be:	4264      	negs	r4, r4
 3c0:	e7f8      	b.n	3b4 <uart_put_int_decimal+0x4>
 3c2:	1c20      	adds	r0, r4, #0
 3c4:	210a      	movs	r1, #10
 3c6:	f000 f889 	bl	4dc <__aeabi_idiv>
 3ca:	2800      	cmp	r0, #0
 3cc:	d001      	beq.n	3d2 <uart_put_int_decimal+0x22>
 3ce:	f7ff ffef 	bl	3b0 <uart_put_int_decimal>
 3d2:	1c20      	adds	r0, r4, #0
 3d4:	210a      	movs	r1, #10
 3d6:	f000 f967 	bl	6a8 <__aeabi_idivmod>
 3da:	3130      	adds	r1, #48	; 0x30
 3dc:	b2c8      	uxtb	r0, r1
 3de:	f7ff ffb9 	bl	354 <uart_put_char>
 3e2:	bd10      	pop	{r4, pc}

000003e4 <uart_put_int_hexadecimal_digit>:
 3e4:	b508      	push	{r3, lr}
 3e6:	230f      	movs	r3, #15
 3e8:	4018      	ands	r0, r3
 3ea:	2809      	cmp	r0, #9
 3ec:	dc01      	bgt.n	3f2 <uart_put_int_hexadecimal_digit+0xe>
 3ee:	3030      	adds	r0, #48	; 0x30
 3f0:	e000      	b.n	3f4 <uart_put_int_hexadecimal_digit+0x10>
 3f2:	3037      	adds	r0, #55	; 0x37
 3f4:	f7ff ffae 	bl	354 <uart_put_char>
 3f8:	bd08      	pop	{r3, pc}

000003fa <uart_put_int_hexadecimal>:
 3fa:	b570      	push	{r4, r5, r6, lr}
 3fc:	1c06      	adds	r6, r0, #0
 3fe:	1c0c      	adds	r4, r1, #0
 400:	008d      	lsls	r5, r1, #2
 402:	3d04      	subs	r5, #4
 404:	2c00      	cmp	r4, #0
 406:	dd05      	ble.n	414 <uart_put_int_hexadecimal+0x1a>
 408:	1c30      	adds	r0, r6, #0
 40a:	40e8      	lsrs	r0, r5
 40c:	3c01      	subs	r4, #1
 40e:	f7ff ffe9 	bl	3e4 <uart_put_int_hexadecimal_digit>
 412:	e7f6      	b.n	402 <uart_put_int_hexadecimal+0x8>
 414:	bd70      	pop	{r4, r5, r6, pc}
	...

00000418 <timer_init>:
 418:	2180      	movs	r1, #128	; 0x80
 41a:	4a07      	ldr	r2, [pc, #28]	; (438 <timer_init+0x20>)
 41c:	0089      	lsls	r1, r1, #2
 41e:	6fd3      	ldr	r3, [r2, #124]	; 0x7c
 420:	430b      	orrs	r3, r1
 422:	67d3      	str	r3, [r2, #124]	; 0x7c
 424:	2200      	movs	r2, #0
 426:	4b05      	ldr	r3, [pc, #20]	; (43c <timer_init+0x24>)
 428:	39f6      	subs	r1, #246	; 0xf6
 42a:	39ff      	subs	r1, #255	; 0xff
 42c:	671a      	str	r2, [r3, #112]	; 0x70
 42e:	60d9      	str	r1, [r3, #12]
 430:	609a      	str	r2, [r3, #8]
 432:	3201      	adds	r2, #1
 434:	605a      	str	r2, [r3, #4]
 436:	4770      	bx	lr
 438:	40048004 	.word	0x40048004
 43c:	40014000 	.word	0x40014000

00000440 <now>:
 440:	4b01      	ldr	r3, [pc, #4]	; (448 <now+0x8>)
 442:	6898      	ldr	r0, [r3, #8]
 444:	4770      	bx	lr
 446:	46c0      	nop			; (mov r8, r8)
 448:	40014000 	.word	0x40014000

0000044c <await>:
 44c:	4b02      	ldr	r3, [pc, #8]	; (458 <await+0xc>)
 44e:	689b      	ldr	r3, [r3, #8]
 450:	4298      	cmp	r0, r3
 452:	d8fb      	bhi.n	44c <await>
 454:	4770      	bx	lr
 456:	46c0      	nop			; (mov r8, r8)
 458:	40014000 	.word	0x40014000

0000045c <__startup>:
 45c:	2200      	movs	r2, #0
 45e:	4910      	ldr	r1, [pc, #64]	; (4a0 <__startup+0x44>)
 460:	4b10      	ldr	r3, [pc, #64]	; (4a4 <__startup+0x48>)
 462:	b510      	push	{r4, lr}
 464:	1a5b      	subs	r3, r3, r1
 466:	089b      	lsrs	r3, r3, #2
 468:	3301      	adds	r3, #1
 46a:	009b      	lsls	r3, r3, #2
 46c:	1d10      	adds	r0, r2, #4
 46e:	4298      	cmp	r0, r3
 470:	d004      	beq.n	47c <__startup+0x20>
 472:	2400      	movs	r4, #0
 474:	188a      	adds	r2, r1, r2
 476:	6014      	str	r4, [r2, #0]
 478:	1c02      	adds	r2, r0, #0
 47a:	e7f7      	b.n	46c <__startup+0x10>
 47c:	2200      	movs	r2, #0
 47e:	490a      	ldr	r1, [pc, #40]	; (4a8 <__startup+0x4c>)
 480:	4b0a      	ldr	r3, [pc, #40]	; (4ac <__startup+0x50>)
 482:	1a5b      	subs	r3, r3, r1
 484:	089b      	lsrs	r3, r3, #2
 486:	3301      	adds	r3, #1
 488:	009b      	lsls	r3, r3, #2
 48a:	1d10      	adds	r0, r2, #4
 48c:	4298      	cmp	r0, r3
 48e:	d004      	beq.n	49a <__startup+0x3e>
 490:	4c07      	ldr	r4, [pc, #28]	; (4b0 <__startup+0x54>)
 492:	58a4      	ldr	r4, [r4, r2]
 494:	508c      	str	r4, [r1, r2]
 496:	1c02      	adds	r2, r0, #0
 498:	e7f7      	b.n	48a <__startup+0x2e>
 49a:	f7ff ff1f 	bl	2dc <main>
 49e:	e7fe      	b.n	49e <__startup+0x42>
 4a0:	10000018 	.word	0x10000018
 4a4:	10000060 	.word	0x10000060
 4a8:	10000000 	.word	0x10000000
 4ac:	10000018 	.word	0x10000018
 4b0:	00000940 	.word	0x00000940

000004b4 <malloc>:
 4b4:	3003      	adds	r0, #3
 4b6:	17c3      	asrs	r3, r0, #31
 4b8:	4906      	ldr	r1, [pc, #24]	; (4d4 <malloc+0x20>)
 4ba:	0f9b      	lsrs	r3, r3, #30
 4bc:	181b      	adds	r3, r3, r0
 4be:	680a      	ldr	r2, [r1, #0]
 4c0:	109b      	asrs	r3, r3, #2
 4c2:	009b      	lsls	r3, r3, #2
 4c4:	18d3      	adds	r3, r2, r3
 4c6:	600b      	str	r3, [r1, #0]
 4c8:	4903      	ldr	r1, [pc, #12]	; (4d8 <malloc+0x24>)
 4ca:	2000      	movs	r0, #0
 4cc:	428b      	cmp	r3, r1
 4ce:	d800      	bhi.n	4d2 <malloc+0x1e>
 4d0:	1c10      	adds	r0, r2, #0
 4d2:	4770      	bx	lr
 4d4:	10000014 	.word	0x10000014
 4d8:	10001000 	.word	0x10001000

000004dc <__aeabi_idiv>:
 4dc:	4603      	mov	r3, r0
 4de:	430b      	orrs	r3, r1
 4e0:	d47f      	bmi.n	5e2 <__aeabi_idiv+0x106>
 4e2:	2200      	movs	r2, #0
 4e4:	0843      	lsrs	r3, r0, #1
 4e6:	428b      	cmp	r3, r1
 4e8:	d374      	bcc.n	5d4 <__aeabi_idiv+0xf8>
 4ea:	0903      	lsrs	r3, r0, #4
 4ec:	428b      	cmp	r3, r1
 4ee:	d35f      	bcc.n	5b0 <__aeabi_idiv+0xd4>
 4f0:	0a03      	lsrs	r3, r0, #8
 4f2:	428b      	cmp	r3, r1
 4f4:	d344      	bcc.n	580 <__aeabi_idiv+0xa4>
 4f6:	0b03      	lsrs	r3, r0, #12
 4f8:	428b      	cmp	r3, r1
 4fa:	d328      	bcc.n	54e <__aeabi_idiv+0x72>
 4fc:	0c03      	lsrs	r3, r0, #16
 4fe:	428b      	cmp	r3, r1
 500:	d30d      	bcc.n	51e <__aeabi_idiv+0x42>
 502:	22ff      	movs	r2, #255	; 0xff
 504:	0209      	lsls	r1, r1, #8
 506:	ba12      	rev	r2, r2
 508:	0c03      	lsrs	r3, r0, #16
 50a:	428b      	cmp	r3, r1
 50c:	d302      	bcc.n	514 <__aeabi_idiv+0x38>
 50e:	1212      	asrs	r2, r2, #8
 510:	0209      	lsls	r1, r1, #8
 512:	d065      	beq.n	5e0 <__aeabi_idiv+0x104>
 514:	0b03      	lsrs	r3, r0, #12
 516:	428b      	cmp	r3, r1
 518:	d319      	bcc.n	54e <__aeabi_idiv+0x72>
 51a:	e000      	b.n	51e <__aeabi_idiv+0x42>
 51c:	0a09      	lsrs	r1, r1, #8
 51e:	0bc3      	lsrs	r3, r0, #15
 520:	428b      	cmp	r3, r1
 522:	d301      	bcc.n	528 <__aeabi_idiv+0x4c>
 524:	03cb      	lsls	r3, r1, #15
 526:	1ac0      	subs	r0, r0, r3
 528:	4152      	adcs	r2, r2
 52a:	0b83      	lsrs	r3, r0, #14
 52c:	428b      	cmp	r3, r1
 52e:	d301      	bcc.n	534 <__aeabi_idiv+0x58>
 530:	038b      	lsls	r3, r1, #14
 532:	1ac0      	subs	r0, r0, r3
 534:	4152      	adcs	r2, r2
 536:	0b43      	lsrs	r3, r0, #13
 538:	428b      	cmp	r3, r1
 53a:	d301      	bcc.n	540 <__aeabi_idiv+0x64>
 53c:	034b      	lsls	r3, r1, #13
 53e:	1ac0      	subs	r0, r0, r3
 540:	4152      	adcs	r2, r2
 542:	0b03      	lsrs	r3, r0, #12
 544:	428b      	cmp	r3, r1
 546:	d301      	bcc.n	54c <__aeabi_idiv+0x70>
 548:	030b      	lsls	r3, r1, #12
 54a:	1ac0      	subs	r0, r0, r3
 54c:	4152      	adcs	r2, r2
 54e:	0ac3      	lsrs	r3, r0, #11
 550:	428b      	cmp	r3, r1
 552:	d301      	bcc.n	558 <__aeabi_idiv+0x7c>
 554:	02cb      	lsls	r3, r1, #11
 556:	1ac0      	subs	r0, r0, r3
 558:	4152      	adcs	r2, r2
 55a:	0a83      	lsrs	r3, r0, #10
 55c:	428b      	cmp	r3, r1
 55e:	d301      	bcc.n	564 <__aeabi_idiv+0x88>
 560:	028b      	lsls	r3, r1, #10
 562:	1ac0      	subs	r0, r0, r3
 564:	4152      	adcs	r2, r2
 566:	0a43      	lsrs	r3, r0, #9
 568:	428b      	cmp	r3, r1
 56a:	d301      	bcc.n	570 <__aeabi_idiv+0x94>
 56c:	024b      	lsls	r3, r1, #9
 56e:	1ac0      	subs	r0, r0, r3
 570:	4152      	adcs	r2, r2
 572:	0a03      	lsrs	r3, r0, #8
 574:	428b      	cmp	r3, r1
 576:	d301      	bcc.n	57c <__aeabi_idiv+0xa0>
 578:	020b      	lsls	r3, r1, #8
 57a:	1ac0      	subs	r0, r0, r3
 57c:	4152      	adcs	r2, r2
 57e:	d2cd      	bcs.n	51c <__aeabi_idiv+0x40>
 580:	09c3      	lsrs	r3, r0, #7
 582:	428b      	cmp	r3, r1
 584:	d301      	bcc.n	58a <__aeabi_idiv+0xae>
 586:	01cb      	lsls	r3, r1, #7
 588:	1ac0      	subs	r0, r0, r3
 58a:	4152      	adcs	r2, r2
 58c:	0983      	lsrs	r3, r0, #6
 58e:	428b      	cmp	r3, r1
 590:	d301      	bcc.n	596 <__aeabi_idiv+0xba>
 592:	018b      	lsls	r3, r1, #6
 594:	1ac0      	subs	r0, r0, r3
 596:	4152      	adcs	r2, r2
 598:	0943      	lsrs	r3, r0, #5
 59a:	428b      	cmp	r3, r1
 59c:	d301      	bcc.n	5a2 <__aeabi_idiv+0xc6>
 59e:	014b      	lsls	r3, r1, #5
 5a0:	1ac0      	subs	r0, r0, r3
 5a2:	4152      	adcs	r2, r2
 5a4:	0903      	lsrs	r3, r0, #4
 5a6:	428b      	cmp	r3, r1
 5a8:	d301      	bcc.n	5ae <__aeabi_idiv+0xd2>
 5aa:	010b      	lsls	r3, r1, #4
 5ac:	1ac0      	subs	r0, r0, r3
 5ae:	4152      	adcs	r2, r2
 5b0:	08c3      	lsrs	r3, r0, #3
 5b2:	428b      	cmp	r3, r1
 5b4:	d301      	bcc.n	5ba <__aeabi_idiv+0xde>
 5b6:	00cb      	lsls	r3, r1, #3
 5b8:	1ac0      	subs	r0, r0, r3
 5ba:	4152      	adcs	r2, r2
 5bc:	0883      	lsrs	r3, r0, #2
 5be:	428b      	cmp	r3, r1
 5c0:	d301      	bcc.n	5c6 <__aeabi_idiv+0xea>
 5c2:	008b      	lsls	r3, r1, #2
 5c4:	1ac0      	subs	r0, r0, r3
 5c6:	4152      	adcs	r2, r2
 5c8:	0843      	lsrs	r3, r0, #1
 5ca:	428b      	cmp	r3, r1
 5cc:	d301      	bcc.n	5d2 <__aeabi_idiv+0xf6>
 5ce:	004b      	lsls	r3, r1, #1
 5d0:	1ac0      	subs	r0, r0, r3
 5d2:	4152      	adcs	r2, r2
 5d4:	1a41      	subs	r1, r0, r1
 5d6:	d200      	bcs.n	5da <__aeabi_idiv+0xfe>
 5d8:	4601      	mov	r1, r0
 5da:	4152      	adcs	r2, r2
 5dc:	4610      	mov	r0, r2
 5de:	4770      	bx	lr
 5e0:	e05d      	b.n	69e <__aeabi_idiv+0x1c2>
 5e2:	0fca      	lsrs	r2, r1, #31
 5e4:	d000      	beq.n	5e8 <__aeabi_idiv+0x10c>
 5e6:	4249      	negs	r1, r1
 5e8:	1003      	asrs	r3, r0, #32
 5ea:	d300      	bcc.n	5ee <__aeabi_idiv+0x112>
 5ec:	4240      	negs	r0, r0
 5ee:	4053      	eors	r3, r2
 5f0:	2200      	movs	r2, #0
 5f2:	469c      	mov	ip, r3
 5f4:	0903      	lsrs	r3, r0, #4
 5f6:	428b      	cmp	r3, r1
 5f8:	d32d      	bcc.n	656 <__aeabi_idiv+0x17a>
 5fa:	0a03      	lsrs	r3, r0, #8
 5fc:	428b      	cmp	r3, r1
 5fe:	d312      	bcc.n	626 <__aeabi_idiv+0x14a>
 600:	22fc      	movs	r2, #252	; 0xfc
 602:	0189      	lsls	r1, r1, #6
 604:	ba12      	rev	r2, r2
 606:	0a03      	lsrs	r3, r0, #8
 608:	428b      	cmp	r3, r1
 60a:	d30c      	bcc.n	626 <__aeabi_idiv+0x14a>
 60c:	0189      	lsls	r1, r1, #6
 60e:	1192      	asrs	r2, r2, #6
 610:	428b      	cmp	r3, r1
 612:	d308      	bcc.n	626 <__aeabi_idiv+0x14a>
 614:	0189      	lsls	r1, r1, #6
 616:	1192      	asrs	r2, r2, #6
 618:	428b      	cmp	r3, r1
 61a:	d304      	bcc.n	626 <__aeabi_idiv+0x14a>
 61c:	0189      	lsls	r1, r1, #6
 61e:	d03a      	beq.n	696 <__aeabi_idiv+0x1ba>
 620:	1192      	asrs	r2, r2, #6
 622:	e000      	b.n	626 <__aeabi_idiv+0x14a>
 624:	0989      	lsrs	r1, r1, #6
 626:	09c3      	lsrs	r3, r0, #7
 628:	428b      	cmp	r3, r1
 62a:	d301      	bcc.n	630 <__aeabi_idiv+0x154>
 62c:	01cb      	lsls	r3, r1, #7
 62e:	1ac0      	subs	r0, r0, r3
 630:	4152      	adcs	r2, r2
 632:	0983      	lsrs	r3, r0, #6
 634:	428b      	cmp	r3, r1
 636:	d301      	bcc.n	63c <__aeabi_idiv+0x160>
 638:	018b      	lsls	r3, r1, #6
 63a:	1ac0      	subs	r0, r0, r3
 63c:	4152      	adcs	r2, r2
 63e:	0943      	lsrs	r3, r0, #5
 640:	428b      	cmp	r3, r1
 642:	d301      	bcc.n	648 <__aeabi_idiv+0x16c>
 644:	014b      	lsls	r3, r1, #5
 646:	1ac0      	subs	r0, r0, r3
 648:	4152      	adcs	r2, r2
 64a:	0903      	lsrs	r3, r0, #4
 64c:	428b      	cmp	r3, r1
 64e:	d301      	bcc.n	654 <__aeabi_idiv+0x178>
 650:	010b      	lsls	r3, r1, #4
 652:	1ac0      	subs	r0, r0, r3
 654:	4152      	adcs	r2, r2
 656:	08c3      	lsrs	r3, r0, #3
 658:	428b      	cmp	r3, r1
 65a:	d301      	bcc.n	660 <__aeabi_idiv+0x184>
 65c:	00cb      	lsls	r3, r1, #3
 65e:	1ac0      	subs	r0, r0, r3
 660:	4152      	adcs	r2, r2
 662:	0883      	lsrs	r3, r0, #2
 664:	428b      	cmp	r3, r1
 666:	d301      	bcc.n	66c <__aeabi_idiv+0x190>
 668:	008b      	lsls	r3, r1, #2
 66a:	1ac0      	subs	r0, r0, r3
 66c:	4152      	adcs	r2, r2
 66e:	d2d9      	bcs.n	624 <__aeabi_idiv+0x148>
 670:	0843      	lsrs	r3, r0, #1
 672:	428b      	cmp	r3, r1
 674:	d301      	bcc.n	67a <__aeabi_idiv+0x19e>
 676:	004b      	lsls	r3, r1, #1
 678:	1ac0      	subs	r0, r0, r3
 67a:	4152      	adcs	r2, r2
 67c:	1a41      	subs	r1, r0, r1
 67e:	d200      	bcs.n	682 <__aeabi_idiv+0x1a6>
 680:	4601      	mov	r1, r0
 682:	4663      	mov	r3, ip
 684:	4152      	adcs	r2, r2
 686:	105b      	asrs	r3, r3, #1
 688:	4610      	mov	r0, r2
 68a:	d301      	bcc.n	690 <__aeabi_idiv+0x1b4>
 68c:	4240      	negs	r0, r0
 68e:	2b00      	cmp	r3, #0
 690:	d500      	bpl.n	694 <__aeabi_idiv+0x1b8>
 692:	4249      	negs	r1, r1
 694:	4770      	bx	lr
 696:	4663      	mov	r3, ip
 698:	105b      	asrs	r3, r3, #1
 69a:	d300      	bcc.n	69e <__aeabi_idiv+0x1c2>
 69c:	4240      	negs	r0, r0
 69e:	b501      	push	{r0, lr}
 6a0:	2000      	movs	r0, #0
 6a2:	f000 f80b 	bl	6bc <__aeabi_idiv0>
 6a6:	bd02      	pop	{r1, pc}

000006a8 <__aeabi_idivmod>:
 6a8:	2900      	cmp	r1, #0
 6aa:	d0f8      	beq.n	69e <__aeabi_idiv+0x1c2>
 6ac:	b503      	push	{r0, r1, lr}
 6ae:	f7ff ff15 	bl	4dc <__aeabi_idiv>
 6b2:	bc0e      	pop	{r1, r2, r3}
 6b4:	4342      	muls	r2, r0
 6b6:	1a89      	subs	r1, r1, r2
 6b8:	4718      	bx	r3
 6ba:	46c0      	nop			; (mov r8, r8)

000006bc <__aeabi_idiv0>:
 6bc:	4770      	bx	lr
 6be:	46c0      	nop			; (mov r8, r8)
 6c0:	29002820 	.word	0x29002820
 6c4:	20200020 	.word	0x20200020
 6c8:	6c6c6120 	.word	0x6c6c6120
 6cc:	7461636f 	.word	0x7461636f
 6d0:	20002065 	.word	0x20002065
 6d4:	20003d70 	.word	0x20003d70
 6d8:	6c696166 	.word	0x6c696166
 6dc:	20006465 	.word	0x20006465
 6e0:	74204b4f 	.word	0x74204b4f
 6e4:	6c61746f 	.word	0x6c61746f
 6e8:	00203d20 	.word	0x00203d20
 6ec:	70696843 	.word	0x70696843
 6f0:	2020000a 	.word	0x2020000a
 6f4:	4d4f5220 	.word	0x4d4f5220
 6f8:	61747320 	.word	0x61747320
 6fc:	20207472 	.word	0x20207472
 700:	20202020 	.word	0x20202020
 704:	3a202020 	.word	0x3a202020
 708:	20200020 	.word	0x20200020
 70c:	4d4f5220 	.word	0x4d4f5220
 710:	646e6520 	.word	0x646e6520
 714:	20202020 	.word	0x20202020
 718:	20202020 	.word	0x20202020
 71c:	3a202020 	.word	0x3a202020
 720:	20200020 	.word	0x20200020
 724:	4d4f5220 	.word	0x4d4f5220
 728:	7a697320 	.word	0x7a697320
 72c:	20202065 	.word	0x20202065
 730:	20202020 	.word	0x20202020
 734:	3a202020 	.word	0x3a202020
 738:	20200020 	.word	0x20200020
 73c:	4d415220 	.word	0x4d415220
 740:	61747320 	.word	0x61747320
 744:	20207472 	.word	0x20207472
 748:	20202020 	.word	0x20202020
 74c:	3a202020 	.word	0x3a202020
 750:	20200020 	.word	0x20200020
 754:	4d415220 	.word	0x4d415220
 758:	646e6520 	.word	0x646e6520
 75c:	20202020 	.word	0x20202020
 760:	20202020 	.word	0x20202020
 764:	3a202020 	.word	0x3a202020
 768:	20200020 	.word	0x20200020
 76c:	4d415220 	.word	0x4d415220
 770:	7a697320 	.word	0x7a697320
 774:	20202065 	.word	0x20202065
 778:	20202020 	.word	0x20202020
 77c:	3a202020 	.word	0x3a202020
 780:	70410020 	.word	0x70410020
 784:	63696c70 	.word	0x63696c70
 788:	6f697461 	.word	0x6f697461
 78c:	20000a6e 	.word	0x20000a6e
 790:	45542020 	.word	0x45542020
 794:	73205458 	.word	0x73205458
 798:	74726174 	.word	0x74726174
 79c:	20202020 	.word	0x20202020
 7a0:	20202020 	.word	0x20202020
 7a4:	2000203a 	.word	0x2000203a
 7a8:	45542020 	.word	0x45542020
 7ac:	65205458 	.word	0x65205458
 7b0:	2020646e 	.word	0x2020646e
 7b4:	20202020 	.word	0x20202020
 7b8:	20202020 	.word	0x20202020
 7bc:	2000203a 	.word	0x2000203a
 7c0:	45542020 	.word	0x45542020
 7c4:	73205458 	.word	0x73205458
 7c8:	20657a69 	.word	0x20657a69
 7cc:	20202020 	.word	0x20202020
 7d0:	20202020 	.word	0x20202020
 7d4:	2000203a 	.word	0x2000203a
 7d8:	41442020 	.word	0x41442020
 7dc:	28204154 	.word	0x28204154
 7e0:	294d4f52 	.word	0x294d4f52
 7e4:	61747320 	.word	0x61747320
 7e8:	20207472 	.word	0x20207472
 7ec:	2000203a 	.word	0x2000203a
 7f0:	41442020 	.word	0x41442020
 7f4:	28204154 	.word	0x28204154
 7f8:	294d4f52 	.word	0x294d4f52
 7fc:	646e6520 	.word	0x646e6520
 800:	20202020 	.word	0x20202020
 804:	2000203a 	.word	0x2000203a
 808:	41442020 	.word	0x41442020
 80c:	28204154 	.word	0x28204154
 810:	294d4f52 	.word	0x294d4f52
 814:	7a697320 	.word	0x7a697320
 818:	20202065 	.word	0x20202065
 81c:	2000203a 	.word	0x2000203a
 820:	41442020 	.word	0x41442020
 824:	28204154 	.word	0x28204154
 828:	294d4152 	.word	0x294d4152
 82c:	61747320 	.word	0x61747320
 830:	20207472 	.word	0x20207472
 834:	2000203a 	.word	0x2000203a
 838:	41442020 	.word	0x41442020
 83c:	28204154 	.word	0x28204154
 840:	294d4152 	.word	0x294d4152
 844:	646e6520 	.word	0x646e6520
 848:	20202020 	.word	0x20202020
 84c:	2000203a 	.word	0x2000203a
 850:	41442020 	.word	0x41442020
 854:	28204154 	.word	0x28204154
 858:	294d4152 	.word	0x294d4152
 85c:	7a697320 	.word	0x7a697320
 860:	20202065 	.word	0x20202065
 864:	2000203a 	.word	0x2000203a
 868:	53422020 	.word	0x53422020
 86c:	74732053 	.word	0x74732053
 870:	20747261 	.word	0x20747261
 874:	20202020 	.word	0x20202020
 878:	20202020 	.word	0x20202020
 87c:	2000203a 	.word	0x2000203a
 880:	53422020 	.word	0x53422020
 884:	6e652053 	.word	0x6e652053
 888:	20202064 	.word	0x20202064
 88c:	20202020 	.word	0x20202020
 890:	20202020 	.word	0x20202020
 894:	2000203a 	.word	0x2000203a
 898:	53422020 	.word	0x53422020
 89c:	69732053 	.word	0x69732053
 8a0:	2020657a 	.word	0x2020657a
 8a4:	20202020 	.word	0x20202020
 8a8:	20202020 	.word	0x20202020
 8ac:	2000203a 	.word	0x2000203a
 8b0:	54532020 	.word	0x54532020
 8b4:	204b4341 	.word	0x204b4341
 8b8:	74746f62 	.word	0x74746f62
 8bc:	20206d6f 	.word	0x20206d6f
 8c0:	20202020 	.word	0x20202020
 8c4:	2000203a 	.word	0x2000203a
 8c8:	54532020 	.word	0x54532020
 8cc:	204b4341 	.word	0x204b4341
 8d0:	20706f74 	.word	0x20706f74
 8d4:	20202020 	.word	0x20202020
 8d8:	20202020 	.word	0x20202020
 8dc:	2000203a 	.word	0x2000203a
 8e0:	54532020 	.word	0x54532020
 8e4:	204b4341 	.word	0x204b4341
 8e8:	657a6973 	.word	0x657a6973
 8ec:	20202020 	.word	0x20202020
 8f0:	20202020 	.word	0x20202020
 8f4:	2000203a 	.word	0x2000203a
 8f8:	45482020 	.word	0x45482020
 8fc:	62205041 	.word	0x62205041
 900:	6f74746f 	.word	0x6f74746f
 904:	2020206d 	.word	0x2020206d
 908:	20202020 	.word	0x20202020
 90c:	2000203a 	.word	0x2000203a
 910:	45482020 	.word	0x45482020
 914:	74205041 	.word	0x74205041
 918:	2020706f 	.word	0x2020706f
 91c:	20202020 	.word	0x20202020
 920:	20202020 	.word	0x20202020
 924:	2000203a 	.word	0x2000203a
 928:	45482020 	.word	0x45482020
 92c:	73205041 	.word	0x73205041
 930:	20657a69 	.word	0x20657a69
 934:	20202020 	.word	0x20202020
 938:	20202020 	.word	0x20202020
 93c:	0000203a 	.word	0x0000203a
