
main.elf:     file format elf32-littlearm


Disassembly of section .text:

00000000 <__text_start>:
   0:	10000430 	.word	0x10000430
   4:	00000191 	.word	0x00000191
	...

00000020 <_ZN5hwcpp37callback_administration_double_linkedINS_21timing_implementationINS_12lpc1114_baseILi4096ELi32768ELi12000000EE8timer_64EEEE5_node5visitENS_15moment_durationIxLx6EE6momentE>:
  20:	4770      	bx	lr
  22:	0000      	movs	r0, r0
  24:	0000      	movs	r0, r0
	...

00000028 <_ZN5hwcpp13timing_waiterINS_12lpc1114_baseILi4096ELi32768ELi12000000EE8timer_64EE3nowEv>:
  28:	4b0f      	ldr	r3, [pc, #60]	; (68 <_ZN5hwcpp13timing_waiterINS_12lpc1114_baseILi4096ELi32768ELi12000000EE8timer_64EE3nowEv+0x40>)
  2a:	b5f0      	push	{r4, r5, r6, r7, lr}
  2c:	689c      	ldr	r4, [r3, #8]
  2e:	4b0f      	ldr	r3, [pc, #60]	; (6c <_ZN5hwcpp13timing_waiterINS_12lpc1114_baseILi4096ELi32768ELi12000000EE8timer_64EE3nowEv+0x44>)
  30:	43e4      	mvns	r4, r4
  32:	681a      	ldr	r2, [r3, #0]
  34:	0224      	lsls	r4, r4, #8
  36:	0a24      	lsrs	r4, r4, #8
  38:	1c1d      	adds	r5, r3, #0
  3a:	490d      	ldr	r1, [pc, #52]	; (70 <_ZN5hwcpp13timing_waiterINS_12lpc1114_baseILi4096ELi32768ELi12000000EE8timer_64EE3nowEv+0x48>)
  3c:	4294      	cmp	r4, r2
  3e:	d207      	bcs.n	50 <_ZN5hwcpp13timing_waiterINS_12lpc1114_baseILi4096ELi32768ELi12000000EE8timer_64EE3nowEv+0x28>
  40:	680e      	ldr	r6, [r1, #0]
  42:	684f      	ldr	r7, [r1, #4]
  44:	4b07      	ldr	r3, [pc, #28]	; (64 <_ZN5hwcpp13timing_waiterINS_12lpc1114_baseILi4096ELi32768ELi12000000EE8timer_64EE3nowEv+0x3c>)
  46:	4a06      	ldr	r2, [pc, #24]	; (60 <_ZN5hwcpp13timing_waiterINS_12lpc1114_baseILi4096ELi32768ELi12000000EE8timer_64EE3nowEv+0x38>)
  48:	1992      	adds	r2, r2, r6
  4a:	417b      	adcs	r3, r7
  4c:	600a      	str	r2, [r1, #0]
  4e:	604b      	str	r3, [r1, #4]
  50:	680f      	ldr	r7, [r1, #0]
  52:	6849      	ldr	r1, [r1, #4]
  54:	602c      	str	r4, [r5, #0]
  56:	433c      	orrs	r4, r7
  58:	6004      	str	r4, [r0, #0]
  5a:	6041      	str	r1, [r0, #4]
  5c:	bdf0      	pop	{r4, r5, r6, r7, pc}
  5e:	46c0      	nop			; (mov r8, r8)
  60:	01000000 	.word	0x01000000
  64:	00000000 	.word	0x00000000
  68:	e000e010 	.word	0xe000e010
  6c:	10000020 	.word	0x10000020
  70:	10000018 	.word	0x10000018
  74:	46c0      	nop			; (mov r8, r8)
  76:	46c0      	nop			; (mov r8, r8)

00000078 <_ZN5hwcpp23callback_implementationINS_12lpc1114_baseILi4096ELi32768ELi12000000EE8timer_64ENS_37callback_administration_double_linkedEE4waitENS_15moment_durationIxLx6EE6momentE>:
  78:	b5f0      	push	{r4, r5, r6, r7, lr}
  7a:	b087      	sub	sp, #28
  7c:	9003      	str	r0, [sp, #12]
  7e:	9102      	str	r1, [sp, #8]
  80:	a804      	add	r0, sp, #16
  82:	f7ff ffd1 	bl	28 <_ZN5hwcpp13timing_waiterINS_12lpc1114_baseILi4096ELi32768ELi12000000EE8timer_64EE3nowEv>
  86:	9a04      	ldr	r2, [sp, #16]
  88:	9b05      	ldr	r3, [sp, #20]
  8a:	9e02      	ldr	r6, [sp, #8]
  8c:	9201      	str	r2, [sp, #4]
  8e:	1c1d      	adds	r5, r3, #0
  90:	429e      	cmp	r6, r3
  92:	dc03      	bgt.n	9c <_ZN5hwcpp23callback_implementationINS_12lpc1114_baseILi4096ELi32768ELi12000000EE8timer_64ENS_37callback_administration_double_linkedEE4waitENS_15moment_durationIxLx6EE6momentE+0x24>
  94:	d127      	bne.n	e6 <_ZN5hwcpp23callback_implementationINS_12lpc1114_baseILi4096ELi32768ELi12000000EE8timer_64ENS_37callback_administration_double_linkedEE4waitENS_15moment_durationIxLx6EE6momentE+0x6e>
  96:	9f03      	ldr	r7, [sp, #12]
  98:	4297      	cmp	r7, r2
  9a:	d924      	bls.n	e6 <_ZN5hwcpp23callback_implementationINS_12lpc1114_baseILi4096ELi32768ELi12000000EE8timer_64ENS_37callback_administration_double_linkedEE4waitENS_15moment_durationIxLx6EE6momentE+0x6e>
  9c:	4c13      	ldr	r4, [pc, #76]	; (ec <_ZN5hwcpp23callback_implementationINS_12lpc1114_baseILi4096ELi32768ELi12000000EE8timer_64ENS_37callback_administration_double_linkedEE4waitENS_15moment_durationIxLx6EE6momentE+0x74>)
  9e:	6820      	ldr	r0, [r4, #0]
  a0:	2800      	cmp	r0, #0
  a2:	d1ed      	bne.n	80 <_ZN5hwcpp23callback_implementationINS_12lpc1114_baseILi4096ELi32768ELi12000000EE8timer_64ENS_37callback_administration_double_linkedEE4waitENS_15moment_durationIxLx6EE6momentE+0x8>
  a4:	4f12      	ldr	r7, [pc, #72]	; (f0 <_ZN5hwcpp23callback_implementationINS_12lpc1114_baseILi4096ELi32768ELi12000000EE8timer_64ENS_37callback_administration_double_linkedEE4waitENS_15moment_durationIxLx6EE6momentE+0x78>)
  a6:	2001      	movs	r0, #1
  a8:	683e      	ldr	r6, [r7, #0]
  aa:	6020      	str	r0, [r4, #0]
  ac:	4911      	ldr	r1, [pc, #68]	; (f4 <_ZN5hwcpp23callback_implementationINS_12lpc1114_baseILi4096ELi32768ELi12000000EE8timer_64ENS_37callback_administration_double_linkedEE4waitENS_15moment_durationIxLx6EE6momentE+0x7c>)
  ae:	4206      	tst	r6, r0
  b0:	d104      	bne.n	bc <_ZN5hwcpp23callback_implementationINS_12lpc1114_baseILi4096ELi32768ELi12000000EE8timer_64ENS_37callback_administration_double_linkedEE4waitENS_15moment_durationIxLx6EE6momentE+0x44>
  b2:	4e11      	ldr	r6, [pc, #68]	; (f8 <_ZN5hwcpp23callback_implementationINS_12lpc1114_baseILi4096ELi32768ELi12000000EE8timer_64ENS_37callback_administration_double_linkedEE4waitENS_15moment_durationIxLx6EE6momentE+0x80>)
  b4:	6049      	str	r1, [r1, #4]
  b6:	600e      	str	r6, [r1, #0]
  b8:	6089      	str	r1, [r1, #8]
  ba:	6038      	str	r0, [r7, #0]
  bc:	6848      	ldr	r0, [r1, #4]
  be:	4288      	cmp	r0, r1
  c0:	d00d      	beq.n	de <_ZN5hwcpp23callback_implementationINS_12lpc1114_baseILi4096ELi32768ELi12000000EE8timer_64ENS_37callback_administration_double_linkedEE4waitENS_15moment_durationIxLx6EE6momentE+0x66>
  c2:	6947      	ldr	r7, [r0, #20]
  c4:	42af      	cmp	r7, r5
  c6:	db04      	blt.n	d2 <_ZN5hwcpp23callback_implementationINS_12lpc1114_baseILi4096ELi32768ELi12000000EE8timer_64ENS_37callback_administration_double_linkedEE4waitENS_15moment_durationIxLx6EE6momentE+0x5a>
  c8:	d107      	bne.n	da <_ZN5hwcpp23callback_implementationINS_12lpc1114_baseILi4096ELi32768ELi12000000EE8timer_64ENS_37callback_administration_double_linkedEE4waitENS_15moment_durationIxLx6EE6momentE+0x62>
  ca:	6907      	ldr	r7, [r0, #16]
  cc:	9e01      	ldr	r6, [sp, #4]
  ce:	42b7      	cmp	r7, r6
  d0:	d203      	bcs.n	da <_ZN5hwcpp23callback_implementationINS_12lpc1114_baseILi4096ELi32768ELi12000000EE8timer_64ENS_37callback_administration_double_linkedEE4waitENS_15moment_durationIxLx6EE6momentE+0x62>
  d2:	6801      	ldr	r1, [r0, #0]
  d4:	6809      	ldr	r1, [r1, #0]
  d6:	4788      	blx	r1
  d8:	e001      	b.n	de <_ZN5hwcpp23callback_implementationINS_12lpc1114_baseILi4096ELi32768ELi12000000EE8timer_64ENS_37callback_administration_double_linkedEE4waitENS_15moment_durationIxLx6EE6momentE+0x66>
  da:	6840      	ldr	r0, [r0, #4]
  dc:	e7ef      	b.n	be <_ZN5hwcpp23callback_implementationINS_12lpc1114_baseILi4096ELi32768ELi12000000EE8timer_64ENS_37callback_administration_double_linkedEE4waitENS_15moment_durationIxLx6EE6momentE+0x46>
  de:	6823      	ldr	r3, [r4, #0]
  e0:	3b01      	subs	r3, #1
  e2:	6023      	str	r3, [r4, #0]
  e4:	e7cc      	b.n	80 <_ZN5hwcpp23callback_implementationINS_12lpc1114_baseILi4096ELi32768ELi12000000EE8timer_64ENS_37callback_administration_double_linkedEE4waitENS_15moment_durationIxLx6EE6momentE+0x8>
  e6:	b007      	add	sp, #28
  e8:	bdf0      	pop	{r4, r5, r6, r7, pc}
  ea:	46c0      	nop			; (mov r8, r8)
  ec:	10000024 	.word	0x10000024
  f0:	10000028 	.word	0x10000028
  f4:	10000000 	.word	0x10000000
  f8:	000001f0 	.word	0x000001f0

000000fc <_ZN5hwcpp23callback_implementationINS_12lpc1114_baseILi4096ELi32768ELi12000000EE8timer_64ENS_37callback_administration_double_linkedEE4waitENS_15moment_durationIxLx6EE8durationE>:
  fc:	b537      	push	{r0, r1, r2, r4, r5, lr}
  fe:	1c0d      	adds	r5, r1, #0
 100:	1c04      	adds	r4, r0, #0
 102:	4668      	mov	r0, sp
 104:	f7ff ff90 	bl	28 <_ZN5hwcpp13timing_waiterINS_12lpc1114_baseILi4096ELi32768ELi12000000EE8timer_64EE3nowEv>
 108:	9800      	ldr	r0, [sp, #0]
 10a:	9901      	ldr	r1, [sp, #4]
 10c:	1900      	adds	r0, r0, r4
 10e:	4169      	adcs	r1, r5
 110:	f7ff ffb2 	bl	78 <_ZN5hwcpp23callback_implementationINS_12lpc1114_baseILi4096ELi32768ELi12000000EE8timer_64ENS_37callback_administration_double_linkedEE4waitENS_15moment_durationIxLx6EE6momentE>
 114:	bd37      	pop	{r0, r1, r2, r4, r5, pc}
	...

00000118 <main>:
 118:	4b17      	ldr	r3, [pc, #92]	; (178 <main+0x60>)
 11a:	4918      	ldr	r1, [pc, #96]	; (17c <main+0x64>)
 11c:	2200      	movs	r2, #0
 11e:	b510      	push	{r4, lr}
 120:	601a      	str	r2, [r3, #0]
 122:	6059      	str	r1, [r3, #4]
 124:	609a      	str	r2, [r3, #8]
 126:	2201      	movs	r2, #1
 128:	601a      	str	r2, [r3, #0]
 12a:	4b15      	ldr	r3, [pc, #84]	; (180 <main+0x68>)
 12c:	2280      	movs	r2, #128	; 0x80
 12e:	6fd9      	ldr	r1, [r3, #124]	; 0x7c
 130:	0252      	lsls	r2, r2, #9
 132:	430a      	orrs	r2, r1
 134:	67da      	str	r2, [r3, #124]	; 0x7c
 136:	4b13      	ldr	r3, [pc, #76]	; (184 <main+0x6c>)
 138:	2107      	movs	r1, #7
 13a:	681a      	ldr	r2, [r3, #0]
 13c:	438a      	bics	r2, r1
 13e:	601a      	str	r2, [r3, #0]
 140:	4b11      	ldr	r3, [pc, #68]	; (188 <main+0x70>)
 142:	2280      	movs	r2, #128	; 0x80
 144:	6819      	ldr	r1, [r3, #0]
 146:	0092      	lsls	r2, r2, #2
 148:	430a      	orrs	r2, r1
 14a:	601a      	str	r2, [r3, #0]
 14c:	4c0f      	ldr	r4, [pc, #60]	; (18c <main+0x74>)
 14e:	2301      	movs	r3, #1
 150:	425b      	negs	r3, r3
 152:	6023      	str	r3, [r4, #0]
 154:	4907      	ldr	r1, [pc, #28]	; (174 <main+0x5c>)
 156:	4806      	ldr	r0, [pc, #24]	; (170 <main+0x58>)
 158:	f7ff ffd0 	bl	fc <_ZN5hwcpp23callback_implementationINS_12lpc1114_baseILi4096ELi32768ELi12000000EE8timer_64ENS_37callback_administration_double_linkedEE4waitENS_15moment_durationIxLx6EE8durationE>
 15c:	4905      	ldr	r1, [pc, #20]	; (174 <main+0x5c>)
 15e:	4804      	ldr	r0, [pc, #16]	; (170 <main+0x58>)
 160:	2300      	movs	r3, #0
 162:	6023      	str	r3, [r4, #0]
 164:	f7ff ffca 	bl	fc <_ZN5hwcpp23callback_implementationINS_12lpc1114_baseILi4096ELi32768ELi12000000EE8timer_64ENS_37callback_administration_double_linkedEE4waitENS_15moment_durationIxLx6EE8durationE>
 168:	e7f0      	b.n	14c <main+0x34>
 16a:	46c0      	nop			; (mov r8, r8)
 16c:	46c0      	nop			; (mov r8, r8)
 16e:	46c0      	nop			; (mov r8, r8)
 170:	0016e360 	.word	0x0016e360
 174:	00000000 	.word	0x00000000
 178:	e000e010 	.word	0xe000e010
 17c:	00ffffff 	.word	0x00ffffff
 180:	40048004 	.word	0x40048004
 184:	40044038 	.word	0x40044038
 188:	50018000 	.word	0x50018000
 18c:	50010800 	.word	0x50010800

00000190 <__startup>:
 190:	b510      	push	{r4, lr}
 192:	4b0f      	ldr	r3, [pc, #60]	; (1d0 <__startup+0x40>)
 194:	4a0f      	ldr	r2, [pc, #60]	; (1d4 <__startup+0x44>)
 196:	1d19      	adds	r1, r3, #4
 198:	3b04      	subs	r3, #4
 19a:	4293      	cmp	r3, r2
 19c:	d003      	beq.n	1a6 <__startup+0x16>
 19e:	2200      	movs	r2, #0
 1a0:	601a      	str	r2, [r3, #0]
 1a2:	1c0b      	adds	r3, r1, #0
 1a4:	e7f6      	b.n	194 <__startup+0x4>
 1a6:	4a0c      	ldr	r2, [pc, #48]	; (1d8 <__startup+0x48>)
 1a8:	490c      	ldr	r1, [pc, #48]	; (1dc <__startup+0x4c>)
 1aa:	2300      	movs	r3, #0
 1ac:	1a89      	subs	r1, r1, r2
 1ae:	0889      	lsrs	r1, r1, #2
 1b0:	3101      	adds	r1, #1
 1b2:	0089      	lsls	r1, r1, #2
 1b4:	3304      	adds	r3, #4
 1b6:	428b      	cmp	r3, r1
 1b8:	d007      	beq.n	1ca <__startup+0x3a>
 1ba:	4c09      	ldr	r4, [pc, #36]	; (1e0 <__startup+0x50>)
 1bc:	18d0      	adds	r0, r2, r3
 1be:	191c      	adds	r4, r3, r4
 1c0:	3c04      	subs	r4, #4
 1c2:	6824      	ldr	r4, [r4, #0]
 1c4:	3804      	subs	r0, #4
 1c6:	6004      	str	r4, [r0, #0]
 1c8:	e7f4      	b.n	1b4 <__startup+0x24>
 1ca:	f7ff ffa5 	bl	118 <main>
 1ce:	e7fe      	b.n	1ce <__startup+0x3e>
 1d0:	10000004 	.word	0x10000004
 1d4:	1000002c 	.word	0x1000002c
 1d8:	10000000 	.word	0x10000000
 1dc:	10000000 	.word	0x10000000
 1e0:	000001f8 	.word	0x000001f8
 1e4:	00000000 	.word	0x00000000

000001e8 <_ZTVN5hwcpp37callback_administration_double_linkedINS_21timing_implementationINS_12lpc1114_baseILi4096ELi32768ELi12000000EE8timer_64EEEE5_nodeE>:
	...
 1f0:	00000021 00000000                       !.......
